

Microchip MPLAB XC8 Assembler V2.31 build 20201012212115 
                                                                                               Fri Feb 05 21:41:07 2021

Microchip MPLAB XC8 C Compiler v2.31 (Free license) build 20201012212115 Og1 
     1                           	processor	16F1705
     2                           	pagewidth 120
     3                           	opt	flic
     4                           	psect	stringtext1,global,class=STRCODE,delta=2,noexec
     5                           	psect	nvBANK1,global,class=BANK1,space=1,delta=1,noexec
     6                           	psect	stringtext2,global,class=STRCODE,delta=2,noexec
     7                           	psect	stringtext3,global,class=STRCODE,delta=2,noexec
     8                           	psect	cinit,global,class=CODE,merge=1,delta=2
     9                           	psect	bssCOMMON,global,class=COMMON,space=1,delta=1,noexec
    10                           	psect	bssBANK0,global,class=BANK0,space=1,delta=1,noexec
    11                           	psect	bssBANK1,global,class=BANK1,space=1,delta=1,noexec
    12                           	psect	clrtext,global,class=CODE,delta=2
    13                           	psect	cstackCOMMON,global,class=COMMON,space=1,delta=1,noexec
    14                           	psect	cstackBANK0,global,class=BANK0,space=1,delta=1,noexec
    15                           	psect	maintext,global,class=CODE,merge=1,split=1,delta=2
    16                           	psect	text1,local,class=CODE,merge=1,delta=2,group=1
    17                           	psect	text2,local,class=CODE,merge=1,delta=2
    18                           	psect	text3,local,class=CODE,merge=1,delta=2
    19                           	psect	text4,local,class=CODE,merge=1,delta=2,group=2
    20                           	psect	text5,local,class=CODE,merge=1,delta=2,group=2
    21                           	psect	text6,local,class=CODE,merge=1,delta=2,group=2
    22                           	psect	text7,local,class=CODE,merge=1,delta=2,group=2
    23                           	psect	text8,local,class=CODE,merge=1,delta=2,group=2
    24                           	psect	text9,local,class=CODE,merge=1,delta=2,group=2
    25                           	psect	text10,local,class=CODE,merge=1,delta=2,group=2
    26                           	psect	text11,local,class=CODE,merge=1,delta=2
    27                           	psect	text12,local,class=CODE,merge=1,delta=2
    28                           	psect	text13,local,class=CODE,merge=1,delta=2
    29                           	psect	text14,local,class=CODE,merge=1,delta=2
    30                           	psect	text15,local,class=CODE,merge=1,delta=2
    31                           	psect	text16,local,class=CODE,merge=1,delta=2
    32                           	psect	text17,local,class=CODE,merge=1,delta=2
    33                           	psect	text18,local,class=CODE,merge=1,delta=2
    34                           	psect	text19,local,class=CODE,merge=1,delta=2
    35                           	psect	text20,local,class=CODE,merge=1,delta=2
    36                           	psect	text21,local,class=CODE,merge=1,delta=2
    37                           	psect	text22,local,class=CODE,merge=1,delta=2
    38                           	psect	text23,local,class=CODE,merge=1,delta=2
    39                           	psect	text24,local,class=CODE,merge=1,delta=2
    40                           	psect	text25,local,class=CODE,merge=1,delta=2
    41                           	psect	intentry,global,class=CODE,delta=2
    42                           	psect	text27,local,class=CODE,merge=1,delta=2
    43                           	psect	text28,local,class=CODE,merge=1,delta=2
    44                           	psect	text29,local,class=CODE,merge=1,delta=2
    45                           	psect	text30,local,class=CODE,merge=1,delta=2
    46                           	psect	text31,local,class=CODE,merge=1,delta=2
    47                           	psect	text32,local,class=CODE,merge=1,delta=2
    48                           	psect	text33,local,class=CODE,merge=1,delta=2
    49                           	psect	text34,local,class=CODE,merge=1,delta=2
    50                           	psect	text35,local,class=CODE,merge=1,delta=2
    51                           	psect	config,global,abs,ovrld,class=CONFIG,space=4,delta=2,noexec
    52                           	dabs	1,0x7E,2
    53  0000                     
    54                           ; Version 2.20
    55                           ; Generated 12/02/2020 GMT
    56                           ; 
    57                           ; Copyright © 2020, Microchip Technology Inc. and its subsidiaries ("Microchip")
    58                           ; All rights reserved.
    59                           ; 
    60                           ; This software is developed by Microchip Technology Inc. and its subsidiaries ("Microch
      +                          ip").
    61                           ; 
    62                           ; Redistribution and use in source and binary forms, with or without modification, are
    63                           ; permitted provided that the following conditions are met:
    64                           ; 
    65                           ;     1. Redistributions of source code must retain the above copyright notice, this lis
      +                          t of
    66                           ;        conditions and the following disclaimer.
    67                           ; 
    68                           ;     2. Redistributions in binary form must reproduce the above copyright notice, this 
      +                          list
    69                           ;        of conditions and the following disclaimer in the documentation and/or other
    70                           ;        materials provided with the distribution.
    71                           ; 
    72                           ;     3. Microchip's name may not be used to endorse or promote products derived from th
      +                          is
    73                           ;        software without specific prior written permission.
    74                           ; 
    75                           ; THIS SOFTWARE IS PROVIDED BY MICROCHIP "AS IS" AND ANY EXPRESS OR IMPLIED WARRANTIES,
    76                           ; INCLUDING, BUT NOT LIMITED TO, THE IMPLIED WARRANTIES OF MERCHANTABILITY AND FITNESS F
      +                          OR
    77                           ; PURPOSE ARE DISCLAIMED.  IN NO EVENT SHALL MICROCHIP BE LIABLE FOR ANY DIRECT, INDIREC
      +                          T,
    78                           ; INCIDENTAL, SPECIAL, EXEMPLARY, OR CONSEQUENTIAL DAMAGES (INCLUDING BUT NOT LIMITED TO
    79                           ; PROCUREMENT OF SUBSTITUTE GOODS OR SERVICES; LOSS OF USE, DATA OR PROFITS; OR BUSINESS
    80                           ; INTERRUPTION) HOWSOEVER CAUSED AND ON ANY THEORY OF LIABILITY, WHETHER IN CONTRACT, ST
      +                          RICT
    81                           ; LIABILITY, OR TORT (INCLUDING NEGLIGENCE OR OTHERWISE) ARISING IN ANY WAY OUT OF THE U
      +                          SE OF
    82                           ; THIS SOFTWARE, EVEN IF ADVISED OF THE POSSIBILITY OF SUCH DAMAGE.
    83                           ; 
    84                           ; 
    85                           ; Code-generator required, PIC16F1705 Definitions
    86                           ; 
    87                           ; SFR Addresses
    88  0000                     	;# 
    89  0001                     	;# 
    90  0002                     	;# 
    91  0003                     	;# 
    92  0004                     	;# 
    93  0005                     	;# 
    94  0006                     	;# 
    95  0007                     	;# 
    96  0008                     	;# 
    97  0009                     	;# 
    98  000A                     	;# 
    99  000B                     	;# 
   100  000C                     	;# 
   101  000E                     	;# 
   102  0011                     	;# 
   103  0012                     	;# 
   104  0013                     	;# 
   105  0015                     	;# 
   106  0016                     	;# 
   107  0016                     	;# 
   108  0017                     	;# 
   109  0018                     	;# 
   110  0019                     	;# 
   111  001A                     	;# 
   112  001B                     	;# 
   113  001C                     	;# 
   114  008C                     	;# 
   115  008E                     	;# 
   116  0091                     	;# 
   117  0092                     	;# 
   118  0093                     	;# 
   119  0095                     	;# 
   120  0096                     	;# 
   121  0097                     	;# 
   122  0098                     	;# 
   123  0099                     	;# 
   124  009A                     	;# 
   125  009B                     	;# 
   126  009B                     	;# 
   127  009C                     	;# 
   128  009D                     	;# 
   129  009E                     	;# 
   130  009F                     	;# 
   131  010C                     	;# 
   132  010E                     	;# 
   133  0111                     	;# 
   134  0112                     	;# 
   135  0113                     	;# 
   136  0114                     	;# 
   137  0115                     	;# 
   138  0116                     	;# 
   139  0117                     	;# 
   140  0118                     	;# 
   141  0119                     	;# 
   142  011C                     	;# 
   143  018C                     	;# 
   144  018E                     	;# 
   145  0191                     	;# 
   146  0191                     	;# 
   147  0192                     	;# 
   148  0193                     	;# 
   149  0193                     	;# 
   150  0194                     	;# 
   151  0195                     	;# 
   152  0196                     	;# 
   153  0197                     	;# 
   154  0199                     	;# 
   155  0199                     	;# 
   156  0199                     	;# 
   157  019A                     	;# 
   158  019A                     	;# 
   159  019A                     	;# 
   160  019B                     	;# 
   161  019B                     	;# 
   162  019B                     	;# 
   163  019B                     	;# 
   164  019B                     	;# 
   165  019C                     	;# 
   166  019C                     	;# 
   167  019C                     	;# 
   168  019D                     	;# 
   169  019D                     	;# 
   170  019D                     	;# 
   171  019E                     	;# 
   172  019E                     	;# 
   173  019E                     	;# 
   174  019F                     	;# 
   175  019F                     	;# 
   176  019F                     	;# 
   177  019F                     	;# 
   178  019F                     	;# 
   179  020C                     	;# 
   180  020E                     	;# 
   181  0211                     	;# 
   182  0211                     	;# 
   183  0212                     	;# 
   184  0212                     	;# 
   185  0213                     	;# 
   186  0213                     	;# 
   187  0214                     	;# 
   188  0214                     	;# 
   189  0215                     	;# 
   190  0215                     	;# 
   191  0215                     	;# 
   192  0215                     	;# 
   193  0216                     	;# 
   194  0216                     	;# 
   195  0217                     	;# 
   196  0217                     	;# 
   197  028C                     	;# 
   198  028E                     	;# 
   199  0291                     	;# 
   200  0291                     	;# 
   201  0292                     	;# 
   202  0293                     	;# 
   203  0293                     	;# 
   204  0298                     	;# 
   205  0298                     	;# 
   206  0299                     	;# 
   207  029A                     	;# 
   208  029A                     	;# 
   209  029E                     	;# 
   210  030C                     	;# 
   211  030E                     	;# 
   212  038C                     	;# 
   213  038E                     	;# 
   214  0391                     	;# 
   215  0392                     	;# 
   216  0393                     	;# 
   217  0397                     	;# 
   218  0398                     	;# 
   219  0399                     	;# 
   220  0415                     	;# 
   221  0416                     	;# 
   222  0417                     	;# 
   223  041C                     	;# 
   224  041D                     	;# 
   225  041E                     	;# 
   226  0511                     	;# 
   227  0515                     	;# 
   228  0617                     	;# 
   229  0618                     	;# 
   230  0619                     	;# 
   231  0619                     	;# 
   232  061A                     	;# 
   233  061B                     	;# 
   234  061C                     	;# 
   235  061C                     	;# 
   236  0691                     	;# 
   237  0692                     	;# 
   238  0693                     	;# 
   239  0694                     	;# 
   240  0695                     	;# 
   241  0696                     	;# 
   242  0697                     	;# 
   243  0698                     	;# 
   244  0699                     	;# 
   245  069A                     	;# 
   246  069B                     	;# 
   247  069C                     	;# 
   248  069D                     	;# 
   249  069E                     	;# 
   250  069F                     	;# 
   251  0E0F                     	;# 
   252  0E10                     	;# 
   253  0E11                     	;# 
   254  0E12                     	;# 
   255  0E13                     	;# 
   256  0E14                     	;# 
   257  0E15                     	;# 
   258  0E17                     	;# 
   259  0E20                     	;# 
   260  0E21                     	;# 
   261  0E22                     	;# 
   262  0E24                     	;# 
   263  0E25                     	;# 
   264  0E28                     	;# 
   265  0E29                     	;# 
   266  0E2A                     	;# 
   267  0E2B                     	;# 
   268  0E90                     	;# 
   269  0E91                     	;# 
   270  0E92                     	;# 
   271  0E94                     	;# 
   272  0E95                     	;# 
   273  0EA0                     	;# 
   274  0EA1                     	;# 
   275  0EA2                     	;# 
   276  0EA3                     	;# 
   277  0EA4                     	;# 
   278  0EA5                     	;# 
   279  0F0F                     	;# 
   280  0F10                     	;# 
   281  0F11                     	;# 
   282  0F12                     	;# 
   283  0F13                     	;# 
   284  0F14                     	;# 
   285  0F15                     	;# 
   286  0F16                     	;# 
   287  0F17                     	;# 
   288  0F18                     	;# 
   289  0F19                     	;# 
   290  0F1A                     	;# 
   291  0F1B                     	;# 
   292  0F1C                     	;# 
   293  0F1D                     	;# 
   294  0F1E                     	;# 
   295  0F1F                     	;# 
   296  0F20                     	;# 
   297  0F21                     	;# 
   298  0F22                     	;# 
   299  0F23                     	;# 
   300  0F24                     	;# 
   301  0F25                     	;# 
   302  0F26                     	;# 
   303  0F27                     	;# 
   304  0F28                     	;# 
   305  0F29                     	;# 
   306  0F2A                     	;# 
   307  0F2B                     	;# 
   308  0F2C                     	;# 
   309  0F2D                     	;# 
   310  0F9E                     	;# 
   311  0FE4                     	;# 
   312  0FE5                     	;# 
   313  0FE6                     	;# 
   314  0FE7                     	;# 
   315  0FE8                     	;# 
   316  0FE9                     	;# 
   317  0FEA                     	;# 
   318  0FEB                     	;# 
   319  0FED                     	;# 
   320  0FEE                     	;# 
   321  0FEF                     	;# 
   322  0000                     	;# 
   323  0001                     	;# 
   324  0002                     	;# 
   325  0003                     	;# 
   326  0004                     	;# 
   327  0005                     	;# 
   328  0006                     	;# 
   329  0007                     	;# 
   330  0008                     	;# 
   331  0009                     	;# 
   332  000A                     	;# 
   333  000B                     	;# 
   334  000C                     	;# 
   335  000E                     	;# 
   336  0011                     	;# 
   337  0012                     	;# 
   338  0013                     	;# 
   339  0015                     	;# 
   340  0016                     	;# 
   341  0016                     	;# 
   342  0017                     	;# 
   343  0018                     	;# 
   344  0019                     	;# 
   345  001A                     	;# 
   346  001B                     	;# 
   347  001C                     	;# 
   348  008C                     	;# 
   349  008E                     	;# 
   350  0091                     	;# 
   351  0092                     	;# 
   352  0093                     	;# 
   353  0095                     	;# 
   354  0096                     	;# 
   355  0097                     	;# 
   356  0098                     	;# 
   357  0099                     	;# 
   358  009A                     	;# 
   359  009B                     	;# 
   360  009B                     	;# 
   361  009C                     	;# 
   362  009D                     	;# 
   363  009E                     	;# 
   364  009F                     	;# 
   365  010C                     	;# 
   366  010E                     	;# 
   367  0111                     	;# 
   368  0112                     	;# 
   369  0113                     	;# 
   370  0114                     	;# 
   371  0115                     	;# 
   372  0116                     	;# 
   373  0117                     	;# 
   374  0118                     	;# 
   375  0119                     	;# 
   376  011C                     	;# 
   377  018C                     	;# 
   378  018E                     	;# 
   379  0191                     	;# 
   380  0191                     	;# 
   381  0192                     	;# 
   382  0193                     	;# 
   383  0193                     	;# 
   384  0194                     	;# 
   385  0195                     	;# 
   386  0196                     	;# 
   387  0197                     	;# 
   388  0199                     	;# 
   389  0199                     	;# 
   390  0199                     	;# 
   391  019A                     	;# 
   392  019A                     	;# 
   393  019A                     	;# 
   394  019B                     	;# 
   395  019B                     	;# 
   396  019B                     	;# 
   397  019B                     	;# 
   398  019B                     	;# 
   399  019C                     	;# 
   400  019C                     	;# 
   401  019C                     	;# 
   402  019D                     	;# 
   403  019D                     	;# 
   404  019D                     	;# 
   405  019E                     	;# 
   406  019E                     	;# 
   407  019E                     	;# 
   408  019F                     	;# 
   409  019F                     	;# 
   410  019F                     	;# 
   411  019F                     	;# 
   412  019F                     	;# 
   413  020C                     	;# 
   414  020E                     	;# 
   415  0211                     	;# 
   416  0211                     	;# 
   417  0212                     	;# 
   418  0212                     	;# 
   419  0213                     	;# 
   420  0213                     	;# 
   421  0214                     	;# 
   422  0214                     	;# 
   423  0215                     	;# 
   424  0215                     	;# 
   425  0215                     	;# 
   426  0215                     	;# 
   427  0216                     	;# 
   428  0216                     	;# 
   429  0217                     	;# 
   430  0217                     	;# 
   431  028C                     	;# 
   432  028E                     	;# 
   433  0291                     	;# 
   434  0291                     	;# 
   435  0292                     	;# 
   436  0293                     	;# 
   437  0293                     	;# 
   438  0298                     	;# 
   439  0298                     	;# 
   440  0299                     	;# 
   441  029A                     	;# 
   442  029A                     	;# 
   443  029E                     	;# 
   444  030C                     	;# 
   445  030E                     	;# 
   446  038C                     	;# 
   447  038E                     	;# 
   448  0391                     	;# 
   449  0392                     	;# 
   450  0393                     	;# 
   451  0397                     	;# 
   452  0398                     	;# 
   453  0399                     	;# 
   454  0415                     	;# 
   455  0416                     	;# 
   456  0417                     	;# 
   457  041C                     	;# 
   458  041D                     	;# 
   459  041E                     	;# 
   460  0511                     	;# 
   461  0515                     	;# 
   462  0617                     	;# 
   463  0618                     	;# 
   464  0619                     	;# 
   465  0619                     	;# 
   466  061A                     	;# 
   467  061B                     	;# 
   468  061C                     	;# 
   469  061C                     	;# 
   470  0691                     	;# 
   471  0692                     	;# 
   472  0693                     	;# 
   473  0694                     	;# 
   474  0695                     	;# 
   475  0696                     	;# 
   476  0697                     	;# 
   477  0698                     	;# 
   478  0699                     	;# 
   479  069A                     	;# 
   480  069B                     	;# 
   481  069C                     	;# 
   482  069D                     	;# 
   483  069E                     	;# 
   484  069F                     	;# 
   485  0E0F                     	;# 
   486  0E10                     	;# 
   487  0E11                     	;# 
   488  0E12                     	;# 
   489  0E13                     	;# 
   490  0E14                     	;# 
   491  0E15                     	;# 
   492  0E17                     	;# 
   493  0E20                     	;# 
   494  0E21                     	;# 
   495  0E22                     	;# 
   496  0E24                     	;# 
   497  0E25                     	;# 
   498  0E28                     	;# 
   499  0E29                     	;# 
   500  0E2A                     	;# 
   501  0E2B                     	;# 
   502  0E90                     	;# 
   503  0E91                     	;# 
   504  0E92                     	;# 
   505  0E94                     	;# 
   506  0E95                     	;# 
   507  0EA0                     	;# 
   508  0EA1                     	;# 
   509  0EA2                     	;# 
   510  0EA3                     	;# 
   511  0EA4                     	;# 
   512  0EA5                     	;# 
   513  0F0F                     	;# 
   514  0F10                     	;# 
   515  0F11                     	;# 
   516  0F12                     	;# 
   517  0F13                     	;# 
   518  0F14                     	;# 
   519  0F15                     	;# 
   520  0F16                     	;# 
   521  0F17                     	;# 
   522  0F18                     	;# 
   523  0F19                     	;# 
   524  0F1A                     	;# 
   525  0F1B                     	;# 
   526  0F1C                     	;# 
   527  0F1D                     	;# 
   528  0F1E                     	;# 
   529  0F1F                     	;# 
   530  0F20                     	;# 
   531  0F21                     	;# 
   532  0F22                     	;# 
   533  0F23                     	;# 
   534  0F24                     	;# 
   535  0F25                     	;# 
   536  0F26                     	;# 
   537  0F27                     	;# 
   538  0F28                     	;# 
   539  0F29                     	;# 
   540  0F2A                     	;# 
   541  0F2B                     	;# 
   542  0F2C                     	;# 
   543  0F2D                     	;# 
   544  0F9E                     	;# 
   545  0FE4                     	;# 
   546  0FE5                     	;# 
   547  0FE6                     	;# 
   548  0FE7                     	;# 
   549  0FE8                     	;# 
   550  0FE9                     	;# 
   551  0FEA                     	;# 
   552  0FEB                     	;# 
   553  0FED                     	;# 
   554  0FEE                     	;# 
   555  0FEF                     	;# 
   556  0000                     	;# 
   557  0001                     	;# 
   558  0002                     	;# 
   559  0003                     	;# 
   560  0004                     	;# 
   561  0005                     	;# 
   562  0006                     	;# 
   563  0007                     	;# 
   564  0008                     	;# 
   565  0009                     	;# 
   566  000A                     	;# 
   567  000B                     	;# 
   568  000C                     	;# 
   569  000E                     	;# 
   570  0011                     	;# 
   571  0012                     	;# 
   572  0013                     	;# 
   573  0015                     	;# 
   574  0016                     	;# 
   575  0016                     	;# 
   576  0017                     	;# 
   577  0018                     	;# 
   578  0019                     	;# 
   579  001A                     	;# 
   580  001B                     	;# 
   581  001C                     	;# 
   582  008C                     	;# 
   583  008E                     	;# 
   584  0091                     	;# 
   585  0092                     	;# 
   586  0093                     	;# 
   587  0095                     	;# 
   588  0096                     	;# 
   589  0097                     	;# 
   590  0098                     	;# 
   591  0099                     	;# 
   592  009A                     	;# 
   593  009B                     	;# 
   594  009B                     	;# 
   595  009C                     	;# 
   596  009D                     	;# 
   597  009E                     	;# 
   598  009F                     	;# 
   599  010C                     	;# 
   600  010E                     	;# 
   601  0111                     	;# 
   602  0112                     	;# 
   603  0113                     	;# 
   604  0114                     	;# 
   605  0115                     	;# 
   606  0116                     	;# 
   607  0117                     	;# 
   608  0118                     	;# 
   609  0119                     	;# 
   610  011C                     	;# 
   611  018C                     	;# 
   612  018E                     	;# 
   613  0191                     	;# 
   614  0191                     	;# 
   615  0192                     	;# 
   616  0193                     	;# 
   617  0193                     	;# 
   618  0194                     	;# 
   619  0195                     	;# 
   620  0196                     	;# 
   621  0197                     	;# 
   622  0199                     	;# 
   623  0199                     	;# 
   624  0199                     	;# 
   625  019A                     	;# 
   626  019A                     	;# 
   627  019A                     	;# 
   628  019B                     	;# 
   629  019B                     	;# 
   630  019B                     	;# 
   631  019B                     	;# 
   632  019B                     	;# 
   633  019C                     	;# 
   634  019C                     	;# 
   635  019C                     	;# 
   636  019D                     	;# 
   637  019D                     	;# 
   638  019D                     	;# 
   639  019E                     	;# 
   640  019E                     	;# 
   641  019E                     	;# 
   642  019F                     	;# 
   643  019F                     	;# 
   644  019F                     	;# 
   645  019F                     	;# 
   646  019F                     	;# 
   647  020C                     	;# 
   648  020E                     	;# 
   649  0211                     	;# 
   650  0211                     	;# 
   651  0212                     	;# 
   652  0212                     	;# 
   653  0213                     	;# 
   654  0213                     	;# 
   655  0214                     	;# 
   656  0214                     	;# 
   657  0215                     	;# 
   658  0215                     	;# 
   659  0215                     	;# 
   660  0215                     	;# 
   661  0216                     	;# 
   662  0216                     	;# 
   663  0217                     	;# 
   664  0217                     	;# 
   665  028C                     	;# 
   666  028E                     	;# 
   667  0291                     	;# 
   668  0291                     	;# 
   669  0292                     	;# 
   670  0293                     	;# 
   671  0293                     	;# 
   672  0298                     	;# 
   673  0298                     	;# 
   674  0299                     	;# 
   675  029A                     	;# 
   676  029A                     	;# 
   677  029E                     	;# 
   678  030C                     	;# 
   679  030E                     	;# 
   680  038C                     	;# 
   681  038E                     	;# 
   682  0391                     	;# 
   683  0392                     	;# 
   684  0393                     	;# 
   685  0397                     	;# 
   686  0398                     	;# 
   687  0399                     	;# 
   688  0415                     	;# 
   689  0416                     	;# 
   690  0417                     	;# 
   691  041C                     	;# 
   692  041D                     	;# 
   693  041E                     	;# 
   694  0511                     	;# 
   695  0515                     	;# 
   696  0617                     	;# 
   697  0618                     	;# 
   698  0619                     	;# 
   699  0619                     	;# 
   700  061A                     	;# 
   701  061B                     	;# 
   702  061C                     	;# 
   703  061C                     	;# 
   704  0691                     	;# 
   705  0692                     	;# 
   706  0693                     	;# 
   707  0694                     	;# 
   708  0695                     	;# 
   709  0696                     	;# 
   710  0697                     	;# 
   711  0698                     	;# 
   712  0699                     	;# 
   713  069A                     	;# 
   714  069B                     	;# 
   715  069C                     	;# 
   716  069D                     	;# 
   717  069E                     	;# 
   718  069F                     	;# 
   719  0E0F                     	;# 
   720  0E10                     	;# 
   721  0E11                     	;# 
   722  0E12                     	;# 
   723  0E13                     	;# 
   724  0E14                     	;# 
   725  0E15                     	;# 
   726  0E17                     	;# 
   727  0E20                     	;# 
   728  0E21                     	;# 
   729  0E22                     	;# 
   730  0E24                     	;# 
   731  0E25                     	;# 
   732  0E28                     	;# 
   733  0E29                     	;# 
   734  0E2A                     	;# 
   735  0E2B                     	;# 
   736  0E90                     	;# 
   737  0E91                     	;# 
   738  0E92                     	;# 
   739  0E94                     	;# 
   740  0E95                     	;# 
   741  0EA0                     	;# 
   742  0EA1                     	;# 
   743  0EA2                     	;# 
   744  0EA3                     	;# 
   745  0EA4                     	;# 
   746  0EA5                     	;# 
   747  0F0F                     	;# 
   748  0F10                     	;# 
   749  0F11                     	;# 
   750  0F12                     	;# 
   751  0F13                     	;# 
   752  0F14                     	;# 
   753  0F15                     	;# 
   754  0F16                     	;# 
   755  0F17                     	;# 
   756  0F18                     	;# 
   757  0F19                     	;# 
   758  0F1A                     	;# 
   759  0F1B                     	;# 
   760  0F1C                     	;# 
   761  0F1D                     	;# 
   762  0F1E                     	;# 
   763  0F1F                     	;# 
   764  0F20                     	;# 
   765  0F21                     	;# 
   766  0F22                     	;# 
   767  0F23                     	;# 
   768  0F24                     	;# 
   769  0F25                     	;# 
   770  0F26                     	;# 
   771  0F27                     	;# 
   772  0F28                     	;# 
   773  0F29                     	;# 
   774  0F2A                     	;# 
   775  0F2B                     	;# 
   776  0F2C                     	;# 
   777  0F2D                     	;# 
   778  0F9E                     	;# 
   779  0FE4                     	;# 
   780  0FE5                     	;# 
   781  0FE6                     	;# 
   782  0FE7                     	;# 
   783  0FE8                     	;# 
   784  0FE9                     	;# 
   785  0FEA                     	;# 
   786  0FEB                     	;# 
   787  0FED                     	;# 
   788  0FEE                     	;# 
   789  0FEF                     	;# 
   790  0000                     	;# 
   791  0001                     	;# 
   792  0002                     	;# 
   793  0003                     	;# 
   794  0004                     	;# 
   795  0005                     	;# 
   796  0006                     	;# 
   797  0007                     	;# 
   798  0008                     	;# 
   799  0009                     	;# 
   800  000A                     	;# 
   801  000B                     	;# 
   802  000C                     	;# 
   803  000E                     	;# 
   804  0011                     	;# 
   805  0012                     	;# 
   806  0013                     	;# 
   807  0015                     	;# 
   808  0016                     	;# 
   809  0016                     	;# 
   810  0017                     	;# 
   811  0018                     	;# 
   812  0019                     	;# 
   813  001A                     	;# 
   814  001B                     	;# 
   815  001C                     	;# 
   816  008C                     	;# 
   817  008E                     	;# 
   818  0091                     	;# 
   819  0092                     	;# 
   820  0093                     	;# 
   821  0095                     	;# 
   822  0096                     	;# 
   823  0097                     	;# 
   824  0098                     	;# 
   825  0099                     	;# 
   826  009A                     	;# 
   827  009B                     	;# 
   828  009B                     	;# 
   829  009C                     	;# 
   830  009D                     	;# 
   831  009E                     	;# 
   832  009F                     	;# 
   833  010C                     	;# 
   834  010E                     	;# 
   835  0111                     	;# 
   836  0112                     	;# 
   837  0113                     	;# 
   838  0114                     	;# 
   839  0115                     	;# 
   840  0116                     	;# 
   841  0117                     	;# 
   842  0118                     	;# 
   843  0119                     	;# 
   844  011C                     	;# 
   845  018C                     	;# 
   846  018E                     	;# 
   847  0191                     	;# 
   848  0191                     	;# 
   849  0192                     	;# 
   850  0193                     	;# 
   851  0193                     	;# 
   852  0194                     	;# 
   853  0195                     	;# 
   854  0196                     	;# 
   855  0197                     	;# 
   856  0199                     	;# 
   857  0199                     	;# 
   858  0199                     	;# 
   859  019A                     	;# 
   860  019A                     	;# 
   861  019A                     	;# 
   862  019B                     	;# 
   863  019B                     	;# 
   864  019B                     	;# 
   865  019B                     	;# 
   866  019B                     	;# 
   867  019C                     	;# 
   868  019C                     	;# 
   869  019C                     	;# 
   870  019D                     	;# 
   871  019D                     	;# 
   872  019D                     	;# 
   873  019E                     	;# 
   874  019E                     	;# 
   875  019E                     	;# 
   876  019F                     	;# 
   877  019F                     	;# 
   878  019F                     	;# 
   879  019F                     	;# 
   880  019F                     	;# 
   881  020C                     	;# 
   882  020E                     	;# 
   883  0211                     	;# 
   884  0211                     	;# 
   885  0212                     	;# 
   886  0212                     	;# 
   887  0213                     	;# 
   888  0213                     	;# 
   889  0214                     	;# 
   890  0214                     	;# 
   891  0215                     	;# 
   892  0215                     	;# 
   893  0215                     	;# 
   894  0215                     	;# 
   895  0216                     	;# 
   896  0216                     	;# 
   897  0217                     	;# 
   898  0217                     	;# 
   899  028C                     	;# 
   900  028E                     	;# 
   901  0291                     	;# 
   902  0291                     	;# 
   903  0292                     	;# 
   904  0293                     	;# 
   905  0293                     	;# 
   906  0298                     	;# 
   907  0298                     	;# 
   908  0299                     	;# 
   909  029A                     	;# 
   910  029A                     	;# 
   911  029E                     	;# 
   912  030C                     	;# 
   913  030E                     	;# 
   914  038C                     	;# 
   915  038E                     	;# 
   916  0391                     	;# 
   917  0392                     	;# 
   918  0393                     	;# 
   919  0397                     	;# 
   920  0398                     	;# 
   921  0399                     	;# 
   922  0415                     	;# 
   923  0416                     	;# 
   924  0417                     	;# 
   925  041C                     	;# 
   926  041D                     	;# 
   927  041E                     	;# 
   928  0511                     	;# 
   929  0515                     	;# 
   930  0617                     	;# 
   931  0618                     	;# 
   932  0619                     	;# 
   933  0619                     	;# 
   934  061A                     	;# 
   935  061B                     	;# 
   936  061C                     	;# 
   937  061C                     	;# 
   938  0691                     	;# 
   939  0692                     	;# 
   940  0693                     	;# 
   941  0694                     	;# 
   942  0695                     	;# 
   943  0696                     	;# 
   944  0697                     	;# 
   945  0698                     	;# 
   946  0699                     	;# 
   947  069A                     	;# 
   948  069B                     	;# 
   949  069C                     	;# 
   950  069D                     	;# 
   951  069E                     	;# 
   952  069F                     	;# 
   953  0E0F                     	;# 
   954  0E10                     	;# 
   955  0E11                     	;# 
   956  0E12                     	;# 
   957  0E13                     	;# 
   958  0E14                     	;# 
   959  0E15                     	;# 
   960  0E17                     	;# 
   961  0E20                     	;# 
   962  0E21                     	;# 
   963  0E22                     	;# 
   964  0E24                     	;# 
   965  0E25                     	;# 
   966  0E28                     	;# 
   967  0E29                     	;# 
   968  0E2A                     	;# 
   969  0E2B                     	;# 
   970  0E90                     	;# 
   971  0E91                     	;# 
   972  0E92                     	;# 
   973  0E94                     	;# 
   974  0E95                     	;# 
   975  0EA0                     	;# 
   976  0EA1                     	;# 
   977  0EA2                     	;# 
   978  0EA3                     	;# 
   979  0EA4                     	;# 
   980  0EA5                     	;# 
   981  0F0F                     	;# 
   982  0F10                     	;# 
   983  0F11                     	;# 
   984  0F12                     	;# 
   985  0F13                     	;# 
   986  0F14                     	;# 
   987  0F15                     	;# 
   988  0F16                     	;# 
   989  0F17                     	;# 
   990  0F18                     	;# 
   991  0F19                     	;# 
   992  0F1A                     	;# 
   993  0F1B                     	;# 
   994  0F1C                     	;# 
   995  0F1D                     	;# 
   996  0F1E                     	;# 
   997  0F1F                     	;# 
   998  0F20                     	;# 
   999  0F21                     	;# 
  1000  0F22                     	;# 
  1001  0F23                     	;# 
  1002  0F24                     	;# 
  1003  0F25                     	;# 
  1004  0F26                     	;# 
  1005  0F27                     	;# 
  1006  0F28                     	;# 
  1007  0F29                     	;# 
  1008  0F2A                     	;# 
  1009  0F2B                     	;# 
  1010  0F2C                     	;# 
  1011  0F2D                     	;# 
  1012  0F9E                     	;# 
  1013  0FE4                     	;# 
  1014  0FE5                     	;# 
  1015  0FE6                     	;# 
  1016  0FE7                     	;# 
  1017  0FE8                     	;# 
  1018  0FE9                     	;# 
  1019  0FEA                     	;# 
  1020  0FEB                     	;# 
  1021  0FED                     	;# 
  1022  0FEE                     	;# 
  1023  0FEF                     	;# 
  1024  0000                     	;# 
  1025  0001                     	;# 
  1026  0002                     	;# 
  1027  0003                     	;# 
  1028  0004                     	;# 
  1029  0005                     	;# 
  1030  0006                     	;# 
  1031  0007                     	;# 
  1032  0008                     	;# 
  1033  0009                     	;# 
  1034  000A                     	;# 
  1035  000B                     	;# 
  1036  000C                     	;# 
  1037  000E                     	;# 
  1038  0011                     	;# 
  1039  0012                     	;# 
  1040  0013                     	;# 
  1041  0015                     	;# 
  1042  0016                     	;# 
  1043  0016                     	;# 
  1044  0017                     	;# 
  1045  0018                     	;# 
  1046  0019                     	;# 
  1047  001A                     	;# 
  1048  001B                     	;# 
  1049  001C                     	;# 
  1050  008C                     	;# 
  1051  008E                     	;# 
  1052  0091                     	;# 
  1053  0092                     	;# 
  1054  0093                     	;# 
  1055  0095                     	;# 
  1056  0096                     	;# 
  1057  0097                     	;# 
  1058  0098                     	;# 
  1059  0099                     	;# 
  1060  009A                     	;# 
  1061  009B                     	;# 
  1062  009B                     	;# 
  1063  009C                     	;# 
  1064  009D                     	;# 
  1065  009E                     	;# 
  1066  009F                     	;# 
  1067  010C                     	;# 
  1068  010E                     	;# 
  1069  0111                     	;# 
  1070  0112                     	;# 
  1071  0113                     	;# 
  1072  0114                     	;# 
  1073  0115                     	;# 
  1074  0116                     	;# 
  1075  0117                     	;# 
  1076  0118                     	;# 
  1077  0119                     	;# 
  1078  011C                     	;# 
  1079  018C                     	;# 
  1080  018E                     	;# 
  1081  0191                     	;# 
  1082  0191                     	;# 
  1083  0192                     	;# 
  1084  0193                     	;# 
  1085  0193                     	;# 
  1086  0194                     	;# 
  1087  0195                     	;# 
  1088  0196                     	;# 
  1089  0197                     	;# 
  1090  0199                     	;# 
  1091  0199                     	;# 
  1092  0199                     	;# 
  1093  019A                     	;# 
  1094  019A                     	;# 
  1095  019A                     	;# 
  1096  019B                     	;# 
  1097  019B                     	;# 
  1098  019B                     	;# 
  1099  019B                     	;# 
  1100  019B                     	;# 
  1101  019C                     	;# 
  1102  019C                     	;# 
  1103  019C                     	;# 
  1104  019D                     	;# 
  1105  019D                     	;# 
  1106  019D                     	;# 
  1107  019E                     	;# 
  1108  019E                     	;# 
  1109  019E                     	;# 
  1110  019F                     	;# 
  1111  019F                     	;# 
  1112  019F                     	;# 
  1113  019F                     	;# 
  1114  019F                     	;# 
  1115  020C                     	;# 
  1116  020E                     	;# 
  1117  0211                     	;# 
  1118  0211                     	;# 
  1119  0212                     	;# 
  1120  0212                     	;# 
  1121  0213                     	;# 
  1122  0213                     	;# 
  1123  0214                     	;# 
  1124  0214                     	;# 
  1125  0215                     	;# 
  1126  0215                     	;# 
  1127  0215                     	;# 
  1128  0215                     	;# 
  1129  0216                     	;# 
  1130  0216                     	;# 
  1131  0217                     	;# 
  1132  0217                     	;# 
  1133  028C                     	;# 
  1134  028E                     	;# 
  1135  0291                     	;# 
  1136  0291                     	;# 
  1137  0292                     	;# 
  1138  0293                     	;# 
  1139  0293                     	;# 
  1140  0298                     	;# 
  1141  0298                     	;# 
  1142  0299                     	;# 
  1143  029A                     	;# 
  1144  029A                     	;# 
  1145  029E                     	;# 
  1146  030C                     	;# 
  1147  030E                     	;# 
  1148  038C                     	;# 
  1149  038E                     	;# 
  1150  0391                     	;# 
  1151  0392                     	;# 
  1152  0393                     	;# 
  1153  0397                     	;# 
  1154  0398                     	;# 
  1155  0399                     	;# 
  1156  0415                     	;# 
  1157  0416                     	;# 
  1158  0417                     	;# 
  1159  041C                     	;# 
  1160  041D                     	;# 
  1161  041E                     	;# 
  1162  0511                     	;# 
  1163  0515                     	;# 
  1164  0617                     	;# 
  1165  0618                     	;# 
  1166  0619                     	;# 
  1167  0619                     	;# 
  1168  061A                     	;# 
  1169  061B                     	;# 
  1170  061C                     	;# 
  1171  061C                     	;# 
  1172  0691                     	;# 
  1173  0692                     	;# 
  1174  0693                     	;# 
  1175  0694                     	;# 
  1176  0695                     	;# 
  1177  0696                     	;# 
  1178  0697                     	;# 
  1179  0698                     	;# 
  1180  0699                     	;# 
  1181  069A                     	;# 
  1182  069B                     	;# 
  1183  069C                     	;# 
  1184  069D                     	;# 
  1185  069E                     	;# 
  1186  069F                     	;# 
  1187  0E0F                     	;# 
  1188  0E10                     	;# 
  1189  0E11                     	;# 
  1190  0E12                     	;# 
  1191  0E13                     	;# 
  1192  0E14                     	;# 
  1193  0E15                     	;# 
  1194  0E17                     	;# 
  1195  0E20                     	;# 
  1196  0E21                     	;# 
  1197  0E22                     	;# 
  1198  0E24                     	;# 
  1199  0E25                     	;# 
  1200  0E28                     	;# 
  1201  0E29                     	;# 
  1202  0E2A                     	;# 
  1203  0E2B                     	;# 
  1204  0E90                     	;# 
  1205  0E91                     	;# 
  1206  0E92                     	;# 
  1207  0E94                     	;# 
  1208  0E95                     	;# 
  1209  0EA0                     	;# 
  1210  0EA1                     	;# 
  1211  0EA2                     	;# 
  1212  0EA3                     	;# 
  1213  0EA4                     	;# 
  1214  0EA5                     	;# 
  1215  0F0F                     	;# 
  1216  0F10                     	;# 
  1217  0F11                     	;# 
  1218  0F12                     	;# 
  1219  0F13                     	;# 
  1220  0F14                     	;# 
  1221  0F15                     	;# 
  1222  0F16                     	;# 
  1223  0F17                     	;# 
  1224  0F18                     	;# 
  1225  0F19                     	;# 
  1226  0F1A                     	;# 
  1227  0F1B                     	;# 
  1228  0F1C                     	;# 
  1229  0F1D                     	;# 
  1230  0F1E                     	;# 
  1231  0F1F                     	;# 
  1232  0F20                     	;# 
  1233  0F21                     	;# 
  1234  0F22                     	;# 
  1235  0F23                     	;# 
  1236  0F24                     	;# 
  1237  0F25                     	;# 
  1238  0F26                     	;# 
  1239  0F27                     	;# 
  1240  0F28                     	;# 
  1241  0F29                     	;# 
  1242  0F2A                     	;# 
  1243  0F2B                     	;# 
  1244  0F2C                     	;# 
  1245  0F2D                     	;# 
  1246  0F9E                     	;# 
  1247  0FE4                     	;# 
  1248  0FE5                     	;# 
  1249  0FE6                     	;# 
  1250  0FE7                     	;# 
  1251  0FE8                     	;# 
  1252  0FE9                     	;# 
  1253  0FEA                     	;# 
  1254  0FEB                     	;# 
  1255  0FED                     	;# 
  1256  0FEE                     	;# 
  1257  0FEF                     	;# 
  1258  0000                     	;# 
  1259  0001                     	;# 
  1260  0002                     	;# 
  1261  0003                     	;# 
  1262  0004                     	;# 
  1263  0005                     	;# 
  1264  0006                     	;# 
  1265  0007                     	;# 
  1266  0008                     	;# 
  1267  0009                     	;# 
  1268  000A                     	;# 
  1269  000B                     	;# 
  1270  000C                     	;# 
  1271  000E                     	;# 
  1272  0011                     	;# 
  1273  0012                     	;# 
  1274  0013                     	;# 
  1275  0015                     	;# 
  1276  0016                     	;# 
  1277  0016                     	;# 
  1278  0017                     	;# 
  1279  0018                     	;# 
  1280  0019                     	;# 
  1281  001A                     	;# 
  1282  001B                     	;# 
  1283  001C                     	;# 
  1284  008C                     	;# 
  1285  008E                     	;# 
  1286  0091                     	;# 
  1287  0092                     	;# 
  1288  0093                     	;# 
  1289  0095                     	;# 
  1290  0096                     	;# 
  1291  0097                     	;# 
  1292  0098                     	;# 
  1293  0099                     	;# 
  1294  009A                     	;# 
  1295  009B                     	;# 
  1296  009B                     	;# 
  1297  009C                     	;# 
  1298  009D                     	;# 
  1299  009E                     	;# 
  1300  009F                     	;# 
  1301  010C                     	;# 
  1302  010E                     	;# 
  1303  0111                     	;# 
  1304  0112                     	;# 
  1305  0113                     	;# 
  1306  0114                     	;# 
  1307  0115                     	;# 
  1308  0116                     	;# 
  1309  0117                     	;# 
  1310  0118                     	;# 
  1311  0119                     	;# 
  1312  011C                     	;# 
  1313  018C                     	;# 
  1314  018E                     	;# 
  1315  0191                     	;# 
  1316  0191                     	;# 
  1317  0192                     	;# 
  1318  0193                     	;# 
  1319  0193                     	;# 
  1320  0194                     	;# 
  1321  0195                     	;# 
  1322  0196                     	;# 
  1323  0197                     	;# 
  1324  0199                     	;# 
  1325  0199                     	;# 
  1326  0199                     	;# 
  1327  019A                     	;# 
  1328  019A                     	;# 
  1329  019A                     	;# 
  1330  019B                     	;# 
  1331  019B                     	;# 
  1332  019B                     	;# 
  1333  019B                     	;# 
  1334  019B                     	;# 
  1335  019C                     	;# 
  1336  019C                     	;# 
  1337  019C                     	;# 
  1338  019D                     	;# 
  1339  019D                     	;# 
  1340  019D                     	;# 
  1341  019E                     	;# 
  1342  019E                     	;# 
  1343  019E                     	;# 
  1344  019F                     	;# 
  1345  019F                     	;# 
  1346  019F                     	;# 
  1347  019F                     	;# 
  1348  019F                     	;# 
  1349  020C                     	;# 
  1350  020E                     	;# 
  1351  0211                     	;# 
  1352  0211                     	;# 
  1353  0212                     	;# 
  1354  0212                     	;# 
  1355  0213                     	;# 
  1356  0213                     	;# 
  1357  0214                     	;# 
  1358  0214                     	;# 
  1359  0215                     	;# 
  1360  0215                     	;# 
  1361  0215                     	;# 
  1362  0215                     	;# 
  1363  0216                     	;# 
  1364  0216                     	;# 
  1365  0217                     	;# 
  1366  0217                     	;# 
  1367  028C                     	;# 
  1368  028E                     	;# 
  1369  0291                     	;# 
  1370  0291                     	;# 
  1371  0292                     	;# 
  1372  0293                     	;# 
  1373  0293                     	;# 
  1374  0298                     	;# 
  1375  0298                     	;# 
  1376  0299                     	;# 
  1377  029A                     	;# 
  1378  029A                     	;# 
  1379  029E                     	;# 
  1380  030C                     	;# 
  1381  030E                     	;# 
  1382  038C                     	;# 
  1383  038E                     	;# 
  1384  0391                     	;# 
  1385  0392                     	;# 
  1386  0393                     	;# 
  1387  0397                     	;# 
  1388  0398                     	;# 
  1389  0399                     	;# 
  1390  0415                     	;# 
  1391  0416                     	;# 
  1392  0417                     	;# 
  1393  041C                     	;# 
  1394  041D                     	;# 
  1395  041E                     	;# 
  1396  0511                     	;# 
  1397  0515                     	;# 
  1398  0617                     	;# 
  1399  0618                     	;# 
  1400  0619                     	;# 
  1401  0619                     	;# 
  1402  061A                     	;# 
  1403  061B                     	;# 
  1404  061C                     	;# 
  1405  061C                     	;# 
  1406  0691                     	;# 
  1407  0692                     	;# 
  1408  0693                     	;# 
  1409  0694                     	;# 
  1410  0695                     	;# 
  1411  0696                     	;# 
  1412  0697                     	;# 
  1413  0698                     	;# 
  1414  0699                     	;# 
  1415  069A                     	;# 
  1416  069B                     	;# 
  1417  069C                     	;# 
  1418  069D                     	;# 
  1419  069E                     	;# 
  1420  069F                     	;# 
  1421  0E0F                     	;# 
  1422  0E10                     	;# 
  1423  0E11                     	;# 
  1424  0E12                     	;# 
  1425  0E13                     	;# 
  1426  0E14                     	;# 
  1427  0E15                     	;# 
  1428  0E17                     	;# 
  1429  0E20                     	;# 
  1430  0E21                     	;# 
  1431  0E22                     	;# 
  1432  0E24                     	;# 
  1433  0E25                     	;# 
  1434  0E28                     	;# 
  1435  0E29                     	;# 
  1436  0E2A                     	;# 
  1437  0E2B                     	;# 
  1438  0E90                     	;# 
  1439  0E91                     	;# 
  1440  0E92                     	;# 
  1441  0E94                     	;# 
  1442  0E95                     	;# 
  1443  0EA0                     	;# 
  1444  0EA1                     	;# 
  1445  0EA2                     	;# 
  1446  0EA3                     	;# 
  1447  0EA4                     	;# 
  1448  0EA5                     	;# 
  1449  0F0F                     	;# 
  1450  0F10                     	;# 
  1451  0F11                     	;# 
  1452  0F12                     	;# 
  1453  0F13                     	;# 
  1454  0F14                     	;# 
  1455  0F15                     	;# 
  1456  0F16                     	;# 
  1457  0F17                     	;# 
  1458  0F18                     	;# 
  1459  0F19                     	;# 
  1460  0F1A                     	;# 
  1461  0F1B                     	;# 
  1462  0F1C                     	;# 
  1463  0F1D                     	;# 
  1464  0F1E                     	;# 
  1465  0F1F                     	;# 
  1466  0F20                     	;# 
  1467  0F21                     	;# 
  1468  0F22                     	;# 
  1469  0F23                     	;# 
  1470  0F24                     	;# 
  1471  0F25                     	;# 
  1472  0F26                     	;# 
  1473  0F27                     	;# 
  1474  0F28                     	;# 
  1475  0F29                     	;# 
  1476  0F2A                     	;# 
  1477  0F2B                     	;# 
  1478  0F2C                     	;# 
  1479  0F2D                     	;# 
  1480  0F9E                     	;# 
  1481  0FE4                     	;# 
  1482  0FE5                     	;# 
  1483  0FE6                     	;# 
  1484  0FE7                     	;# 
  1485  0FE8                     	;# 
  1486  0FE9                     	;# 
  1487  0FEA                     	;# 
  1488  0FEB                     	;# 
  1489  0FED                     	;# 
  1490  0FEE                     	;# 
  1491  0FEF                     	;# 
  1492  0000                     	;# 
  1493  0001                     	;# 
  1494  0002                     	;# 
  1495  0003                     	;# 
  1496  0004                     	;# 
  1497  0005                     	;# 
  1498  0006                     	;# 
  1499  0007                     	;# 
  1500  0008                     	;# 
  1501  0009                     	;# 
  1502  000A                     	;# 
  1503  000B                     	;# 
  1504  000C                     	;# 
  1505  000E                     	;# 
  1506  0011                     	;# 
  1507  0012                     	;# 
  1508  0013                     	;# 
  1509  0015                     	;# 
  1510  0016                     	;# 
  1511  0016                     	;# 
  1512  0017                     	;# 
  1513  0018                     	;# 
  1514  0019                     	;# 
  1515  001A                     	;# 
  1516  001B                     	;# 
  1517  001C                     	;# 
  1518  008C                     	;# 
  1519  008E                     	;# 
  1520  0091                     	;# 
  1521  0092                     	;# 
  1522  0093                     	;# 
  1523  0095                     	;# 
  1524  0096                     	;# 
  1525  0097                     	;# 
  1526  0098                     	;# 
  1527  0099                     	;# 
  1528  009A                     	;# 
  1529  009B                     	;# 
  1530  009B                     	;# 
  1531  009C                     	;# 
  1532  009D                     	;# 
  1533  009E                     	;# 
  1534  009F                     	;# 
  1535  010C                     	;# 
  1536  010E                     	;# 
  1537  0111                     	;# 
  1538  0112                     	;# 
  1539  0113                     	;# 
  1540  0114                     	;# 
  1541  0115                     	;# 
  1542  0116                     	;# 
  1543  0117                     	;# 
  1544  0118                     	;# 
  1545  0119                     	;# 
  1546  011C                     	;# 
  1547  018C                     	;# 
  1548  018E                     	;# 
  1549  0191                     	;# 
  1550  0191                     	;# 
  1551  0192                     	;# 
  1552  0193                     	;# 
  1553  0193                     	;# 
  1554  0194                     	;# 
  1555  0195                     	;# 
  1556  0196                     	;# 
  1557  0197                     	;# 
  1558  0199                     	;# 
  1559  0199                     	;# 
  1560  0199                     	;# 
  1561  019A                     	;# 
  1562  019A                     	;# 
  1563  019A                     	;# 
  1564  019B                     	;# 
  1565  019B                     	;# 
  1566  019B                     	;# 
  1567  019B                     	;# 
  1568  019B                     	;# 
  1569  019C                     	;# 
  1570  019C                     	;# 
  1571  019C                     	;# 
  1572  019D                     	;# 
  1573  019D                     	;# 
  1574  019D                     	;# 
  1575  019E                     	;# 
  1576  019E                     	;# 
  1577  019E                     	;# 
  1578  019F                     	;# 
  1579  019F                     	;# 
  1580  019F                     	;# 
  1581  019F                     	;# 
  1582  019F                     	;# 
  1583  020C                     	;# 
  1584  020E                     	;# 
  1585  0211                     	;# 
  1586  0211                     	;# 
  1587  0212                     	;# 
  1588  0212                     	;# 
  1589  0213                     	;# 
  1590  0213                     	;# 
  1591  0214                     	;# 
  1592  0214                     	;# 
  1593  0215                     	;# 
  1594  0215                     	;# 
  1595  0215                     	;# 
  1596  0215                     	;# 
  1597  0216                     	;# 
  1598  0216                     	;# 
  1599  0217                     	;# 
  1600  0217                     	;# 
  1601  028C                     	;# 
  1602  028E                     	;# 
  1603  0291                     	;# 
  1604  0291                     	;# 
  1605  0292                     	;# 
  1606  0293                     	;# 
  1607  0293                     	;# 
  1608  0298                     	;# 
  1609  0298                     	;# 
  1610  0299                     	;# 
  1611  029A                     	;# 
  1612  029A                     	;# 
  1613  029E                     	;# 
  1614  030C                     	;# 
  1615  030E                     	;# 
  1616  038C                     	;# 
  1617  038E                     	;# 
  1618  0391                     	;# 
  1619  0392                     	;# 
  1620  0393                     	;# 
  1621  0397                     	;# 
  1622  0398                     	;# 
  1623  0399                     	;# 
  1624  0415                     	;# 
  1625  0416                     	;# 
  1626  0417                     	;# 
  1627  041C                     	;# 
  1628  041D                     	;# 
  1629  041E                     	;# 
  1630  0511                     	;# 
  1631  0515                     	;# 
  1632  0617                     	;# 
  1633  0618                     	;# 
  1634  0619                     	;# 
  1635  0619                     	;# 
  1636  061A                     	;# 
  1637  061B                     	;# 
  1638  061C                     	;# 
  1639  061C                     	;# 
  1640  0691                     	;# 
  1641  0692                     	;# 
  1642  0693                     	;# 
  1643  0694                     	;# 
  1644  0695                     	;# 
  1645  0696                     	;# 
  1646  0697                     	;# 
  1647  0698                     	;# 
  1648  0699                     	;# 
  1649  069A                     	;# 
  1650  069B                     	;# 
  1651  069C                     	;# 
  1652  069D                     	;# 
  1653  069E                     	;# 
  1654  069F                     	;# 
  1655  0E0F                     	;# 
  1656  0E10                     	;# 
  1657  0E11                     	;# 
  1658  0E12                     	;# 
  1659  0E13                     	;# 
  1660  0E14                     	;# 
  1661  0E15                     	;# 
  1662  0E17                     	;# 
  1663  0E20                     	;# 
  1664  0E21                     	;# 
  1665  0E22                     	;# 
  1666  0E24                     	;# 
  1667  0E25                     	;# 
  1668  0E28                     	;# 
  1669  0E29                     	;# 
  1670  0E2A                     	;# 
  1671  0E2B                     	;# 
  1672  0E90                     	;# 
  1673  0E91                     	;# 
  1674  0E92                     	;# 
  1675  0E94                     	;# 
  1676  0E95                     	;# 
  1677  0EA0                     	;# 
  1678  0EA1                     	;# 
  1679  0EA2                     	;# 
  1680  0EA3                     	;# 
  1681  0EA4                     	;# 
  1682  0EA5                     	;# 
  1683  0F0F                     	;# 
  1684  0F10                     	;# 
  1685  0F11                     	;# 
  1686  0F12                     	;# 
  1687  0F13                     	;# 
  1688  0F14                     	;# 
  1689  0F15                     	;# 
  1690  0F16                     	;# 
  1691  0F17                     	;# 
  1692  0F18                     	;# 
  1693  0F19                     	;# 
  1694  0F1A                     	;# 
  1695  0F1B                     	;# 
  1696  0F1C                     	;# 
  1697  0F1D                     	;# 
  1698  0F1E                     	;# 
  1699  0F1F                     	;# 
  1700  0F20                     	;# 
  1701  0F21                     	;# 
  1702  0F22                     	;# 
  1703  0F23                     	;# 
  1704  0F24                     	;# 
  1705  0F25                     	;# 
  1706  0F26                     	;# 
  1707  0F27                     	;# 
  1708  0F28                     	;# 
  1709  0F29                     	;# 
  1710  0F2A                     	;# 
  1711  0F2B                     	;# 
  1712  0F2C                     	;# 
  1713  0F2D                     	;# 
  1714  0F9E                     	;# 
  1715  0FE4                     	;# 
  1716  0FE5                     	;# 
  1717  0FE6                     	;# 
  1718  0FE7                     	;# 
  1719  0FE8                     	;# 
  1720  0FE9                     	;# 
  1721  0FEA                     	;# 
  1722  0FEB                     	;# 
  1723  0FED                     	;# 
  1724  0FEE                     	;# 
  1725  0FEF                     	;# 
  1726  0000                     	;# 
  1727  0001                     	;# 
  1728  0002                     	;# 
  1729  0003                     	;# 
  1730  0004                     	;# 
  1731  0005                     	;# 
  1732  0006                     	;# 
  1733  0007                     	;# 
  1734  0008                     	;# 
  1735  0009                     	;# 
  1736  000A                     	;# 
  1737  000B                     	;# 
  1738  000C                     	;# 
  1739  000E                     	;# 
  1740  0011                     	;# 
  1741  0012                     	;# 
  1742  0013                     	;# 
  1743  0015                     	;# 
  1744  0016                     	;# 
  1745  0016                     	;# 
  1746  0017                     	;# 
  1747  0018                     	;# 
  1748  0019                     	;# 
  1749  001A                     	;# 
  1750  001B                     	;# 
  1751  001C                     	;# 
  1752  008C                     	;# 
  1753  008E                     	;# 
  1754  0091                     	;# 
  1755  0092                     	;# 
  1756  0093                     	;# 
  1757  0095                     	;# 
  1758  0096                     	;# 
  1759  0097                     	;# 
  1760  0098                     	;# 
  1761  0099                     	;# 
  1762  009A                     	;# 
  1763  009B                     	;# 
  1764  009B                     	;# 
  1765  009C                     	;# 
  1766  009D                     	;# 
  1767  009E                     	;# 
  1768  009F                     	;# 
  1769  010C                     	;# 
  1770  010E                     	;# 
  1771  0111                     	;# 
  1772  0112                     	;# 
  1773  0113                     	;# 
  1774  0114                     	;# 
  1775  0115                     	;# 
  1776  0116                     	;# 
  1777  0117                     	;# 
  1778  0118                     	;# 
  1779  0119                     	;# 
  1780  011C                     	;# 
  1781  018C                     	;# 
  1782  018E                     	;# 
  1783  0191                     	;# 
  1784  0191                     	;# 
  1785  0192                     	;# 
  1786  0193                     	;# 
  1787  0193                     	;# 
  1788  0194                     	;# 
  1789  0195                     	;# 
  1790  0196                     	;# 
  1791  0197                     	;# 
  1792  0199                     	;# 
  1793  0199                     	;# 
  1794  0199                     	;# 
  1795  019A                     	;# 
  1796  019A                     	;# 
  1797  019A                     	;# 
  1798  019B                     	;# 
  1799  019B                     	;# 
  1800  019B                     	;# 
  1801  019B                     	;# 
  1802  019B                     	;# 
  1803  019C                     	;# 
  1804  019C                     	;# 
  1805  019C                     	;# 
  1806  019D                     	;# 
  1807  019D                     	;# 
  1808  019D                     	;# 
  1809  019E                     	;# 
  1810  019E                     	;# 
  1811  019E                     	;# 
  1812  019F                     	;# 
  1813  019F                     	;# 
  1814  019F                     	;# 
  1815  019F                     	;# 
  1816  019F                     	;# 
  1817  020C                     	;# 
  1818  020E                     	;# 
  1819  0211                     	;# 
  1820  0211                     	;# 
  1821  0212                     	;# 
  1822  0212                     	;# 
  1823  0213                     	;# 
  1824  0213                     	;# 
  1825  0214                     	;# 
  1826  0214                     	;# 
  1827  0215                     	;# 
  1828  0215                     	;# 
  1829  0215                     	;# 
  1830  0215                     	;# 
  1831  0216                     	;# 
  1832  0216                     	;# 
  1833  0217                     	;# 
  1834  0217                     	;# 
  1835  028C                     	;# 
  1836  028E                     	;# 
  1837  0291                     	;# 
  1838  0291                     	;# 
  1839  0292                     	;# 
  1840  0293                     	;# 
  1841  0293                     	;# 
  1842  0298                     	;# 
  1843  0298                     	;# 
  1844  0299                     	;# 
  1845  029A                     	;# 
  1846  029A                     	;# 
  1847  029E                     	;# 
  1848  030C                     	;# 
  1849  030E                     	;# 
  1850  038C                     	;# 
  1851  038E                     	;# 
  1852  0391                     	;# 
  1853  0392                     	;# 
  1854  0393                     	;# 
  1855  0397                     	;# 
  1856  0398                     	;# 
  1857  0399                     	;# 
  1858  0415                     	;# 
  1859  0416                     	;# 
  1860  0417                     	;# 
  1861  041C                     	;# 
  1862  041D                     	;# 
  1863  041E                     	;# 
  1864  0511                     	;# 
  1865  0515                     	;# 
  1866  0617                     	;# 
  1867  0618                     	;# 
  1868  0619                     	;# 
  1869  0619                     	;# 
  1870  061A                     	;# 
  1871  061B                     	;# 
  1872  061C                     	;# 
  1873  061C                     	;# 
  1874  0691                     	;# 
  1875  0692                     	;# 
  1876  0693                     	;# 
  1877  0694                     	;# 
  1878  0695                     	;# 
  1879  0696                     	;# 
  1880  0697                     	;# 
  1881  0698                     	;# 
  1882  0699                     	;# 
  1883  069A                     	;# 
  1884  069B                     	;# 
  1885  069C                     	;# 
  1886  069D                     	;# 
  1887  069E                     	;# 
  1888  069F                     	;# 
  1889  0E0F                     	;# 
  1890  0E10                     	;# 
  1891  0E11                     	;# 
  1892  0E12                     	;# 
  1893  0E13                     	;# 
  1894  0E14                     	;# 
  1895  0E15                     	;# 
  1896  0E17                     	;# 
  1897  0E20                     	;# 
  1898  0E21                     	;# 
  1899  0E22                     	;# 
  1900  0E24                     	;# 
  1901  0E25                     	;# 
  1902  0E28                     	;# 
  1903  0E29                     	;# 
  1904  0E2A                     	;# 
  1905  0E2B                     	;# 
  1906  0E90                     	;# 
  1907  0E91                     	;# 
  1908  0E92                     	;# 
  1909  0E94                     	;# 
  1910  0E95                     	;# 
  1911  0EA0                     	;# 
  1912  0EA1                     	;# 
  1913  0EA2                     	;# 
  1914  0EA3                     	;# 
  1915  0EA4                     	;# 
  1916  0EA5                     	;# 
  1917  0F0F                     	;# 
  1918  0F10                     	;# 
  1919  0F11                     	;# 
  1920  0F12                     	;# 
  1921  0F13                     	;# 
  1922  0F14                     	;# 
  1923  0F15                     	;# 
  1924  0F16                     	;# 
  1925  0F17                     	;# 
  1926  0F18                     	;# 
  1927  0F19                     	;# 
  1928  0F1A                     	;# 
  1929  0F1B                     	;# 
  1930  0F1C                     	;# 
  1931  0F1D                     	;# 
  1932  0F1E                     	;# 
  1933  0F1F                     	;# 
  1934  0F20                     	;# 
  1935  0F21                     	;# 
  1936  0F22                     	;# 
  1937  0F23                     	;# 
  1938  0F24                     	;# 
  1939  0F25                     	;# 
  1940  0F26                     	;# 
  1941  0F27                     	;# 
  1942  0F28                     	;# 
  1943  0F29                     	;# 
  1944  0F2A                     	;# 
  1945  0F2B                     	;# 
  1946  0F2C                     	;# 
  1947  0F2D                     	;# 
  1948  0F9E                     	;# 
  1949  0FE4                     	;# 
  1950  0FE5                     	;# 
  1951  0FE6                     	;# 
  1952  0FE7                     	;# 
  1953  0FE8                     	;# 
  1954  0FE9                     	;# 
  1955  0FEA                     	;# 
  1956  0FEB                     	;# 
  1957  0FED                     	;# 
  1958  0FEE                     	;# 
  1959  0FEF                     	;# 
  1960                           
  1961                           	psect	stringtext1
  1962  1000                     __pstringtext1:
  1963  1000                     _dpowers:
  1964  1000  3401               	retlw	1
  1965  1001  3400               	retlw	0
  1966  1002  340A               	retlw	10
  1967  1003  3400               	retlw	0
  1968  1004  3464               	retlw	100
  1969  1005  3400               	retlw	0
  1970  1006  34E8               	retlw	232
  1971  1007  3403               	retlw	3
  1972  1008  3410               	retlw	16
  1973  1009  3427               	retlw	39
  1974  100A                     __end_of_dpowers:
  1975                           
  1976                           	psect	nvBANK1
  1977  00BB                     __pnvBANK1:
  1978  00BB                     _EUSART_ErrorHandler:
  1979  00BB                     	ds	2
  1980  00BD                     _EUSART_OverrunErrorHandler:
  1981  00BD                     	ds	2
  1982  00BF                     _EUSART_FramingErrorHandler:
  1983  00BF                     	ds	2
  1984  00C1                     _EUSART_RxDefaultInterruptHandler:
  1985  00C1                     	ds	2
  1986  00C3                     _EUSART_TxDefaultInterruptHandler:
  1987  00C3                     	ds	2
  1988  00C5                     _TMR2_InterruptHandler:
  1989  00C5                     	ds	2
  1990  00C7                     _eusartTxBufferRemaining:
  1991  00C7                     	ds	1
  1992  000B                     _INTCONbits	set	11
  1993  001C                     _T2CONbits	set	28
  1994  001C                     _T2CON	set	28
  1995  0011                     _PIR1bits	set	17
  1996  001A                     _TMR2	set	26
  1997  001B                     _PR2	set	27
  1998  009D                     _ADCON0bits	set	157
  1999  009D                     _ADCON0	set	157
  2000  009C                     _ADRESH	set	156
  2001  009B                     _ADRESL	set	155
  2002  009F                     _ADCON2	set	159
  2003  009E                     _ADCON1	set	158
  2004  0097                     _WDTCON	set	151
  2005  0098                     _OSCTUNE	set	152
  2006  009A                     _OSCSTAT	set	154
  2007  0099                     _OSCCON	set	153
  2008  0091                     _PIE1bits	set	145
  2009  0095                     _OPTION_REGbits	set	149
  2010  008E                     _TRISC	set	142
  2011  008C                     _TRISA	set	140
  2012  0116                     _BORCON	set	278
  2013  010E                     _LATC	set	270
  2014  010C                     _LATA	set	268
  2015  019D                     _RCSTAbits	set	413
  2016  019E                     _TXSTAbits	set	414
  2017  0199                     _RC1REG	set	409
  2018  019D                     _RC1STAbits	set	413
  2019  019A                     _TX1REG	set	410
  2020  019E                     _TX1STAbits	set	414
  2021  019C                     _SP1BRGH	set	412
  2022  019B                     _SP1BRGL	set	411
  2023  019E                     _TX1STA	set	414
  2024  019D                     _RC1STA	set	413
  2025  019F                     _BAUD1CON	set	415
  2026  018C                     _ANSELA	set	396
  2027  018E                     _ANSELC	set	398
  2028  020E                     _WPUC	set	526
  2029  020C                     _WPUA	set	524
  2030  029E                     _CCPTMRSbits	set	670
  2031  0292                     _CCPR1H	set	658
  2032  0291                     _CCPR1L	set	657
  2033  0293                     _CCP1CON	set	659
  2034  028E                     _ODCONC	set	654
  2035  028C                     _ODCONA	set	652
  2036  030E                     _SLRCONC	set	782
  2037  030C                     _SLRCONA	set	780
  2038  038E                     _INLVLC	set	910
  2039  038C                     _INLVLA	set	908
  2040  0E24                     _RXPPS	set	3620
  2041  0EA4                     _RC4PPS	set	3748
  2042  0EA1                     _RC1PPS	set	3745
  2043                           
  2044                           	psect	stringtext2
  2045  100A                     __pstringtext2:
  2046  100A                     STR_1:
  2047  100A  3425               	retlw	37	;'%'
  2048  100B  3464               	retlw	100	;'d'
  2049  100C  340D               	retlw	13
  2050  100D  340A               	retlw	10
  2051  100E  3400               	retlw	0
  2052                           
  2053                           	psect	stringtext3
  2054  0000                     __pstringtext3:
  2055                           
  2056                           	psect	cinit
  2057  003E                     start_initialization:	
  2058                           ; #config settings
  2059                           
  2060  003E                     __initialization:
  2061                           
  2062                           ; Clear objects allocated to COMMON
  2063  003E  01FC               	clrf	__pbssCOMMON& (0+127)
  2064                           
  2065                           ; Clear objects allocated to BANK0
  2066  003F  0020               	movlb	0	; select bank0
  2067  0040  01EC               	clrf	__pbssBANK0& (0+127)
  2068  0041  01ED               	clrf	(__pbssBANK0+1)& (0+127)
  2069  0042  01EE               	clrf	(__pbssBANK0+2)& (0+127)
  2070  0043  01EF               	clrf	(__pbssBANK0+3)& (0+127)
  2071                           
  2072                           ; Clear objects allocated to BANK1
  2073  0044  30A0               	movlw	low __pbssBANK1
  2074  0045  0084               	movwf	4
  2075  0046  3000               	movlw	high __pbssBANK1
  2076  0047  0085               	movwf	5
  2077  0048  301B               	movlw	27
  2078  0049  318F  2731  3180   	fcall	clear_ram0
  2079  004C                     end_of_initialization:	
  2080                           ;End of C runtime variable initialization code
  2081                           
  2082  004C                     __end_of__initialization:
  2083  004C  107E               	bcf	int$flags,0	;clear compiler interrupt flag (level 1)
  2084  004D  0020               	movlb	0
  2085  004E  3185  2DCB         	ljmp	_main	;jump to C main() function
  2086                           
  2087                           	psect	bssCOMMON
  2088  007C                     __pbssCOMMON:
  2089  007C                     _eusartRxHead:
  2090  007C                     	ds	1
  2091                           
  2092                           	psect	bssBANK0
  2093  006C                     __pbssBANK0:
  2094  006C                     _eusartRxCount:
  2095  006C                     	ds	1
  2096  006D                     _eusartRxTail:
  2097  006D                     	ds	1
  2098  006E                     _eusartTxTail:
  2099  006E                     	ds	1
  2100  006F                     _eusartTxHead:
  2101  006F                     	ds	1
  2102                           
  2103                           	psect	bssBANK1
  2104  00A0                     __pbssBANK1:
  2105  00A0                     _eusartRxStatusBuffer:
  2106  00A0                     	ds	8
  2107  00A8                     _eusartRxBuffer:
  2108  00A8                     	ds	8
  2109  00B0                     _eusartTxBuffer:
  2110  00B0                     	ds	8
  2111  00B8                     _ADC_InterruptHandler:
  2112  00B8                     	ds	2
  2113  00BA                     _eusartRxLastError:
  2114  00BA                     	ds	1
  2115                           
  2116                           	psect	clrtext
  2117  0F31                     clear_ram0:	
  2118                           ;	Called with FSR0 containing the base address, and
  2119                           ;	WREG with the size to clear
  2120                           
  2121  0F31  0064               	clrwdt	;clear the watchdog before getting into this loop
  2122  0F32                     clrloop0:
  2123  0F32  0180               	clrf	0	;clear RAM location pointed to by FSR
  2124  0F33  3101               	addfsr 0,1
  2125  0F34  0B89               	decfsz	9,f	;Have we reached the end of clearing yet?
  2126  0F35  2F32               	goto	clrloop0	;have we reached the end yet?
  2127  0F36  3400               	retlw	0	;all done for this memory range, return
  2128                           
  2129                           	psect	cstackCOMMON
  2130  0070                     __pcstackCOMMON:
  2131  0070                     ?_TMR2_DefaultInterruptHandler:
  2132  0070                     ??_TMR2_DefaultInterruptHandler:	
  2133                           ; 1 bytes @ 0x0
  2134                           
  2135  0070                     ?_TMR2_CallBack:	
  2136                           ; 1 bytes @ 0x0
  2137                           
  2138  0070                     ??_TMR2_CallBack:	
  2139                           ; 1 bytes @ 0x0
  2140                           
  2141  0070                     ?_OSCILLATOR_Initialize:	
  2142                           ; 1 bytes @ 0x0
  2143                           
  2144  0070                     ?_WDT_Initialize:	
  2145                           ; 1 bytes @ 0x0
  2146                           
  2147  0070                     ?_ADC_Initialize:	
  2148                           ; 1 bytes @ 0x0
  2149                           
  2150  0070                     ?_EUSART_Initialize:	
  2151                           ; 1 bytes @ 0x0
  2152                           
  2153  0070                     ?_EUSART_Receive_ISR:	
  2154                           ; 1 bytes @ 0x0
  2155                           
  2156  0070                     ?_EUSART_Transmit_ISR:	
  2157                           ; 1 bytes @ 0x0
  2158                           
  2159  0070                     ??_EUSART_Transmit_ISR:	
  2160                           ; 1 bytes @ 0x0
  2161                           
  2162  0070                     ?_EUSART_DefaultFramingErrorHandler:	
  2163                           ; 1 bytes @ 0x0
  2164                           
  2165  0070                     ??_EUSART_DefaultFramingErrorHandler:	
  2166                           ; 1 bytes @ 0x0
  2167                           
  2168  0070                     ?_EUSART_DefaultOverrunErrorHandler:	
  2169                           ; 1 bytes @ 0x0
  2170                           
  2171  0070                     ??_EUSART_DefaultOverrunErrorHandler:	
  2172                           ; 1 bytes @ 0x0
  2173                           
  2174  0070                     ?_EUSART_DefaultErrorHandler:	
  2175                           ; 1 bytes @ 0x0
  2176                           
  2177  0070                     ?_EUSART_RxDataHandler:	
  2178                           ; 1 bytes @ 0x0
  2179                           
  2180  0070                     ??_EUSART_RxDataHandler:	
  2181                           ; 1 bytes @ 0x0
  2182                           
  2183  0070                     ?_PIN_MANAGER_Initialize:	
  2184                           ; 1 bytes @ 0x0
  2185                           
  2186  0070                     ?_PWM1_Initialize:	
  2187                           ; 1 bytes @ 0x0
  2188                           
  2189  0070                     ?_TMR2_Initialize:	
  2190                           ; 1 bytes @ 0x0
  2191                           
  2192  0070                     ?_TMR2_ISR:	
  2193                           ; 1 bytes @ 0x0
  2194                           
  2195  0070                     ??_TMR2_ISR:	
  2196                           ; 1 bytes @ 0x0
  2197                           
  2198  0070                     ?_SYSTEM_Initialize:	
  2199                           ; 1 bytes @ 0x0
  2200                           
  2201  0070                     ?_EUSART_Write:	
  2202                           ; 1 bytes @ 0x0
  2203                           
  2204  0070                     ?_putch:	
  2205                           ; 1 bytes @ 0x0
  2206                           
  2207  0070                     ?_INTERRUPT_InterruptManager:	
  2208                           ; 1 bytes @ 0x0
  2209                           
  2210  0070                     ?_main:	
  2211                           ; 1 bytes @ 0x0
  2212                           
  2213                           
  2214                           ; 1 bytes @ 0x0
  2215  0070                     	ds	1
  2216  0071                     ?_TMR2_SetInterruptHandler:
  2217  0071                     ??_OSCILLATOR_Initialize:	
  2218                           ; 1 bytes @ 0x1
  2219                           
  2220  0071                     ??_WDT_Initialize:	
  2221                           ; 1 bytes @ 0x1
  2222                           
  2223  0071                     ??_ADC_Initialize:	
  2224                           ; 1 bytes @ 0x1
  2225                           
  2226  0071                     ?_EUSART_SetRxInterruptHandler:	
  2227                           ; 1 bytes @ 0x1
  2228                           
  2229  0071                     ??_EUSART_Receive_ISR:	
  2230                           ; 1 bytes @ 0x1
  2231                           
  2232  0071                     ?_EUSART_SetTxInterruptHandler:	
  2233                           ; 1 bytes @ 0x1
  2234                           
  2235  0071                     ?_EUSART_SetFramingErrorHandler:	
  2236                           ; 1 bytes @ 0x1
  2237                           
  2238  0071                     ?_EUSART_SetOverrunErrorHandler:	
  2239                           ; 1 bytes @ 0x1
  2240                           
  2241  0071                     ?_EUSART_SetErrorHandler:	
  2242                           ; 1 bytes @ 0x1
  2243                           
  2244  0071                     ??_EUSART_DefaultErrorHandler:	
  2245                           ; 1 bytes @ 0x1
  2246                           
  2247  0071                     ??_PIN_MANAGER_Initialize:	
  2248                           ; 1 bytes @ 0x1
  2249                           
  2250  0071                     ??_PWM1_Initialize:	
  2251                           ; 1 bytes @ 0x1
  2252                           
  2253  0071                     ??_EUSART_Write:	
  2254                           ; 1 bytes @ 0x1
  2255                           
  2256  0071                     ??_INTERRUPT_InterruptManager:	
  2257                           ; 1 bytes @ 0x1
  2258                           
  2259  0071                     ?__Umul8_16:	
  2260                           ; 1 bytes @ 0x1
  2261                           
  2262  0071                     ?_ADC_GetConversion:	
  2263                           ; 2 bytes @ 0x1
  2264                           
  2265  0071                     ?___lwdiv:	
  2266                           ; 2 bytes @ 0x1
  2267                           
  2268  0071                     ?___xxtofl:	
  2269                           ; 2 bytes @ 0x1
  2270                           
  2271  0071                     __Umul8_16@multiplicand:	
  2272                           ; 4 bytes @ 0x1
  2273                           
  2274  0071                     TMR2_SetInterruptHandler@InterruptHandler:	
  2275                           ; 1 bytes @ 0x1
  2276                           
  2277  0071                     EUSART_SetFramingErrorHandler@interruptHandler:	
  2278                           ; 2 bytes @ 0x1
  2279                           
  2280  0071                     EUSART_SetOverrunErrorHandler@interruptHandler:	
  2281                           ; 2 bytes @ 0x1
  2282                           
  2283  0071                     EUSART_SetErrorHandler@interruptHandler:	
  2284                           ; 2 bytes @ 0x1
  2285                           
  2286  0071                     EUSART_SetTxInterruptHandler@interruptHandler:	
  2287                           ; 2 bytes @ 0x1
  2288                           
  2289  0071                     EUSART_SetRxInterruptHandler@interruptHandler:	
  2290                           ; 2 bytes @ 0x1
  2291                           
  2292  0071                     ___lwdiv@divisor:	
  2293                           ; 2 bytes @ 0x1
  2294                           
  2295  0071                     ___xxtofl@val:	
  2296                           ; 2 bytes @ 0x1
  2297                           
  2298                           
  2299                           ; 4 bytes @ 0x1
  2300  0071                     	ds	1
  2301  0072                     EUSART_Write@txData:
  2302                           
  2303                           ; 1 bytes @ 0x2
  2304  0072                     	ds	1
  2305  0073                     ??_TMR2_SetInterruptHandler:
  2306  0073                     ??_EUSART_Initialize:	
  2307                           ; 1 bytes @ 0x3
  2308                           
  2309  0073                     ??_EUSART_SetRxInterruptHandler:	
  2310                           ; 1 bytes @ 0x3
  2311                           
  2312  0073                     ??_EUSART_SetTxInterruptHandler:	
  2313                           ; 1 bytes @ 0x3
  2314                           
  2315  0073                     ??_EUSART_SetFramingErrorHandler:	
  2316                           ; 1 bytes @ 0x3
  2317                           
  2318  0073                     ??_EUSART_SetOverrunErrorHandler:	
  2319                           ; 1 bytes @ 0x3
  2320                           
  2321  0073                     ??_EUSART_SetErrorHandler:	
  2322                           ; 1 bytes @ 0x3
  2323                           
  2324  0073                     ??__Umul8_16:	
  2325                           ; 1 bytes @ 0x3
  2326                           
  2327  0073                     ??_TMR2_Initialize:	
  2328                           ; 1 bytes @ 0x3
  2329                           
  2330  0073                     ??_ADC_GetConversion:	
  2331                           ; 1 bytes @ 0x3
  2332                           
  2333  0073                     ??_putch:	
  2334                           ; 1 bytes @ 0x3
  2335                           
  2336  0073                     putch@txData:	
  2337                           ; 1 bytes @ 0x3
  2338                           
  2339  0073                     ___lwdiv@dividend:	
  2340                           ; 1 bytes @ 0x3
  2341                           
  2342                           
  2343                           ; 2 bytes @ 0x3
  2344  0073                     	ds	1
  2345  0074                     ??_SYSTEM_Initialize:
  2346  0074                     ADC_GetConversion@channel:	
  2347                           ; 1 bytes @ 0x4
  2348                           
  2349                           
  2350                           ; 1 bytes @ 0x4
  2351  0074                     	ds	1
  2352  0075                     ??___lwdiv:
  2353  0075                     ??___xxtofl:	
  2354                           ; 1 bytes @ 0x5
  2355                           
  2356  0075                     __Umul8_16@product:	
  2357                           ; 1 bytes @ 0x5
  2358                           
  2359                           
  2360                           ; 2 bytes @ 0x5
  2361  0075                     	ds	1
  2362  0076                     ___lwdiv@quotient:
  2363                           
  2364                           ; 2 bytes @ 0x6
  2365  0076                     	ds	1
  2366  0077                     __Umul8_16@word_mpld:
  2367                           
  2368                           ; 2 bytes @ 0x7
  2369  0077                     	ds	1
  2370  0078                     ___lwdiv@counter:
  2371                           
  2372                           ; 1 bytes @ 0x8
  2373  0078                     	ds	1
  2374  0079                     ??___lwmod:
  2375  0079                     __Umul8_16@multiplier:	
  2376                           ; 1 bytes @ 0x9
  2377                           
  2378                           
  2379                           ; 1 bytes @ 0x9
  2380  0079                     	ds	1
  2381  007A                     ___fltol@sign1:
  2382  007A                     ___lwmod@counter:	
  2383                           ; 1 bytes @ 0xA
  2384                           
  2385                           
  2386                           ; 1 bytes @ 0xA
  2387  007A                     	ds	1
  2388  007B                     ___fltol@exp1:
  2389                           
  2390                           ; 1 bytes @ 0xB
  2391  007B                     	ds	1
  2392                           
  2393                           	psect	cstackBANK0
  2394  0020                     __pcstackBANK0:
  2395  0020                     ?___lwmod:
  2396  0020                     ___xxtofl@sign:	
  2397                           ; 2 bytes @ 0x0
  2398                           
  2399  0020                     ___lwmod@divisor:	
  2400                           ; 1 bytes @ 0x0
  2401                           
  2402                           
  2403                           ; 2 bytes @ 0x0
  2404  0020                     	ds	1
  2405  0021                     ___xxtofl@exp:
  2406                           
  2407                           ; 1 bytes @ 0x1
  2408  0021                     	ds	1
  2409  0022                     ___lwmod@dividend:
  2410  0022                     ___xxtofl@arg:	
  2411                           ; 2 bytes @ 0x2
  2412                           
  2413                           
  2414                           ; 4 bytes @ 0x2
  2415  0022                     	ds	2
  2416  0024                     ?_printf:
  2417  0024                     printf@f:	
  2418                           ; 2 bytes @ 0x4
  2419                           
  2420                           
  2421                           ; 2 bytes @ 0x4
  2422  0024                     	ds	2
  2423  0026                     ?___fldiv:
  2424  0026                     ___fldiv@a:	
  2425                           ; 4 bytes @ 0x6
  2426                           
  2427                           
  2428                           ; 4 bytes @ 0x6
  2429  0026                     	ds	2
  2430  0028                     ??_printf:
  2431                           
  2432                           ; 1 bytes @ 0x8
  2433  0028                     	ds	2
  2434  002A                     ___fldiv@b:
  2435                           
  2436                           ; 4 bytes @ 0xA
  2437  002A                     	ds	2
  2438  002C                     printf@ap:
  2439                           
  2440                           ; 1 bytes @ 0xC
  2441  002C                     	ds	1
  2442  002D                     printf@flag:
  2443                           
  2444                           ; 1 bytes @ 0xD
  2445  002D                     	ds	1
  2446  002E                     ??___fldiv:
  2447  002E                     printf@prec:	
  2448                           ; 1 bytes @ 0xE
  2449                           
  2450                           
  2451                           ; 1 bytes @ 0xE
  2452  002E                     	ds	1
  2453  002F                     printf@val:
  2454                           
  2455                           ; 2 bytes @ 0xF
  2456  002F                     	ds	2
  2457  0031                     printf@c:
  2458                           
  2459                           ; 1 bytes @ 0x11
  2460  0031                     	ds	2
  2461  0033                     ___fldiv@rem:
  2462                           
  2463                           ; 4 bytes @ 0x13
  2464  0033                     	ds	4
  2465  0037                     ___fldiv@sign:
  2466                           
  2467                           ; 1 bytes @ 0x17
  2468  0037                     	ds	1
  2469  0038                     ___fldiv@new_exp:
  2470                           
  2471                           ; 2 bytes @ 0x18
  2472  0038                     	ds	2
  2473  003A                     ___fldiv@grs:
  2474                           
  2475                           ; 4 bytes @ 0x1A
  2476  003A                     	ds	4
  2477  003E                     ___fldiv@bexp:
  2478                           
  2479                           ; 1 bytes @ 0x1E
  2480  003E                     	ds	1
  2481  003F                     ___fldiv@aexp:
  2482                           
  2483                           ; 1 bytes @ 0x1F
  2484  003F                     	ds	1
  2485  0040                     ?___flmul:
  2486  0040                     ___flmul@b:	
  2487                           ; 4 bytes @ 0x20
  2488                           
  2489                           
  2490                           ; 4 bytes @ 0x20
  2491  0040                     	ds	4
  2492  0044                     ___flmul@a:
  2493                           
  2494                           ; 4 bytes @ 0x24
  2495  0044                     	ds	4
  2496  0048                     ??___flmul:
  2497                           
  2498                           ; 1 bytes @ 0x28
  2499  0048                     	ds	5
  2500  004D                     ___flmul@sign:
  2501                           
  2502                           ; 1 bytes @ 0x2D
  2503  004D                     	ds	1
  2504  004E                     ___flmul@grs:
  2505                           
  2506                           ; 4 bytes @ 0x2E
  2507  004E                     	ds	4
  2508  0052                     ___flmul@aexp:
  2509                           
  2510                           ; 1 bytes @ 0x32
  2511  0052                     	ds	1
  2512  0053                     ___flmul@bexp:
  2513                           
  2514                           ; 1 bytes @ 0x33
  2515  0053                     	ds	1
  2516  0054                     ___flmul@prod:
  2517                           
  2518                           ; 4 bytes @ 0x34
  2519  0054                     	ds	4
  2520  0058                     ___flmul@temp:
  2521                           
  2522                           ; 2 bytes @ 0x38
  2523  0058                     	ds	2
  2524  005A                     ?___fltol:
  2525  005A                     ___fltol@f1:	
  2526                           ; 4 bytes @ 0x3A
  2527                           
  2528                           
  2529                           ; 4 bytes @ 0x3A
  2530  005A                     	ds	4
  2531  005E                     ??___fltol:
  2532                           
  2533                           ; 1 bytes @ 0x3E
  2534  005E                     	ds	5
  2535  0063                     ??_main:
  2536                           
  2537                           ; 1 bytes @ 0x43
  2538  0063                     	ds	1
  2539  0064                     main@val:
  2540                           
  2541                           ; 2 bytes @ 0x44
  2542  0064                     	ds	2
  2543  0066                     main@delay:
  2544                           
  2545                           ; 2 bytes @ 0x46
  2546  0066                     	ds	2
  2547  0068                     main@delayMax:
  2548                           
  2549                           ; 2 bytes @ 0x48
  2550  0068                     	ds	2
  2551  006A                     main@delayMin:
  2552                           
  2553                           ; 2 bytes @ 0x4A
  2554  006A                     	ds	2
  2555                           
  2556                           	psect	maintext
  2557  05CB                     __pmaintext:	
  2558 ;;
  2559 ;;Main: autosize = 0, tempsize = 1, incstack = 0, save=0
  2560 ;;
  2561 ;; *************** function _main *****************
  2562 ;; Defined at:
  2563 ;;		line 51 in file "main.c"
  2564 ;; Parameters:    Size  Location     Type
  2565 ;;		None
  2566 ;; Auto vars:     Size  Location     Type
  2567 ;;  delayMin        2   74[BANK0 ] unsigned int 
  2568 ;;  delayMax        2   72[BANK0 ] unsigned int 
  2569 ;;  delay           2   70[BANK0 ] unsigned int 
  2570 ;;  val             2   68[BANK0 ] unsigned int 
  2571 ;;  tmp             2    0        unsigned int 
  2572 ;; Return value:  Size  Location     Type
  2573 ;;                  1    wreg      void 
  2574 ;; Registers used:
  2575 ;;		wreg, fsr0l, fsr0h, fsr1l, fsr1h, status,2, status,0, pclath, cstack
  2576 ;; Tracked objects:
  2577 ;;		On entry : B1F/0
  2578 ;;		On exit  : 0/0
  2579 ;;		Unchanged: 0/0
  2580 ;; Data sizes:     COMMON   BANK0   BANK1   BANK2   BANK3   BANK4   BANK5   BANK6   BANK7   BANK8   BANK9  BANK10  BANK1
      +1  BANK12
  2581 ;;      Params:         0       0       0       0       0       0       0       0       0       0       0       0       
      +0       0
  2582 ;;      Locals:         0       8       0       0       0       0       0       0       0       0       0       0       
      +0       0
  2583 ;;      Temps:          0       1       0       0       0       0       0       0       0       0       0       0       
      +0       0
  2584 ;;      Totals:         0       9       0       0       0       0       0       0       0       0       0       0       
      +0       0
  2585 ;;Total ram usage:        9 bytes
  2586 ;; Hardware stack levels required when called:    7
  2587 ;; This function calls:
  2588 ;;		_ADC_GetConversion
  2589 ;;		_SYSTEM_Initialize
  2590 ;;		___fldiv
  2591 ;;		___flmul
  2592 ;;		___fltol
  2593 ;;		___xxtofl
  2594 ;;		_printf
  2595 ;; This function is called by:
  2596 ;;		Startup code after reset
  2597 ;; This function uses a non-reentrant model
  2598 ;;
  2599                           
  2600                           
  2601                           ;psect for function _main
  2602  05CB                     _main:
  2603  05CB                     l2551:	
  2604                           ;incstack = 0
  2605                           ; Regs used in _main: [wreg-fsr1h+status,2+status,0+pclath+cstack]
  2606                           
  2607                           
  2608                           ;main.c: 53: TXSTAbits.TXEN = 1;
  2609  05CB  0023               	movlb	3	; select bank3
  2610  05CC  169E               	bsf	30,5	;volatile
  2611                           
  2612                           ;main.c: 54: RCSTAbits.SPEN = 1;
  2613  05CD  179D               	bsf	29,7	;volatile
  2614  05CE                     l2553:
  2615                           
  2616                           ;main.c: 57: SYSTEM_Initialize();
  2617  05CE  318F  2770  3185   	fcall	_SYSTEM_Initialize
  2618  05D1                     l2555:
  2619                           
  2620                           ;main.c: 64: (INTCONbits.GIE = 1);
  2621  05D1  178B               	bsf	11,7	;volatile
  2622  05D2                     l2557:
  2623                           
  2624                           ;main.c: 67: (INTCONbits.PEIE = 1);
  2625  05D2  170B               	bsf	11,6	;volatile
  2626  05D3                     l2559:
  2627                           
  2628                           ;main.c: 75: adc_result_t val;;main.c: 76: unsigned int tmp;;main.c: 77: unsigned int de
      +                          lay;;main.c: 79: unsigned int delayMin = 50;
  2629  05D3  3032               	movlw	50
  2630  05D4  0020               	movlb	0	; select bank0
  2631  05D5  00EA               	movwf	main@delayMin
  2632  05D6  3000               	movlw	0
  2633  05D7  00EB               	movwf	main@delayMin+1
  2634  05D8                     l2561:
  2635                           
  2636                           ;main.c: 80: unsigned int delayMax = 1000;
  2637  05D8  30E8               	movlw	232
  2638  05D9  00E8               	movwf	main@delayMax
  2639  05DA  3003               	movlw	3
  2640  05DB  00E9               	movwf	main@delayMax+1
  2641  05DC                     l374:	
  2642                           ;main.c: 82: while (1)
  2643                           
  2644                           
  2645                           ;main.c: 83: {;main.c: 85: val = ADC_GetConversion(CDS_IN);
  2646  05DC  3002               	movlw	2
  2647  05DD  318F  27A0  3185   	fcall	_ADC_GetConversion
  2648  05E0  0872               	movf	?_ADC_GetConversion+1,w
  2649  05E1  0020               	movlb	0	; select bank0
  2650  05E2  00E5               	movwf	main@val+1
  2651  05E3  0871               	movf	?_ADC_GetConversion,w
  2652  05E4  00E4               	movwf	main@val
  2653                           
  2654                           ;main.c: 87: delay = (int)((double)val / 255.0 * (double)(delayMax - delayMin)) + delayM
      +                          in;
  2655  05E5  0864               	movf	main@val,w
  2656  05E6  00F1               	movwf	___xxtofl@val
  2657  05E7  0865               	movf	main@val+1,w
  2658  05E8  00F2               	movwf	___xxtofl@val+1
  2659  05E9  01F3               	clrf	___xxtofl@val+2
  2660  05EA  01F4               	clrf	___xxtofl@val+3
  2661  05EB  3000               	movlw	0
  2662  05EC  3185  251E  3185   	fcall	___xxtofl
  2663  05EF  0874               	movf	?___xxtofl+3,w
  2664  05F0  0020               	movlb	0	; select bank0
  2665  05F1  00AD               	movwf	___fldiv@b+3
  2666  05F2  0873               	movf	?___xxtofl+2,w
  2667  05F3  00AC               	movwf	___fldiv@b+2
  2668  05F4  0872               	movf	?___xxtofl+1,w
  2669  05F5  00AB               	movwf	___fldiv@b+1
  2670  05F6  0871               	movf	?___xxtofl,w
  2671  05F7  00AA               	movwf	___fldiv@b
  2672  05F8  3043               	movlw	67
  2673  05F9  00A9               	movwf	___fldiv@a+3
  2674  05FA  307F               	movlw	127
  2675  05FB  00A8               	movwf	___fldiv@a+2
  2676  05FC  3000               	movlw	0
  2677  05FD  00A7               	movwf	___fldiv@a+1
  2678  05FE  3000               	movlw	0
  2679  05FF  00A6               	movwf	___fldiv@a
  2680  0600  3182  22A7  3185   	fcall	___fldiv
  2681  0603  0020               	movlb	0	; select bank0
  2682  0604  0829               	movf	?___fldiv+3,w
  2683  0605  00C7               	movwf	___flmul@a+3
  2684  0606  0828               	movf	?___fldiv+2,w
  2685  0607  00C6               	movwf	___flmul@a+2
  2686  0608  0827               	movf	?___fldiv+1,w
  2687  0609  00C5               	movwf	___flmul@a+1
  2688  060A  0826               	movf	?___fldiv,w
  2689  060B  00C4               	movwf	___flmul@a
  2690  060C  086A               	movf	main@delayMin,w
  2691  060D  0268               	subwf	main@delayMax,w
  2692  060E  00F1               	movwf	___xxtofl@val
  2693  060F  086B               	movf	main@delayMin+1,w
  2694  0610  3B69               	subwfb	main@delayMax+1,w
  2695  0611  00F2               	movwf	___xxtofl@val+1
  2696  0612  01F3               	clrf	___xxtofl@val+2
  2697  0613  01F4               	clrf	___xxtofl@val+3
  2698  0614  3000               	movlw	0
  2699  0615  3185  251E  3185   	fcall	___xxtofl
  2700  0618  0874               	movf	?___xxtofl+3,w
  2701  0619  0020               	movlb	0	; select bank0
  2702  061A  00C3               	movwf	___flmul@b+3
  2703  061B  0873               	movf	?___xxtofl+2,w
  2704  061C  00C2               	movwf	___flmul@b+2
  2705  061D  0872               	movf	?___xxtofl+1,w
  2706  061E  00C1               	movwf	___flmul@b+1
  2707  061F  0871               	movf	?___xxtofl,w
  2708  0620  00C0               	movwf	___flmul@b
  2709  0621  3180  2050  3185   	fcall	___flmul
  2710  0624  0020               	movlb	0	; select bank0
  2711  0625  0843               	movf	?___flmul+3,w
  2712  0626  00DD               	movwf	___fltol@f1+3
  2713  0627  0842               	movf	?___flmul+2,w
  2714  0628  00DC               	movwf	___fltol@f1+2
  2715  0629  0841               	movf	?___flmul+1,w
  2716  062A  00DB               	movwf	___fltol@f1+1
  2717  062B  0840               	movf	?___flmul,w
  2718  062C  00DA               	movwf	___fltol@f1
  2719  062D  3186  264E  3185   	fcall	___fltol
  2720  0630  0020               	movlb	0	; select bank0
  2721  0631  086A               	movf	main@delayMin,w
  2722  0632  075A               	addwf	?___fltol,w
  2723  0633  00E6               	movwf	main@delay
  2724  0634  086B               	movf	main@delayMin+1,w
  2725  0635  3D5B               	addwfc	?___fltol+1,w
  2726  0636  00E7               	movwf	main@delay+1
  2727  0637                     l2563:
  2728                           
  2729                           ;main.c: 88: printf("%d\r\n", delay);
  2730  0637  300A               	movlw	low (STR_1| (0+32768))
  2731  0638  00A4               	movwf	printf@f
  2732  0639  3090               	movlw	high (STR_1| (0+32768))
  2733  063A  00A5               	movwf	printf@f+1
  2734  063B  0867               	movf	main@delay+1,w
  2735  063C  00A7               	movwf	?_printf+3
  2736  063D  0866               	movf	main@delay,w
  2737  063E  00A6               	movwf	?_printf+2
  2738  063F  3184  245B  3185   	fcall	_printf
  2739  0642                     l2565:
  2740                           
  2741                           ;main.c: 90: _delay((unsigned long)((50)*(4000000/4000.0)));
  2742  0642  3041               	movlw	65
  2743  0643  0020               	movlb	0	; select bank0
  2744  0644  00E3               	movwf	??_main
  2745  0645  30EE               	movlw	238
  2746  0646                     u2597:
  2747  0646  0B89               	decfsz	9,f
  2748  0647  2E46               	goto	u2597
  2749  0648  0BE3               	decfsz	??_main,f
  2750  0649  2E46               	goto	u2597
  2751  064A  0000               	nop
  2752  064B  2DDC               	goto	l374
  2753  064C  3180  283C         	ljmp	start
  2754  064E                     __end_of_main:
  2755                           
  2756                           	psect	text1
  2757  045B                     __ptext1:	
  2758 ;; *************** function _printf *****************
  2759 ;; Defined at:
  2760 ;;		line 477 in file "C:\Program Files\Microchip\xc8\v2.31\pic\sources\c90\common\doprnt.c"
  2761 ;; Parameters:    Size  Location     Type
  2762 ;;  f               2    4[BANK0 ] PTR const unsigned char 
  2763 ;;		 -> STR_1(5), 
  2764 ;; Auto vars:     Size  Location     Type
  2765 ;;  tmpval          4    0        struct .
  2766 ;;  val             2   15[BANK0 ] unsigned int 
  2767 ;;  cp              2    0        PTR const unsigned char 
  2768 ;;  len             2    0        unsigned int 
  2769 ;;  c               1   17[BANK0 ] unsigned char 
  2770 ;;  prec            1   14[BANK0 ] char 
  2771 ;;  flag            1   13[BANK0 ] unsigned char 
  2772 ;;  ap              1   12[BANK0 ] PTR void [1]
  2773 ;;		 -> ?_printf(2), 
  2774 ;; Return value:  Size  Location     Type
  2775 ;;                  2    4[BANK0 ] int 
  2776 ;; Registers used:
  2777 ;;		wreg, fsr0l, fsr0h, fsr1l, fsr1h, status,2, status,0, pclath, cstack
  2778 ;; Tracked objects:
  2779 ;;		On entry : 0/0
  2780 ;;		On exit  : 0/0
  2781 ;;		Unchanged: 0/0
  2782 ;; Data sizes:     COMMON   BANK0   BANK1   BANK2   BANK3   BANK4   BANK5   BANK6   BANK7   BANK8   BANK9  BANK10  BANK1
      +1  BANK12
  2783 ;;      Params:         0       4       0       0       0       0       0       0       0       0       0       0       
      +0       0
  2784 ;;      Locals:         0       6       0       0       0       0       0       0       0       0       0       0       
      +0       0
  2785 ;;      Temps:          0       4       0       0       0       0       0       0       0       0       0       0       
      +0       0
  2786 ;;      Totals:         0      14       0       0       0       0       0       0       0       0       0       0       
      +0       0
  2787 ;;Total ram usage:       14 bytes
  2788 ;; Hardware stack levels used:    1
  2789 ;; Hardware stack levels required when called:    6
  2790 ;; This function calls:
  2791 ;;		___lwdiv
  2792 ;;		___lwmod
  2793 ;;		_putch
  2794 ;; This function is called by:
  2795 ;;		_main
  2796 ;; This function uses a non-reentrant model
  2797 ;;
  2798                           
  2799                           
  2800                           ;psect for function _printf
  2801  045B                     _printf:
  2802  045B                     l2503:	
  2803                           ;incstack = 0
  2804                           ; Regs used in _printf: [wreg-fsr1h+status,2+status,0+pclath+cstack]
  2805                           
  2806                           
  2807                           ;doprnt.c: 479: va_list ap;;doprnt.c: 512: char c;;doprnt.c: 521: signed char prec;;dopr
      +                          nt.c: 525: unsigned char flag;;doprnt.c: 540: union {;doprnt.c: 541: unsigned long vd;;d
      +                          oprnt.c: 542: double integ;;doprnt.c: 543: } tmpval;;doprnt.c: 545: unsigned int val;;do
      +                          prnt.c: 546: unsigned len;;doprnt.c: 547: const char * cp;;doprnt.c: 550: *ap = __va_sta
      +                          rt();
  2808  045B  3026               	movlw	(low ((?_printf| 0+2)))& (0+255)
  2809  045C  0020               	movlb	0	; select bank0
  2810  045D  00A8               	movwf	??_printf
  2811  045E  0828               	movf	??_printf,w
  2812  045F  00AC               	movwf	printf@ap
  2813                           
  2814                           ;doprnt.c: 553: while((c = *f++)) {
  2815  0460  2D08               	goto	l2549
  2816  0461                     l2505:
  2817                           
  2818                           ;doprnt.c: 555: if(c != '%')
  2819  0461  3025               	movlw	37
  2820  0462  0631               	xorwf	printf@c,w
  2821  0463  1903               	btfsc	3,2
  2822  0464  2C66               	goto	u2521
  2823  0465  2C67               	goto	u2520
  2824  0466                     u2521:
  2825  0466  2C6C               	goto	l2509
  2826  0467                     u2520:
  2827  0467                     l2507:
  2828                           
  2829                           ;doprnt.c: 557: {;doprnt.c: 558: (putch(c) );
  2830  0467  0831               	movf	printf@c,w
  2831  0468  318F  272B  3184   	fcall	_putch
  2832                           
  2833                           ;doprnt.c: 559: continue;
  2834  046B  2D08               	goto	l2549
  2835  046C                     l2509:
  2836                           
  2837                           ;doprnt.c: 560: };doprnt.c: 565: flag = 0;
  2838  046C  01AD               	clrf	printf@flag
  2839  046D                     l2513:	
  2840                           ;doprnt.c: 661: switch(c = *f++) {
  2841                           
  2842  046D  0825               	movf	printf@f+1,w
  2843  046E  00A9               	movwf	??_printf+1
  2844  046F  0824               	movf	printf@f,w
  2845  0470  00A8               	movwf	??_printf
  2846  0471  0AA4               	incf	printf@f,f
  2847  0472  1903               	skipnz
  2848  0473  0AA5               	incf	printf@f+1,f
  2849  0474  0828               	movf	??_printf,w
  2850  0475  0084               	movwf	4
  2851  0476  0829               	movf	??_printf+1,w
  2852  0477  0085               	movwf	5
  2853  0478  0800               	movf	0,w	;code access
  2854  0479  00B1               	movwf	printf@c
  2855                           
  2856                           ; Switch size 1, requested type "simple"
  2857                           ; Number of cases is 3, Range of values is 0 to 105
  2858                           ; switch strategies available:
  2859                           ; Name         Instructions Cycles
  2860                           ; simple_byte           10     6 (average)
  2861                           ; direct_byte          218     6 (fixed)
  2862                           ; jumptable            260     6 (fixed)
  2863                           ;	Chosen strategy is simple_byte
  2864  047A  3A00               	xorlw	0	; case 0
  2865  047B  1903               	skipnz
  2866  047C  2D1D               	goto	l471
  2867  047D  3A64               	xorlw	100	; case 100
  2868  047E  1903               	skipnz
  2869  047F  2C84               	goto	l2515
  2870  0480  3A0D               	xorlw	13	; case 105
  2871  0481  1903               	skipnz
  2872  0482  2C84               	goto	l2515
  2873  0483  2D08               	goto	l2549
  2874  0484                     l2515:
  2875                           
  2876                           ;doprnt.c: 1279: {;doprnt.c: 1285: val = (unsigned int)(*(int *)__va_arg((*(int **)ap), 
      +                          (int)0));
  2877  0484  082C               	movf	printf@ap,w
  2878  0485  0086               	movwf	6
  2879  0486  0187               	clrf	7
  2880  0487  3F40               	moviw [0]fsr1
  2881  0488  00AF               	movwf	printf@val
  2882  0489  3F41               	moviw [1]fsr1
  2883  048A  00B0               	movwf	printf@val+1
  2884  048B                     l2517:
  2885  048B  3002               	movlw	2
  2886  048C  00A8               	movwf	??_printf
  2887  048D  0828               	movf	??_printf,w
  2888  048E  07AC               	addwf	printf@ap,f
  2889  048F                     l2519:
  2890                           
  2891                           ;doprnt.c: 1287: if((int)val < 0) {
  2892  048F  1FB0               	btfss	printf@val+1,7
  2893  0490  2C92               	goto	u2531
  2894  0491  2C93               	goto	u2530
  2895  0492                     u2531:
  2896  0492  2C9C               	goto	l2525
  2897  0493                     u2530:
  2898  0493                     l2521:
  2899                           
  2900                           ;doprnt.c: 1288: flag |= 0x03;
  2901  0493  3003               	movlw	3
  2902  0494  00A8               	movwf	??_printf
  2903  0495  0828               	movf	??_printf,w
  2904  0496  04AD               	iorwf	printf@flag,f
  2905  0497                     l2523:
  2906                           
  2907                           ;doprnt.c: 1289: val = -val;
  2908  0497  09AF               	comf	printf@val,f
  2909  0498  09B0               	comf	printf@val+1,f
  2910  0499  0AAF               	incf	printf@val,f
  2911  049A  1903               	skipnz
  2912  049B  0AB0               	incf	printf@val+1,f
  2913  049C                     l2525:
  2914                           
  2915                           ;doprnt.c: 1290: };doprnt.c: 1292: };doprnt.c: 1331: for(c = 1 ; c != sizeof dpowers/siz
      +                          eof dpowers[0] ; c++)
  2916  049C  01B1               	clrf	printf@c
  2917  049D  0AB1               	incf	printf@c,f
  2918  049E                     l2531:
  2919                           
  2920                           ;doprnt.c: 1332: if(val < dpowers[c])
  2921  049E  0831               	movf	printf@c,w
  2922  049F  00A8               	movwf	??_printf
  2923  04A0  01A9               	clrf	??_printf+1
  2924  04A1  35A8               	lslf	??_printf,f
  2925  04A2  0DA9               	rlf	??_printf+1,f
  2926  04A3  3000               	movlw	low (_dpowers| (0+32768))
  2927  04A4  0728               	addwf	??_printf,w
  2928  04A5  0084               	movwf	4
  2929  04A6  3090               	movlw	high (_dpowers| (0+32768))
  2930  04A7  3D29               	addwfc	??_printf+1,w
  2931  04A8  0085               	movwf	5
  2932  04A9  3F00               	moviw [0]fsr0
  2933  04AA  00AA               	movwf	??_printf+2
  2934  04AB  3F01               	moviw [1]fsr0
  2935  04AC  00AB               	movwf	??_printf+3
  2936  04AD  082B               	movf	??_printf+3,w
  2937  04AE  0230               	subwf	printf@val+1,w
  2938  04AF  1D03               	skipz
  2939  04B0  2CB3               	goto	u2545
  2940  04B1  082A               	movf	??_printf+2,w
  2941  04B2  022F               	subwf	printf@val,w
  2942  04B3                     u2545:
  2943  04B3  1803               	skipnc
  2944  04B4  2CB6               	goto	u2541
  2945  04B5  2CB7               	goto	u2540
  2946  04B6                     u2541:
  2947  04B6  2CB8               	goto	l2535
  2948  04B7                     u2540:
  2949  04B7  2CC2               	goto	l2537
  2950  04B8                     l2535:
  2951  04B8  3001               	movlw	1
  2952  04B9  00A8               	movwf	??_printf
  2953  04BA  0828               	movf	??_printf,w
  2954  04BB  07B1               	addwf	printf@c,f
  2955  04BC  3005               	movlw	5
  2956  04BD  0631               	xorwf	printf@c,w
  2957  04BE  1D03               	btfss	3,2
  2958  04BF  2CC1               	goto	u2551
  2959  04C0  2CC2               	goto	u2550
  2960  04C1                     u2551:
  2961  04C1  2C9E               	goto	l2531
  2962  04C2                     u2550:
  2963  04C2                     l2537:
  2964                           
  2965                           ;doprnt.c: 1448: {;doprnt.c: 1464: if(flag & 0x03)
  2966  04C2  082D               	movf	printf@flag,w
  2967  04C3  3903               	andlw	3
  2968  04C4  1903               	btfsc	3,2
  2969  04C5  2CC7               	goto	u2561
  2970  04C6  2CC8               	goto	u2560
  2971  04C7                     u2561:
  2972  04C7  2CCC               	goto	l2541
  2973  04C8                     u2560:
  2974  04C8                     l2539:
  2975                           
  2976                           ;doprnt.c: 1465: (putch('-') );
  2977  04C8  302D               	movlw	45
  2978  04C9  318F  272B  3184   	fcall	_putch
  2979  04CC                     l2541:
  2980                           
  2981                           ;doprnt.c: 1495: };doprnt.c: 1498: prec = c;
  2982  04CC  0020               	movlb	0	; select bank0
  2983  04CD  0831               	movf	printf@c,w
  2984  04CE  00A8               	movwf	??_printf
  2985  04CF  0828               	movf	??_printf,w
  2986  04D0  00AE               	movwf	printf@prec
  2987                           
  2988                           ;doprnt.c: 1500: while(prec--) {
  2989  04D1  2CFE               	goto	l2547
  2990  04D2                     l2543:
  2991                           
  2992                           ;doprnt.c: 1504: {;doprnt.c: 1515: c = (val / dpowers[(unsigned char)prec]) % 10 + '0';
  2993  04D2  300A               	movlw	10
  2994  04D3  00A0               	movwf	___lwmod@divisor
  2995  04D4  3000               	movlw	0
  2996  04D5  00A1               	movwf	___lwmod@divisor+1
  2997  04D6  082E               	movf	printf@prec,w
  2998  04D7  00A8               	movwf	??_printf
  2999  04D8  01A9               	clrf	??_printf+1
  3000  04D9  35A8               	lslf	??_printf,f
  3001  04DA  0DA9               	rlf	??_printf+1,f
  3002  04DB  3000               	movlw	low (_dpowers| (0+32768))
  3003  04DC  0728               	addwf	??_printf,w
  3004  04DD  0084               	movwf	4
  3005  04DE  3090               	movlw	high (_dpowers| (0+32768))
  3006  04DF  3D29               	addwfc	??_printf+1,w
  3007  04E0  0085               	movwf	5
  3008  04E1  3F00               	moviw [0]fsr0
  3009  04E2  00F1               	movwf	___lwdiv@divisor
  3010  04E3  3F01               	moviw [1]fsr0
  3011  04E4  00F2               	movwf	___lwdiv@divisor+1
  3012  04E5  0830               	movf	printf@val+1,w
  3013  04E6  00F4               	movwf	___lwdiv@dividend+1
  3014  04E7  082F               	movf	printf@val,w
  3015  04E8  00F3               	movwf	___lwdiv@dividend
  3016  04E9  3187  2705  3184   	fcall	___lwdiv
  3017  04EC  0872               	movf	?___lwdiv+1,w
  3018  04ED  0020               	movlb	0	; select bank0
  3019  04EE  00A3               	movwf	___lwmod@dividend+1
  3020  04EF  0871               	movf	?___lwdiv,w
  3021  04F0  00A2               	movwf	___lwmod@dividend
  3022  04F1  3187  277A  3184   	fcall	___lwmod
  3023  04F4  0020               	movlb	0	; select bank0
  3024  04F5  0820               	movf	?___lwmod,w
  3025  04F6  3E30               	addlw	48
  3026  04F7  00AA               	movwf	??_printf+2
  3027  04F8  082A               	movf	??_printf+2,w
  3028  04F9  00B1               	movwf	printf@c
  3029  04FA                     l2545:
  3030                           
  3031                           ;doprnt.c: 1549: };doprnt.c: 1550: (putch(c) );
  3032  04FA  0831               	movf	printf@c,w
  3033  04FB  318F  272B  3184   	fcall	_putch
  3034  04FE                     l2547:
  3035  04FE  30FF               	movlw	255
  3036  04FF  0020               	movlb	0	; select bank0
  3037  0500  00A8               	movwf	??_printf
  3038  0501  0828               	movf	??_printf,w
  3039  0502  07AE               	addwf	printf@prec,f
  3040  0503  0A2E               	incf	printf@prec,w
  3041  0504  1D03               	btfss	3,2
  3042  0505  2D07               	goto	u2571
  3043  0506  2D08               	goto	u2570
  3044  0507                     u2571:
  3045  0507  2CD2               	goto	l2543
  3046  0508                     u2570:
  3047  0508                     l2549:
  3048  0508  0020               	movlb	0	; select bank0
  3049  0509  0825               	movf	printf@f+1,w
  3050  050A  00A9               	movwf	??_printf+1
  3051  050B  0824               	movf	printf@f,w
  3052  050C  00A8               	movwf	??_printf
  3053  050D  0AA4               	incf	printf@f,f
  3054  050E  1903               	skipnz
  3055  050F  0AA5               	incf	printf@f+1,f
  3056  0510  0828               	movf	??_printf,w
  3057  0511  0084               	movwf	4
  3058  0512  0829               	movf	??_printf+1,w
  3059  0513  0085               	movwf	5
  3060  0514  0800               	movf	0,w	;code access
  3061  0515  00AA               	movwf	??_printf+2
  3062  0516  082A               	movf	??_printf+2,w
  3063  0517  00B1               	movwf	printf@c
  3064  0518  0831               	movf	printf@c,w
  3065  0519  1D03               	btfss	3,2
  3066  051A  2D1C               	goto	u2581
  3067  051B  2D1D               	goto	u2580
  3068  051C                     u2581:
  3069  051C  2C61               	goto	l2505
  3070  051D                     u2580:
  3071  051D                     l471:
  3072  051D  0008               	return
  3073  051E                     __end_of_printf:
  3074                           
  3075                           	psect	text2
  3076  0F2B                     __ptext2:	
  3077 ;; *************** function _putch *****************
  3078 ;; Defined at:
  3079 ;;		line 201 in file "mcc_generated_files/eusart.c"
  3080 ;; Parameters:    Size  Location     Type
  3081 ;;  txData          1    wreg     unsigned char 
  3082 ;; Auto vars:     Size  Location     Type
  3083 ;;  txData          1    3[COMMON] unsigned char 
  3084 ;; Return value:  Size  Location     Type
  3085 ;;                  1    wreg      void 
  3086 ;; Registers used:
  3087 ;;		wreg, fsr1l, fsr1h, status,2, status,0, pclath, cstack
  3088 ;; Tracked objects:
  3089 ;;		On entry : 0/0
  3090 ;;		On exit  : 0/0
  3091 ;;		Unchanged: 0/0
  3092 ;; Data sizes:     COMMON   BANK0   BANK1   BANK2   BANK3   BANK4   BANK5   BANK6   BANK7   BANK8   BANK9  BANK10  BANK1
      +1  BANK12
  3093 ;;      Params:         0       0       0       0       0       0       0       0       0       0       0       0       
      +0       0
  3094 ;;      Locals:         1       0       0       0       0       0       0       0       0       0       0       0       
      +0       0
  3095 ;;      Temps:          0       0       0       0       0       0       0       0       0       0       0       0       
      +0       0
  3096 ;;      Totals:         1       0       0       0       0       0       0       0       0       0       0       0       
      +0       0
  3097 ;;Total ram usage:        1 bytes
  3098 ;; Hardware stack levels used:    1
  3099 ;; Hardware stack levels required when called:    5
  3100 ;; This function calls:
  3101 ;;		_EUSART_Write
  3102 ;; This function is called by:
  3103 ;;		_printf
  3104 ;; This function uses a non-reentrant model
  3105 ;;
  3106                           
  3107                           
  3108                           ;psect for function _putch
  3109  0F2B                     _putch:
  3110                           
  3111                           ;incstack = 0
  3112                           ; Regs used in _putch: [wreg+fsr1l+fsr1h+status,2+status,0+pclath+cstack]
  3113                           ;putch@txData stored from wreg
  3114  0F2B  00F3               	movwf	putch@txData
  3115  0F2C                     l1897:
  3116                           
  3117                           ;eusart.c: 203: EUSART_Write(txData);
  3118  0F2C  0873               	movf	putch@txData,w
  3119  0F2D  3187  27AF  318F   	fcall	_EUSART_Write
  3120  0F30                     l289:
  3121  0F30  0008               	return
  3122  0F31                     __end_of_putch:
  3123                           
  3124                           	psect	text3
  3125  07AF                     __ptext3:	
  3126 ;; *************** function _EUSART_Write *****************
  3127 ;; Defined at:
  3128 ;;		line 173 in file "mcc_generated_files/eusart.c"
  3129 ;; Parameters:    Size  Location     Type
  3130 ;;  txData          1    wreg     unsigned char 
  3131 ;; Auto vars:     Size  Location     Type
  3132 ;;  txData          1    2[COMMON] unsigned char 
  3133 ;; Return value:  Size  Location     Type
  3134 ;;                  1    wreg      void 
  3135 ;; Registers used:
  3136 ;;		wreg, fsr1l, fsr1h, status,2, status,0
  3137 ;; Tracked objects:
  3138 ;;		On entry : 0/0
  3139 ;;		On exit  : 0/0
  3140 ;;		Unchanged: 0/0
  3141 ;; Data sizes:     COMMON   BANK0   BANK1   BANK2   BANK3   BANK4   BANK5   BANK6   BANK7   BANK8   BANK9  BANK10  BANK1
      +1  BANK12
  3142 ;;      Params:         0       0       0       0       0       0       0       0       0       0       0       0       
      +0       0
  3143 ;;      Locals:         1       0       0       0       0       0       0       0       0       0       0       0       
      +0       0
  3144 ;;      Temps:          1       0       0       0       0       0       0       0       0       0       0       0       
      +0       0
  3145 ;;      Totals:         2       0       0       0       0       0       0       0       0       0       0       0       
      +0       0
  3146 ;;Total ram usage:        2 bytes
  3147 ;; Hardware stack levels used:    1
  3148 ;; Hardware stack levels required when called:    4
  3149 ;; This function calls:
  3150 ;;		Nothing
  3151 ;; This function is called by:
  3152 ;;		_putch
  3153 ;; This function uses a non-reentrant model
  3154 ;;
  3155                           
  3156                           
  3157                           ;psect for function _EUSART_Write
  3158  07AF                     _EUSART_Write:
  3159                           
  3160                           ;incstack = 0
  3161                           ; Regs used in _EUSART_Write: [wreg+fsr1l+fsr1h+status,2+status,0]
  3162                           ;EUSART_Write@txData stored from wreg
  3163  07AF  00F2               	movwf	EUSART_Write@txData
  3164  07B0                     l1763:
  3165  07B0                     l1765:	
  3166                           ;eusart.c: 175: while(0 == eusartTxBufferRemaining)
  3167                           
  3168  07B0  0021               	movlb	1	; select bank1
  3169  07B1  0847               	movf	_eusartTxBufferRemaining^(0+128),w	;volatile
  3170  07B2  1903               	btfsc	3,2
  3171  07B3  2FB5               	goto	u1241
  3172  07B4  2FB6               	goto	u1240
  3173  07B5                     u1241:
  3174  07B5  2FB0               	goto	l1765
  3175  07B6                     u1240:
  3176  07B6                     l279:
  3177                           
  3178                           ;eusart.c: 177: };eusart.c: 179: if(0 == PIE1bits.TXIE)
  3179  07B6  1A11               	btfsc	17,4	;volatile
  3180  07B7  2FB9               	goto	u1251
  3181  07B8  2FBA               	goto	u1250
  3182  07B9                     u1251:
  3183  07B9  2FBE               	goto	l280
  3184  07BA                     u1250:
  3185  07BA                     l1767:
  3186                           
  3187                           ;eusart.c: 180: {;eusart.c: 181: TX1REG = txData;
  3188  07BA  0872               	movf	EUSART_Write@txData,w
  3189  07BB  0023               	movlb	3	; select bank3
  3190  07BC  009A               	movwf	26	;volatile
  3191                           
  3192                           ;eusart.c: 182: }
  3193  07BD  2FD6               	goto	l1779
  3194  07BE                     l280:
  3195                           
  3196                           ;eusart.c: 183: else;eusart.c: 184: {;eusart.c: 185: PIE1bits.TXIE = 0;
  3197  07BE  1211               	bcf	17,4	;volatile
  3198  07BF                     l1769:
  3199                           
  3200                           ;eusart.c: 186: eusartTxBuffer[eusartTxHead++] = txData;
  3201  07BF  0872               	movf	EUSART_Write@txData,w
  3202  07C0  00F1               	movwf	??_EUSART_Write
  3203  07C1  0020               	movlb	0	; select bank0
  3204  07C2  086F               	movf	_eusartTxHead,w
  3205  07C3  3EB0               	addlw	(low (_eusartTxBuffer| 0))& (0+255)
  3206  07C4  0086               	movwf	6
  3207  07C5  0187               	clrf	7
  3208  07C6  0871               	movf	??_EUSART_Write,w
  3209  07C7  0081               	movwf	1
  3210  07C8                     l1771:
  3211  07C8  3001               	movlw	1
  3212  07C9  00F1               	movwf	??_EUSART_Write
  3213  07CA  0871               	movf	??_EUSART_Write,w
  3214  07CB  07EF               	addwf	_eusartTxHead,f	;volatile
  3215  07CC                     l1773:
  3216                           
  3217                           ;eusart.c: 187: if(sizeof(eusartTxBuffer) <= eusartTxHead)
  3218  07CC  3008               	movlw	8
  3219  07CD  026F               	subwf	_eusartTxHead,w	;volatile
  3220  07CE  1C03               	skipc
  3221  07CF  2FD1               	goto	u1261
  3222  07D0  2FD2               	goto	u1260
  3223  07D1                     u1261:
  3224  07D1  2FD3               	goto	l1777
  3225  07D2                     u1260:
  3226  07D2                     l1775:
  3227                           
  3228                           ;eusart.c: 188: {;eusart.c: 189: eusartTxHead = 0;
  3229  07D2  01EF               	clrf	_eusartTxHead	;volatile
  3230  07D3                     l1777:
  3231                           
  3232                           ;eusart.c: 190: };eusart.c: 191: eusartTxBufferRemaining--;
  3233  07D3  3001               	movlw	1
  3234  07D4  0021               	movlb	1	; select bank1
  3235  07D5  02C7               	subwf	_eusartTxBufferRemaining^(0+128),f	;volatile
  3236  07D6                     l1779:
  3237                           
  3238                           ;eusart.c: 192: };eusart.c: 193: PIE1bits.TXIE = 1;
  3239  07D6  0021               	movlb	1	; select bank1
  3240  07D7  1611               	bsf	17,4	;volatile
  3241  07D8                     l283:
  3242  07D8  0008               	return
  3243  07D9                     __end_of_EUSART_Write:
  3244                           
  3245                           	psect	text4
  3246  077A                     __ptext4:	
  3247 ;; *************** function ___lwmod *****************
  3248 ;; Defined at:
  3249 ;;		line 5 in file "C:\Program Files\Microchip\xc8\v2.31\pic\sources\c90\common\lwmod.c"
  3250 ;; Parameters:    Size  Location     Type
  3251 ;;  divisor         2    0[BANK0 ] unsigned int 
  3252 ;;  dividend        2    2[BANK0 ] unsigned int 
  3253 ;; Auto vars:     Size  Location     Type
  3254 ;;  counter         1   10[COMMON] unsigned char 
  3255 ;; Return value:  Size  Location     Type
  3256 ;;                  2    0[BANK0 ] unsigned int 
  3257 ;; Registers used:
  3258 ;;		wreg, status,2, status,0
  3259 ;; Tracked objects:
  3260 ;;		On entry : 0/0
  3261 ;;		On exit  : 0/0
  3262 ;;		Unchanged: 0/0
  3263 ;; Data sizes:     COMMON   BANK0   BANK1   BANK2   BANK3   BANK4   BANK5   BANK6   BANK7   BANK8   BANK9  BANK10  BANK1
      +1  BANK12
  3264 ;;      Params:         0       4       0       0       0       0       0       0       0       0       0       0       
      +0       0
  3265 ;;      Locals:         1       0       0       0       0       0       0       0       0       0       0       0       
      +0       0
  3266 ;;      Temps:          1       0       0       0       0       0       0       0       0       0       0       0       
      +0       0
  3267 ;;      Totals:         2       4       0       0       0       0       0       0       0       0       0       0       
      +0       0
  3268 ;;Total ram usage:        6 bytes
  3269 ;; Hardware stack levels used:    1
  3270 ;; Hardware stack levels required when called:    4
  3271 ;; This function calls:
  3272 ;;		Nothing
  3273 ;; This function is called by:
  3274 ;;		_printf
  3275 ;; This function uses a non-reentrant model
  3276 ;;
  3277                           
  3278                           
  3279                           ;psect for function ___lwmod
  3280  077A                     ___lwmod:
  3281  077A                     l2481:	
  3282                           ;incstack = 0
  3283                           ; Regs used in ___lwmod: [wreg+status,2+status,0]
  3284                           
  3285  077A  0020               	movlb	0	; select bank0
  3286  077B  0820               	movf	___lwmod@divisor,w
  3287  077C  0421               	iorwf	___lwmod@divisor+1,w
  3288  077D  1903               	btfsc	3,2
  3289  077E  2F80               	goto	u2461
  3290  077F  2F81               	goto	u2460
  3291  0780                     u2461:
  3292  0780  2FAA               	goto	l2499
  3293  0781                     u2460:
  3294  0781                     l2483:
  3295  0781  01FA               	clrf	___lwmod@counter
  3296  0782  0AFA               	incf	___lwmod@counter,f
  3297  0783  2F8D               	goto	l2489
  3298  0784                     l2485:
  3299  0784  3001               	movlw	1
  3300  0785                     u2475:
  3301  0785  35A0               	lslf	___lwmod@divisor,f
  3302  0786  0DA1               	rlf	___lwmod@divisor+1,f
  3303  0787  0B89               	decfsz	9,f
  3304  0788  2F85               	goto	u2475
  3305  0789                     l2487:
  3306  0789  3001               	movlw	1
  3307  078A  00F9               	movwf	??___lwmod
  3308  078B  0879               	movf	??___lwmod,w
  3309  078C  07FA               	addwf	___lwmod@counter,f
  3310  078D                     l2489:
  3311  078D  1FA1               	btfss	___lwmod@divisor+1,7
  3312  078E  2F90               	goto	u2481
  3313  078F  2F91               	goto	u2480
  3314  0790                     u2481:
  3315  0790  2F84               	goto	l2485
  3316  0791                     u2480:
  3317  0791                     l2491:
  3318  0791  0821               	movf	___lwmod@divisor+1,w
  3319  0792  0223               	subwf	___lwmod@dividend+1,w
  3320  0793  1D03               	skipz
  3321  0794  2F97               	goto	u2495
  3322  0795  0820               	movf	___lwmod@divisor,w
  3323  0796  0222               	subwf	___lwmod@dividend,w
  3324  0797                     u2495:
  3325  0797  1C03               	skipc
  3326  0798  2F9A               	goto	u2491
  3327  0799  2F9B               	goto	u2490
  3328  079A                     u2491:
  3329  079A  2F9F               	goto	l2495
  3330  079B                     u2490:
  3331  079B                     l2493:
  3332  079B  0820               	movf	___lwmod@divisor,w
  3333  079C  02A2               	subwf	___lwmod@dividend,f
  3334  079D  0821               	movf	___lwmod@divisor+1,w
  3335  079E  3BA3               	subwfb	___lwmod@dividend+1,f
  3336  079F                     l2495:
  3337  079F  3001               	movlw	1
  3338  07A0                     u2505:
  3339  07A0  36A1               	lsrf	___lwmod@divisor+1,f
  3340  07A1  0CA0               	rrf	___lwmod@divisor,f
  3341  07A2  0B89               	decfsz	9,f
  3342  07A3  2FA0               	goto	u2505
  3343  07A4                     l2497:
  3344  07A4  3001               	movlw	1
  3345  07A5  02FA               	subwf	___lwmod@counter,f
  3346  07A6  1D03               	btfss	3,2
  3347  07A7  2FA9               	goto	u2511
  3348  07A8  2FAA               	goto	u2510
  3349  07A9                     u2511:
  3350  07A9  2F91               	goto	l2491
  3351  07AA                     u2510:
  3352  07AA                     l2499:
  3353  07AA  0823               	movf	___lwmod@dividend+1,w
  3354  07AB  00A1               	movwf	?___lwmod+1
  3355  07AC  0822               	movf	___lwmod@dividend,w
  3356  07AD  00A0               	movwf	?___lwmod
  3357  07AE                     l757:
  3358  07AE  0008               	return
  3359  07AF                     __end_of___lwmod:
  3360                           
  3361                           	psect	text5
  3362  0705                     __ptext5:	
  3363 ;; *************** function ___lwdiv *****************
  3364 ;; Defined at:
  3365 ;;		line 5 in file "C:\Program Files\Microchip\xc8\v2.31\pic\sources\c90\common\lwdiv.c"
  3366 ;; Parameters:    Size  Location     Type
  3367 ;;  divisor         2    1[COMMON] unsigned int 
  3368 ;;  dividend        2    3[COMMON] unsigned int 
  3369 ;; Auto vars:     Size  Location     Type
  3370 ;;  quotient        2    6[COMMON] unsigned int 
  3371 ;;  counter         1    8[COMMON] unsigned char 
  3372 ;; Return value:  Size  Location     Type
  3373 ;;                  2    1[COMMON] unsigned int 
  3374 ;; Registers used:
  3375 ;;		wreg, status,2, status,0
  3376 ;; Tracked objects:
  3377 ;;		On entry : 0/0
  3378 ;;		On exit  : 0/0
  3379 ;;		Unchanged: 0/0
  3380 ;; Data sizes:     COMMON   BANK0   BANK1   BANK2   BANK3   BANK4   BANK5   BANK6   BANK7   BANK8   BANK9  BANK10  BANK1
      +1  BANK12
  3381 ;;      Params:         4       0       0       0       0       0       0       0       0       0       0       0       
      +0       0
  3382 ;;      Locals:         3       0       0       0       0       0       0       0       0       0       0       0       
      +0       0
  3383 ;;      Temps:          1       0       0       0       0       0       0       0       0       0       0       0       
      +0       0
  3384 ;;      Totals:         8       0       0       0       0       0       0       0       0       0       0       0       
      +0       0
  3385 ;;Total ram usage:        8 bytes
  3386 ;; Hardware stack levels used:    1
  3387 ;; Hardware stack levels required when called:    4
  3388 ;; This function calls:
  3389 ;;		Nothing
  3390 ;; This function is called by:
  3391 ;;		_printf
  3392 ;; This function uses a non-reentrant model
  3393 ;;
  3394                           
  3395                           
  3396                           ;psect for function ___lwdiv
  3397  0705                     ___lwdiv:
  3398  0705                     l1903:	
  3399                           ;incstack = 0
  3400                           ; Regs used in ___lwdiv: [wreg+status,2+status,0]
  3401                           
  3402  0705  01F6               	clrf	___lwdiv@quotient
  3403  0706  01F7               	clrf	___lwdiv@quotient+1
  3404  0707                     l1905:
  3405  0707  0871               	movf	___lwdiv@divisor,w
  3406  0708  0472               	iorwf	___lwdiv@divisor+1,w
  3407  0709  1903               	btfsc	3,2
  3408  070A  2F0C               	goto	u1291
  3409  070B  2F0D               	goto	u1290
  3410  070C                     u1291:
  3411  070C  2F3C               	goto	l1925
  3412  070D                     u1290:
  3413  070D                     l1907:
  3414  070D  01F8               	clrf	___lwdiv@counter
  3415  070E  0AF8               	incf	___lwdiv@counter,f
  3416  070F  2F19               	goto	l1913
  3417  0710                     l1909:
  3418  0710  3001               	movlw	1
  3419  0711                     u1305:
  3420  0711  35F1               	lslf	___lwdiv@divisor,f
  3421  0712  0DF2               	rlf	___lwdiv@divisor+1,f
  3422  0713  0B89               	decfsz	9,f
  3423  0714  2F11               	goto	u1305
  3424  0715                     l1911:
  3425  0715  3001               	movlw	1
  3426  0716  00F5               	movwf	??___lwdiv
  3427  0717  0875               	movf	??___lwdiv,w
  3428  0718  07F8               	addwf	___lwdiv@counter,f
  3429  0719                     l1913:
  3430  0719  1FF2               	btfss	___lwdiv@divisor+1,7
  3431  071A  2F1C               	goto	u1311
  3432  071B  2F1D               	goto	u1310
  3433  071C                     u1311:
  3434  071C  2F10               	goto	l1909
  3435  071D                     u1310:
  3436  071D                     l1915:
  3437  071D  3001               	movlw	1
  3438  071E                     u1325:
  3439  071E  35F6               	lslf	___lwdiv@quotient,f
  3440  071F  0DF7               	rlf	___lwdiv@quotient+1,f
  3441  0720  0B89               	decfsz	9,f
  3442  0721  2F1E               	goto	u1325
  3443  0722  0872               	movf	___lwdiv@divisor+1,w
  3444  0723  0274               	subwf	___lwdiv@dividend+1,w
  3445  0724  1D03               	skipz
  3446  0725  2F28               	goto	u1335
  3447  0726  0871               	movf	___lwdiv@divisor,w
  3448  0727  0273               	subwf	___lwdiv@dividend,w
  3449  0728                     u1335:
  3450  0728  1C03               	skipc
  3451  0729  2F2B               	goto	u1331
  3452  072A  2F2C               	goto	u1330
  3453  072B                     u1331:
  3454  072B  2F31               	goto	l1921
  3455  072C                     u1330:
  3456  072C                     l1917:
  3457  072C  0871               	movf	___lwdiv@divisor,w
  3458  072D  02F3               	subwf	___lwdiv@dividend,f
  3459  072E  0872               	movf	___lwdiv@divisor+1,w
  3460  072F  3BF4               	subwfb	___lwdiv@dividend+1,f
  3461  0730                     l1919:
  3462  0730  1476               	bsf	___lwdiv@quotient,0
  3463  0731                     l1921:
  3464  0731  3001               	movlw	1
  3465  0732                     u1345:
  3466  0732  36F2               	lsrf	___lwdiv@divisor+1,f
  3467  0733  0CF1               	rrf	___lwdiv@divisor,f
  3468  0734  0B89               	decfsz	9,f
  3469  0735  2F32               	goto	u1345
  3470  0736                     l1923:
  3471  0736  3001               	movlw	1
  3472  0737  02F8               	subwf	___lwdiv@counter,f
  3473  0738  1D03               	btfss	3,2
  3474  0739  2F3B               	goto	u1351
  3475  073A  2F3C               	goto	u1350
  3476  073B                     u1351:
  3477  073B  2F1D               	goto	l1915
  3478  073C                     u1350:
  3479  073C                     l1925:
  3480  073C  0877               	movf	___lwdiv@quotient+1,w
  3481  073D  00F2               	movwf	?___lwdiv+1
  3482  073E  0876               	movf	___lwdiv@quotient,w
  3483  073F  00F1               	movwf	?___lwdiv
  3484  0740                     l747:
  3485  0740  0008               	return
  3486  0741                     __end_of___lwdiv:
  3487                           
  3488                           	psect	text6
  3489  051E                     __ptext6:	
  3490 ;; *************** function ___xxtofl *****************
  3491 ;; Defined at:
  3492 ;;		line 10 in file "C:\Program Files\Microchip\xc8\v2.31\pic\sources\c90\common\xxtofl.c"
  3493 ;; Parameters:    Size  Location     Type
  3494 ;;  sign            1    wreg     unsigned char 
  3495 ;;  val             4    1[COMMON] long 
  3496 ;; Auto vars:     Size  Location     Type
  3497 ;;  sign            1    0[BANK0 ] unsigned char 
  3498 ;;  arg             4    2[BANK0 ] unsigned long 
  3499 ;;  exp             1    1[BANK0 ] unsigned char 
  3500 ;; Return value:  Size  Location     Type
  3501 ;;                  4    1[COMMON] unsigned char 
  3502 ;; Registers used:
  3503 ;;		wreg, status,2, status,0
  3504 ;; Tracked objects:
  3505 ;;		On entry : 0/0
  3506 ;;		On exit  : 0/0
  3507 ;;		Unchanged: 0/0
  3508 ;; Data sizes:     COMMON   BANK0   BANK1   BANK2   BANK3   BANK4   BANK5   BANK6   BANK7   BANK8   BANK9  BANK10  BANK1
      +1  BANK12
  3509 ;;      Params:         4       0       0       0       0       0       0       0       0       0       0       0       
      +0       0
  3510 ;;      Locals:         0       6       0       0       0       0       0       0       0       0       0       0       
      +0       0
  3511 ;;      Temps:          4       0       0       0       0       0       0       0       0       0       0       0       
      +0       0
  3512 ;;      Totals:         8       6       0       0       0       0       0       0       0       0       0       0       
      +0       0
  3513 ;;Total ram usage:       14 bytes
  3514 ;; Hardware stack levels used:    1
  3515 ;; Hardware stack levels required when called:    4
  3516 ;; This function calls:
  3517 ;;		Nothing
  3518 ;; This function is called by:
  3519 ;;		_main
  3520 ;; This function uses a non-reentrant model
  3521 ;;
  3522                           
  3523                           
  3524                           ;psect for function ___xxtofl
  3525  051E                     ___xxtofl:
  3526                           
  3527                           ;incstack = 0
  3528                           ; Regs used in ___xxtofl: [wreg+status,2+status,0]
  3529                           ;___xxtofl@sign stored from wreg
  3530  051E  0020               	movlb	0	; select bank0
  3531  051F  00A0               	movwf	___xxtofl@sign
  3532  0520                     l2401:
  3533  0520  0820               	movf	___xxtofl@sign,w
  3534  0521  1903               	btfsc	3,2
  3535  0522  2D24               	goto	u2251
  3536  0523  2D25               	goto	u2250
  3537  0524                     u2251:
  3538  0524  2D39               	goto	l2407
  3539  0525                     u2250:
  3540  0525                     l2403:
  3541  0525  1FF4               	btfss	___xxtofl@val+3,7
  3542  0526  2D28               	goto	u2261
  3543  0527  2D29               	goto	u2260
  3544  0528                     u2261:
  3545  0528  2D39               	goto	l2407
  3546  0529                     u2260:
  3547  0529                     l2405:
  3548  0529  0971               	comf	___xxtofl@val,w
  3549  052A  00A2               	movwf	___xxtofl@arg
  3550  052B  0972               	comf	___xxtofl@val+1,w
  3551  052C  00A3               	movwf	___xxtofl@arg+1
  3552  052D  0973               	comf	___xxtofl@val+2,w
  3553  052E  00A4               	movwf	___xxtofl@arg+2
  3554  052F  0974               	comf	___xxtofl@val+3,w
  3555  0530  00A5               	movwf	___xxtofl@arg+3
  3556  0531  0AA2               	incf	___xxtofl@arg,f
  3557  0532  1903               	skipnz
  3558  0533  0AA3               	incf	___xxtofl@arg+1,f
  3559  0534  1903               	skipnz
  3560  0535  0AA4               	incf	___xxtofl@arg+2,f
  3561  0536  1903               	skipnz
  3562  0537  0AA5               	incf	___xxtofl@arg+3,f
  3563  0538  2D41               	goto	l908
  3564  0539                     l2407:
  3565  0539  0874               	movf	___xxtofl@val+3,w
  3566  053A  00A5               	movwf	___xxtofl@arg+3
  3567  053B  0873               	movf	___xxtofl@val+2,w
  3568  053C  00A4               	movwf	___xxtofl@arg+2
  3569  053D  0872               	movf	___xxtofl@val+1,w
  3570  053E  00A3               	movwf	___xxtofl@arg+1
  3571  053F  0871               	movf	___xxtofl@val,w
  3572  0540  00A2               	movwf	___xxtofl@arg
  3573  0541                     l908:
  3574  0541  0874               	movf	___xxtofl@val+3,w
  3575  0542  0473               	iorwf	___xxtofl@val+2,w
  3576  0543  0472               	iorwf	___xxtofl@val+1,w
  3577  0544  0471               	iorwf	___xxtofl@val,w
  3578  0545  1D03               	skipz
  3579  0546  2D48               	goto	u2271
  3580  0547  2D49               	goto	u2270
  3581  0548                     u2271:
  3582  0548  2D52               	goto	l2413
  3583  0549                     u2270:
  3584  0549                     l2409:
  3585  0549  3000               	movlw	0
  3586  054A  00F4               	movwf	?___xxtofl+3
  3587  054B  3000               	movlw	0
  3588  054C  00F3               	movwf	?___xxtofl+2
  3589  054D  3000               	movlw	0
  3590  054E  00F2               	movwf	?___xxtofl+1
  3591  054F  3000               	movlw	0
  3592  0550  00F1               	movwf	?___xxtofl
  3593  0551  2DCA               	goto	l910
  3594  0552                     l2413:
  3595  0552  3096               	movlw	150
  3596  0553  00F5               	movwf	??___xxtofl
  3597  0554  0875               	movf	??___xxtofl,w
  3598  0555  00A1               	movwf	___xxtofl@exp
  3599  0556  2D62               	goto	l2417
  3600  0557                     l2415:
  3601  0557  3001               	movlw	1
  3602  0558  00F5               	movwf	??___xxtofl
  3603  0559  0875               	movf	??___xxtofl,w
  3604  055A  07A1               	addwf	___xxtofl@exp,f
  3605  055B  3001               	movlw	1
  3606  055C                     u2285:
  3607  055C  36A5               	lsrf	___xxtofl@arg+3,f
  3608  055D  0CA4               	rrf	___xxtofl@arg+2,f
  3609  055E  0CA3               	rrf	___xxtofl@arg+1,f
  3610  055F  0CA2               	rrf	___xxtofl@arg,f
  3611  0560  0B89               	decfsz	9,f
  3612  0561  2D5C               	goto	u2285
  3613  0562                     l2417:
  3614  0562  30FE               	movlw	254
  3615  0563  0525               	andwf	___xxtofl@arg+3,w
  3616  0564  1D03               	btfss	3,2
  3617  0565  2D67               	goto	u2291
  3618  0566  2D68               	goto	u2290
  3619  0567                     u2291:
  3620  0567  2D57               	goto	l2415
  3621  0568                     u2290:
  3622  0568  2D7C               	goto	l914
  3623  0569                     l2419:
  3624  0569  3001               	movlw	1
  3625  056A  00F5               	movwf	??___xxtofl
  3626  056B  0875               	movf	??___xxtofl,w
  3627  056C  07A1               	addwf	___xxtofl@exp,f
  3628  056D                     l2421:
  3629  056D  3001               	movlw	1
  3630  056E  07A2               	addwf	___xxtofl@arg,f
  3631  056F  3000               	movlw	0
  3632  0570  3DA3               	addwfc	___xxtofl@arg+1,f
  3633  0571  3000               	movlw	0
  3634  0572  3DA4               	addwfc	___xxtofl@arg+2,f
  3635  0573  3000               	movlw	0
  3636  0574  3DA5               	addwfc	___xxtofl@arg+3,f
  3637  0575                     l2423:
  3638  0575  3001               	movlw	1
  3639  0576                     u2305:
  3640  0576  36A5               	lsrf	___xxtofl@arg+3,f
  3641  0577  0CA4               	rrf	___xxtofl@arg+2,f
  3642  0578  0CA3               	rrf	___xxtofl@arg+1,f
  3643  0579  0CA2               	rrf	___xxtofl@arg,f
  3644  057A  0B89               	decfsz	9,f
  3645  057B  2D76               	goto	u2305
  3646  057C                     l914:
  3647  057C  30FF               	movlw	255
  3648  057D  0525               	andwf	___xxtofl@arg+3,w
  3649  057E  1D03               	btfss	3,2
  3650  057F  2D81               	goto	u2311
  3651  0580  2D82               	goto	u2310
  3652  0581                     u2311:
  3653  0581  2D69               	goto	l2419
  3654  0582                     u2310:
  3655  0582  2D8C               	goto	l2427
  3656  0583                     l2425:
  3657  0583  3001               	movlw	1
  3658  0584  02A1               	subwf	___xxtofl@exp,f
  3659  0585  3001               	movlw	1
  3660  0586                     u2325:
  3661  0586  35A2               	lslf	___xxtofl@arg,f
  3662  0587  0DA3               	rlf	___xxtofl@arg+1,f
  3663  0588  0DA4               	rlf	___xxtofl@arg+2,f
  3664  0589  0DA5               	rlf	___xxtofl@arg+3,f
  3665  058A  0B89               	decfsz	9,f
  3666  058B  2D86               	goto	u2325
  3667  058C                     l2427:
  3668  058C  1BA4               	btfsc	___xxtofl@arg+2,7
  3669  058D  2D8F               	goto	u2331
  3670  058E  2D90               	goto	u2330
  3671  058F                     u2331:
  3672  058F  2D96               	goto	l921
  3673  0590                     u2330:
  3674  0590                     l2429:
  3675  0590  3002               	movlw	2
  3676  0591  0221               	subwf	___xxtofl@exp,w
  3677  0592  1803               	skipnc
  3678  0593  2D95               	goto	u2341
  3679  0594  2D96               	goto	u2340
  3680  0595                     u2341:
  3681  0595  2D83               	goto	l2425
  3682  0596                     u2340:
  3683  0596                     l921:
  3684  0596  1821               	btfsc	___xxtofl@exp,0
  3685  0597  2D99               	goto	u2351
  3686  0598  2D9A               	goto	u2350
  3687  0599                     u2351:
  3688  0599  2DA2               	goto	l922
  3689  059A                     u2350:
  3690  059A                     l2431:
  3691  059A  30FF               	movlw	255
  3692  059B  05A2               	andwf	___xxtofl@arg,f
  3693  059C  30FF               	movlw	255
  3694  059D  05A3               	andwf	___xxtofl@arg+1,f
  3695  059E  307F               	movlw	127
  3696  059F  05A4               	andwf	___xxtofl@arg+2,f
  3697  05A0  30FF               	movlw	255
  3698  05A1  05A5               	andwf	___xxtofl@arg+3,f
  3699  05A2                     l922:
  3700  05A2  1003               	clrc
  3701  05A3  0CA1               	rrf	___xxtofl@exp,f
  3702  05A4                     l2433:
  3703  05A4  0821               	movf	___xxtofl@exp,w
  3704  05A5  00F5               	movwf	??___xxtofl
  3705  05A6  01F6               	clrf	??___xxtofl+1
  3706  05A7  01F7               	clrf	??___xxtofl+2
  3707  05A8  01F8               	clrf	??___xxtofl+3
  3708  05A9  3018               	movlw	24
  3709  05AA                     u2365:
  3710  05AA  35F5               	lslf	??___xxtofl,f
  3711  05AB  0DF6               	rlf	??___xxtofl+1,f
  3712  05AC  0DF7               	rlf	??___xxtofl+2,f
  3713  05AD  0DF8               	rlf	??___xxtofl+3,f
  3714  05AE                     u2360:
  3715  05AE  0B89               	decfsz	9,f
  3716  05AF  2DAA               	goto	u2365
  3717  05B0  0875               	movf	??___xxtofl,w
  3718  05B1  04A2               	iorwf	___xxtofl@arg,f
  3719  05B2  0876               	movf	??___xxtofl+1,w
  3720  05B3  04A3               	iorwf	___xxtofl@arg+1,f
  3721  05B4  0877               	movf	??___xxtofl+2,w
  3722  05B5  04A4               	iorwf	___xxtofl@arg+2,f
  3723  05B6  0878               	movf	??___xxtofl+3,w
  3724  05B7  04A5               	iorwf	___xxtofl@arg+3,f
  3725  05B8                     l2435:
  3726  05B8  0820               	movf	___xxtofl@sign,w
  3727  05B9  1903               	btfsc	3,2
  3728  05BA  2DBC               	goto	u2371
  3729  05BB  2DBD               	goto	u2370
  3730  05BC                     u2371:
  3731  05BC  2DC2               	goto	l2441
  3732  05BD                     u2370:
  3733  05BD                     l2437:
  3734  05BD  1FF4               	btfss	___xxtofl@val+3,7
  3735  05BE  2DC0               	goto	u2381
  3736  05BF  2DC1               	goto	u2380
  3737  05C0                     u2381:
  3738  05C0  2DC2               	goto	l2441
  3739  05C1                     u2380:
  3740  05C1                     l2439:
  3741  05C1  17A5               	bsf	___xxtofl@arg+3,7
  3742  05C2                     l2441:
  3743  05C2  0825               	movf	___xxtofl@arg+3,w
  3744  05C3  00F4               	movwf	?___xxtofl+3
  3745  05C4  0824               	movf	___xxtofl@arg+2,w
  3746  05C5  00F3               	movwf	?___xxtofl+2
  3747  05C6  0823               	movf	___xxtofl@arg+1,w
  3748  05C7  00F2               	movwf	?___xxtofl+1
  3749  05C8  0822               	movf	___xxtofl@arg,w
  3750  05C9  00F1               	movwf	?___xxtofl
  3751  05CA                     l910:
  3752  05CA  0008               	return
  3753  05CB                     __end_of___xxtofl:
  3754                           
  3755                           	psect	text7
  3756  064E                     __ptext7:	
  3757 ;; *************** function ___fltol *****************
  3758 ;; Defined at:
  3759 ;;		line 43 in file "C:\Program Files\Microchip\xc8\v2.31\pic\sources\c90\common\fltol.c"
  3760 ;; Parameters:    Size  Location     Type
  3761 ;;  f1              4   58[BANK0 ] unsigned char 
  3762 ;; Auto vars:     Size  Location     Type
  3763 ;;  exp1            1   11[COMMON] unsigned char 
  3764 ;;  sign1           1   10[COMMON] unsigned char 
  3765 ;; Return value:  Size  Location     Type
  3766 ;;                  4   58[BANK0 ] long 
  3767 ;; Registers used:
  3768 ;;		wreg, status,2, status,0
  3769 ;; Tracked objects:
  3770 ;;		On entry : 0/0
  3771 ;;		On exit  : 0/0
  3772 ;;		Unchanged: 0/0
  3773 ;; Data sizes:     COMMON   BANK0   BANK1   BANK2   BANK3   BANK4   BANK5   BANK6   BANK7   BANK8   BANK9  BANK10  BANK1
      +1  BANK12
  3774 ;;      Params:         0       4       0       0       0       0       0       0       0       0       0       0       
      +0       0
  3775 ;;      Locals:         2       0       0       0       0       0       0       0       0       0       0       0       
      +0       0
  3776 ;;      Temps:          0       5       0       0       0       0       0       0       0       0       0       0       
      +0       0
  3777 ;;      Totals:         2       9       0       0       0       0       0       0       0       0       0       0       
      +0       0
  3778 ;;Total ram usage:       11 bytes
  3779 ;; Hardware stack levels used:    1
  3780 ;; Hardware stack levels required when called:    4
  3781 ;; This function calls:
  3782 ;;		Nothing
  3783 ;; This function is called by:
  3784 ;;		_main
  3785 ;; This function uses a non-reentrant model
  3786 ;;
  3787                           
  3788                           
  3789                           ;psect for function ___fltol
  3790  064E                     ___fltol:
  3791  064E                     l2085:	
  3792                           ;incstack = 0
  3793                           ; Regs used in ___fltol: [wreg+status,2+status,0]
  3794                           
  3795  064E  1003               	clrc
  3796  064F  0020               	movlb	0	; select bank0
  3797  0650  0D5C               	rlf	___fltol@f1+2,w
  3798  0651  0D5D               	rlf	___fltol@f1+3,w
  3799  0652  00DE               	movwf	??___fltol
  3800  0653  085E               	movf	??___fltol,w
  3801  0654  00FB               	movwf	___fltol@exp1
  3802  0655  087B               	movf	___fltol@exp1,w
  3803  0656  1D03               	btfss	3,2
  3804  0657  2E59               	goto	u1601
  3805  0658  2E5A               	goto	u1600
  3806  0659                     u1601:
  3807  0659  2E63               	goto	l2091
  3808  065A                     u1600:
  3809  065A                     l2087:
  3810  065A  3000               	movlw	0
  3811  065B  00DD               	movwf	?___fltol+3
  3812  065C  3000               	movlw	0
  3813  065D  00DC               	movwf	?___fltol+2
  3814  065E  3000               	movlw	0
  3815  065F  00DB               	movwf	?___fltol+1
  3816  0660  3000               	movlw	0
  3817  0661  00DA               	movwf	?___fltol
  3818  0662  2EC2               	goto	l661
  3819  0663                     l2091:
  3820  0663  085A               	movf	___fltol@f1,w
  3821  0664  00DE               	movwf	??___fltol
  3822  0665  085B               	movf	___fltol@f1+1,w
  3823  0666  00DF               	movwf	??___fltol+1
  3824  0667  085C               	movf	___fltol@f1+2,w
  3825  0668  00E0               	movwf	??___fltol+2
  3826  0669  085D               	movf	___fltol@f1+3,w
  3827  066A  00E1               	movwf	??___fltol+3
  3828  066B  301F               	movlw	31
  3829  066C                     u1615:
  3830  066C  36E1               	lsrf	??___fltol+3,f
  3831  066D  0CE0               	rrf	??___fltol+2,f
  3832  066E  0CDF               	rrf	??___fltol+1,f
  3833  066F  0CDE               	rrf	??___fltol,f
  3834  0670                     u1610:
  3835  0670  0B89               	decfsz	9,f
  3836  0671  2E6C               	goto	u1615
  3837  0672  085E               	movf	??___fltol,w
  3838  0673  00E2               	movwf	??___fltol+4
  3839  0674  0862               	movf	??___fltol+4,w
  3840  0675  00FA               	movwf	___fltol@sign1
  3841  0676                     l2093:
  3842  0676  17DC               	bsf	___fltol@f1+2,7
  3843  0677                     l2095:
  3844  0677  30FF               	movlw	255
  3845  0678  05DA               	andwf	___fltol@f1,f
  3846  0679  30FF               	movlw	255
  3847  067A  05DB               	andwf	___fltol@f1+1,f
  3848  067B  30FF               	movlw	255
  3849  067C  05DC               	andwf	___fltol@f1+2,f
  3850  067D  3000               	movlw	0
  3851  067E  05DD               	andwf	___fltol@f1+3,f
  3852  067F                     l2097:
  3853  067F  3096               	movlw	150
  3854  0680  02FB               	subwf	___fltol@exp1,f
  3855  0681                     l2099:
  3856  0681  1FFB               	btfss	___fltol@exp1,7
  3857  0682  2E84               	goto	u1621
  3858  0683  2E85               	goto	u1620
  3859  0684                     u1621:
  3860  0684  2E9D               	goto	l2109
  3861  0685                     u1620:
  3862  0685                     l2101:
  3863  0685  087B               	movf	___fltol@exp1,w
  3864  0686  3A80               	xorlw	128
  3865  0687  3E97               	addlw	151
  3866  0688  1803               	skipnc
  3867  0689  2E8B               	goto	u1631
  3868  068A  2E8C               	goto	u1630
  3869  068B                     u1631:
  3870  068B  2E8D               	goto	l2107
  3871  068C                     u1630:
  3872  068C  2E5A               	goto	l2087
  3873  068D                     l2107:
  3874  068D  3001               	movlw	1
  3875  068E                     u1645:
  3876  068E  36DD               	lsrf	___fltol@f1+3,f
  3877  068F  0CDC               	rrf	___fltol@f1+2,f
  3878  0690  0CDB               	rrf	___fltol@f1+1,f
  3879  0691  0CDA               	rrf	___fltol@f1,f
  3880  0692  0B89               	decfsz	9,f
  3881  0693  2E8E               	goto	u1645
  3882  0694  3001               	movlw	1
  3883  0695  00DE               	movwf	??___fltol
  3884  0696  085E               	movf	??___fltol,w
  3885  0697  07FB               	addwf	___fltol@exp1,f
  3886  0698  1D03               	btfss	3,2
  3887  0699  2E9B               	goto	u1651
  3888  069A  2E9C               	goto	u1650
  3889  069B                     u1651:
  3890  069B  2E8D               	goto	l2107
  3891  069C                     u1650:
  3892  069C  2EB2               	goto	l2117
  3893  069D                     l2109:
  3894  069D  3020               	movlw	32
  3895  069E  027B               	subwf	___fltol@exp1,w
  3896  069F  1C03               	skipc
  3897  06A0  2EA2               	goto	u1661
  3898  06A1  2EA3               	goto	u1660
  3899  06A2                     u1661:
  3900  06A2  2EAD               	goto	l668
  3901  06A3                     u1660:
  3902  06A3  2E5A               	goto	l2087
  3903  06A4                     l2115:
  3904  06A4  3001               	movlw	1
  3905  06A5                     u1675:
  3906  06A5  35DA               	lslf	___fltol@f1,f
  3907  06A6  0DDB               	rlf	___fltol@f1+1,f
  3908  06A7  0DDC               	rlf	___fltol@f1+2,f
  3909  06A8  0DDD               	rlf	___fltol@f1+3,f
  3910  06A9  0B89               	decfsz	9,f
  3911  06AA  2EA5               	goto	u1675
  3912  06AB  3001               	movlw	1
  3913  06AC  02FB               	subwf	___fltol@exp1,f
  3914  06AD                     l668:
  3915  06AD  087B               	movf	___fltol@exp1,w
  3916  06AE  1D03               	btfss	3,2
  3917  06AF  2EB1               	goto	u1681
  3918  06B0  2EB2               	goto	u1680
  3919  06B1                     u1681:
  3920  06B1  2EA4               	goto	l2115
  3921  06B2                     u1680:
  3922  06B2                     l2117:
  3923  06B2  087A               	movf	___fltol@sign1,w
  3924  06B3  1903               	btfsc	3,2
  3925  06B4  2EB6               	goto	u1691
  3926  06B5  2EB7               	goto	u1690
  3927  06B6                     u1691:
  3928  06B6  2EC2               	goto	l671
  3929  06B7                     u1690:
  3930  06B7                     l2119:
  3931  06B7  09DA               	comf	___fltol@f1,f
  3932  06B8  09DB               	comf	___fltol@f1+1,f
  3933  06B9  09DC               	comf	___fltol@f1+2,f
  3934  06BA  09DD               	comf	___fltol@f1+3,f
  3935  06BB  0ADA               	incf	___fltol@f1,f
  3936  06BC  1903               	skipnz
  3937  06BD  0ADB               	incf	___fltol@f1+1,f
  3938  06BE  1903               	skipnz
  3939  06BF  0ADC               	incf	___fltol@f1+2,f
  3940  06C0  1903               	skipnz
  3941  06C1  0ADD               	incf	___fltol@f1+3,f
  3942  06C2                     l671:
  3943  06C2                     l661:
  3944  06C2  0008               	return
  3945  06C3                     __end_of___fltol:
  3946                           
  3947                           	psect	text8
  3948  0050                     __ptext8:	
  3949 ;; *************** function ___flmul *****************
  3950 ;; Defined at:
  3951 ;;		line 8 in file "C:\Program Files\Microchip\xc8\v2.31\pic\sources\c90\common\sprcmul.c"
  3952 ;; Parameters:    Size  Location     Type
  3953 ;;  b               4   32[BANK0 ] long 
  3954 ;;  a               4   36[BANK0 ] long 
  3955 ;; Auto vars:     Size  Location     Type
  3956 ;;  prod            4   52[BANK0 ] struct .
  3957 ;;  grs             4   46[BANK0 ] unsigned long 
  3958 ;;  temp            2   56[BANK0 ] struct .
  3959 ;;  bexp            1   51[BANK0 ] unsigned char 
  3960 ;;  aexp            1   50[BANK0 ] unsigned char 
  3961 ;;  sign            1   45[BANK0 ] unsigned char 
  3962 ;; Return value:  Size  Location     Type
  3963 ;;                  4   32[BANK0 ] unsigned char 
  3964 ;; Registers used:
  3965 ;;		wreg, status,2, status,0, pclath, cstack
  3966 ;; Tracked objects:
  3967 ;;		On entry : 0/0
  3968 ;;		On exit  : 0/0
  3969 ;;		Unchanged: 0/0
  3970 ;; Data sizes:     COMMON   BANK0   BANK1   BANK2   BANK3   BANK4   BANK5   BANK6   BANK7   BANK8   BANK9  BANK10  BANK1
      +1  BANK12
  3971 ;;      Params:         0       8       0       0       0       0       0       0       0       0       0       0       
      +0       0
  3972 ;;      Locals:         0      13       0       0       0       0       0       0       0       0       0       0       
      +0       0
  3973 ;;      Temps:          0       5       0       0       0       0       0       0       0       0       0       0       
      +0       0
  3974 ;;      Totals:         0      26       0       0       0       0       0       0       0       0       0       0       
      +0       0
  3975 ;;Total ram usage:       26 bytes
  3976 ;; Hardware stack levels used:    1
  3977 ;; Hardware stack levels required when called:    5
  3978 ;; This function calls:
  3979 ;;		__Umul8_16
  3980 ;; This function is called by:
  3981 ;;		_main
  3982 ;; This function uses a non-reentrant model
  3983 ;;
  3984                           
  3985                           
  3986                           ;psect for function ___flmul
  3987  0050                     ___flmul:
  3988  0050                     l2261:	
  3989                           ;incstack = 0
  3990                           ; Regs used in ___flmul: [wreg+status,2+status,0+pclath+cstack]
  3991                           
  3992  0050  0020               	movlb	0	; select bank0
  3993  0051  0843               	movf	___flmul@b+3,w
  3994  0052  3980               	andlw	128
  3995  0053  00C8               	movwf	??___flmul
  3996  0054  0848               	movf	??___flmul,w
  3997  0055  00CD               	movwf	___flmul@sign
  3998  0056                     l2263:
  3999  0056  3543               	lslf	___flmul@b+3,w
  4000  0057  00C8               	movwf	??___flmul
  4001  0058  0848               	movf	??___flmul,w
  4002  0059  00D3               	movwf	___flmul@bexp
  4003  005A                     l2265:
  4004  005A  1FC2               	btfss	___flmul@b+2,7
  4005  005B  285D               	goto	u1991
  4006  005C  285E               	goto	u1990
  4007  005D                     u1991:
  4008  005D  285F               	goto	l2269
  4009  005E                     u1990:
  4010  005E                     l2267:
  4011  005E  1453               	bsf	___flmul@bexp,0
  4012  005F                     l2269:
  4013  005F  0853               	movf	___flmul@bexp,w
  4014  0060  1903               	btfsc	3,2
  4015  0061  2863               	goto	u2001
  4016  0062  2864               	goto	u2000
  4017  0063                     u2001:
  4018  0063  2873               	goto	l2277
  4019  0064                     u2000:
  4020  0064                     l2271:
  4021  0064  0A53               	incf	___flmul@bexp,w
  4022  0065  1D03               	btfss	3,2
  4023  0066  2868               	goto	u2011
  4024  0067  2869               	goto	u2010
  4025  0068                     u2011:
  4026  0068  2871               	goto	l2275
  4027  0069                     u2010:
  4028  0069                     l2273:
  4029  0069  3000               	movlw	0
  4030  006A  00C3               	movwf	___flmul@b+3
  4031  006B  3000               	movlw	0
  4032  006C  00C2               	movwf	___flmul@b+2
  4033  006D  3000               	movlw	0
  4034  006E  00C1               	movwf	___flmul@b+1
  4035  006F  3000               	movlw	0
  4036  0070  00C0               	movwf	___flmul@b
  4037  0071                     l2275:
  4038  0071  17C2               	bsf	___flmul@b+2,7
  4039  0072  287B               	goto	l2279
  4040  0073                     l2277:
  4041  0073  3000               	movlw	0
  4042  0074  00C3               	movwf	___flmul@b+3
  4043  0075  3000               	movlw	0
  4044  0076  00C2               	movwf	___flmul@b+2
  4045  0077  3000               	movlw	0
  4046  0078  00C1               	movwf	___flmul@b+1
  4047  0079  3000               	movlw	0
  4048  007A  00C0               	movwf	___flmul@b
  4049  007B                     l2279:
  4050  007B  0847               	movf	___flmul@a+3,w
  4051  007C  3980               	andlw	128
  4052  007D  00C8               	movwf	??___flmul
  4053  007E  0848               	movf	??___flmul,w
  4054  007F  06CD               	xorwf	___flmul@sign,f
  4055  0080                     l2281:
  4056  0080  3547               	lslf	___flmul@a+3,w
  4057  0081  00C8               	movwf	??___flmul
  4058  0082  0848               	movf	??___flmul,w
  4059  0083  00D2               	movwf	___flmul@aexp
  4060  0084                     l2283:
  4061  0084  1FC6               	btfss	___flmul@a+2,7
  4062  0085  2887               	goto	u2021
  4063  0086  2888               	goto	u2020
  4064  0087                     u2021:
  4065  0087  2889               	goto	l2287
  4066  0088                     u2020:
  4067  0088                     l2285:
  4068  0088  1452               	bsf	___flmul@aexp,0
  4069  0089                     l2287:
  4070  0089  0852               	movf	___flmul@aexp,w
  4071  008A  1903               	btfsc	3,2
  4072  008B  288D               	goto	u2031
  4073  008C  288E               	goto	u2030
  4074  008D                     u2031:
  4075  008D  289D               	goto	l2295
  4076  008E                     u2030:
  4077  008E                     l2289:
  4078  008E  0A52               	incf	___flmul@aexp,w
  4079  008F  1D03               	btfss	3,2
  4080  0090  2892               	goto	u2041
  4081  0091  2893               	goto	u2040
  4082  0092                     u2041:
  4083  0092  289B               	goto	l2293
  4084  0093                     u2040:
  4085  0093                     l2291:
  4086  0093  3000               	movlw	0
  4087  0094  00C7               	movwf	___flmul@a+3
  4088  0095  3000               	movlw	0
  4089  0096  00C6               	movwf	___flmul@a+2
  4090  0097  3000               	movlw	0
  4091  0098  00C5               	movwf	___flmul@a+1
  4092  0099  3000               	movlw	0
  4093  009A  00C4               	movwf	___flmul@a
  4094  009B                     l2293:
  4095  009B  17C6               	bsf	___flmul@a+2,7
  4096  009C  28A5               	goto	l2297
  4097  009D                     l2295:
  4098  009D  3000               	movlw	0
  4099  009E  00C7               	movwf	___flmul@a+3
  4100  009F  3000               	movlw	0
  4101  00A0  00C6               	movwf	___flmul@a+2
  4102  00A1  3000               	movlw	0
  4103  00A2  00C5               	movwf	___flmul@a+1
  4104  00A3  3000               	movlw	0
  4105  00A4  00C4               	movwf	___flmul@a
  4106  00A5                     l2297:
  4107  00A5  0852               	movf	___flmul@aexp,w
  4108  00A6  1903               	btfsc	3,2
  4109  00A7  28A9               	goto	u2051
  4110  00A8  28AA               	goto	u2050
  4111  00A9                     u2051:
  4112  00A9  28AF               	goto	l2301
  4113  00AA                     u2050:
  4114  00AA                     l2299:
  4115  00AA  0853               	movf	___flmul@bexp,w
  4116  00AB  1D03               	btfss	3,2
  4117  00AC  28AE               	goto	u2061
  4118  00AD  28AF               	goto	u2060
  4119  00AE                     u2061:
  4120  00AE  28B8               	goto	l2305
  4121  00AF                     u2060:
  4122  00AF                     l2301:
  4123  00AF  3000               	movlw	0
  4124  00B0  00C3               	movwf	?___flmul+3
  4125  00B1  3000               	movlw	0
  4126  00B2  00C2               	movwf	?___flmul+2
  4127  00B3  3000               	movlw	0
  4128  00B4  00C1               	movwf	?___flmul+1
  4129  00B5  3000               	movlw	0
  4130  00B6  00C0               	movwf	?___flmul
  4131  00B7  2AA6               	goto	l864
  4132  00B8                     l2305:
  4133  00B8  0840               	movf	___flmul@b,w
  4134  00B9  00C8               	movwf	??___flmul
  4135  00BA  0848               	movf	??___flmul,w
  4136  00BB  00F1               	movwf	__Umul8_16@multiplicand
  4137  00BC  0846               	movf	___flmul@a+2,w
  4138  00BD  318F  27DD  3180   	fcall	__Umul8_16
  4139  00C0  0872               	movf	?__Umul8_16+1,w
  4140  00C1  0020               	movlb	0	; select bank0
  4141  00C2  00D9               	movwf	___flmul@temp+1
  4142  00C3  0871               	movf	?__Umul8_16,w
  4143  00C4  00D8               	movwf	___flmul@temp
  4144  00C5                     l2307:
  4145  00C5  0858               	movf	___flmul@temp,w
  4146  00C6  00C8               	movwf	??___flmul
  4147  00C7  01C9               	clrf	??___flmul+1
  4148  00C8  01CA               	clrf	??___flmul+2
  4149  00C9  01CB               	clrf	??___flmul+3
  4150  00CA  084B               	movf	??___flmul+3,w
  4151  00CB  00D1               	movwf	___flmul@grs+3
  4152  00CC  084A               	movf	??___flmul+2,w
  4153  00CD  00D0               	movwf	___flmul@grs+2
  4154  00CE  0849               	movf	??___flmul+1,w
  4155  00CF  00CF               	movwf	___flmul@grs+1
  4156  00D0  0848               	movf	??___flmul,w
  4157  00D1  00CE               	movwf	___flmul@grs
  4158  00D2                     l2309:
  4159  00D2  0859               	movf	___flmul@temp+1,w
  4160  00D3  00C8               	movwf	??___flmul
  4161  00D4  01C9               	clrf	??___flmul+1
  4162  00D5  01CA               	clrf	??___flmul+2
  4163  00D6  01CB               	clrf	??___flmul+3
  4164  00D7  084B               	movf	??___flmul+3,w
  4165  00D8  00D7               	movwf	___flmul@prod+3
  4166  00D9  084A               	movf	??___flmul+2,w
  4167  00DA  00D6               	movwf	___flmul@prod+2
  4168  00DB  0849               	movf	??___flmul+1,w
  4169  00DC  00D5               	movwf	___flmul@prod+1
  4170  00DD  0848               	movf	??___flmul,w
  4171  00DE  00D4               	movwf	___flmul@prod
  4172  00DF  0841               	movf	___flmul@b+1,w
  4173  00E0  00C8               	movwf	??___flmul
  4174  00E1  0848               	movf	??___flmul,w
  4175  00E2  00F1               	movwf	__Umul8_16@multiplicand
  4176  00E3  0845               	movf	___flmul@a+1,w
  4177  00E4  318F  27DD  3180   	fcall	__Umul8_16
  4178  00E7  0872               	movf	?__Umul8_16+1,w
  4179  00E8  0020               	movlb	0	; select bank0
  4180  00E9  00D9               	movwf	___flmul@temp+1
  4181  00EA  0871               	movf	?__Umul8_16,w
  4182  00EB  00D8               	movwf	___flmul@temp
  4183  00EC                     l2311:
  4184  00EC  0858               	movf	___flmul@temp,w
  4185  00ED  00C8               	movwf	??___flmul
  4186  00EE  01C9               	clrf	??___flmul+1
  4187  00EF  01CA               	clrf	??___flmul+2
  4188  00F0  01CB               	clrf	??___flmul+3
  4189  00F1  0848               	movf	??___flmul,w
  4190  00F2  07CE               	addwf	___flmul@grs,f
  4191  00F3  0849               	movf	??___flmul+1,w
  4192  00F4  3DCF               	addwfc	___flmul@grs+1,f
  4193  00F5  084A               	movf	??___flmul+2,w
  4194  00F6  3DD0               	addwfc	___flmul@grs+2,f
  4195  00F7  084B               	movf	??___flmul+3,w
  4196  00F8  3DD1               	addwfc	___flmul@grs+3,f
  4197  00F9                     l2313:
  4198  00F9  0859               	movf	___flmul@temp+1,w
  4199  00FA  00C8               	movwf	??___flmul
  4200  00FB  01C9               	clrf	??___flmul+1
  4201  00FC  01CA               	clrf	??___flmul+2
  4202  00FD  01CB               	clrf	??___flmul+3
  4203  00FE  0848               	movf	??___flmul,w
  4204  00FF  07D4               	addwf	___flmul@prod,f
  4205  0100  0849               	movf	??___flmul+1,w
  4206  0101  3DD5               	addwfc	___flmul@prod+1,f
  4207  0102  084A               	movf	??___flmul+2,w
  4208  0103  3DD6               	addwfc	___flmul@prod+2,f
  4209  0104  084B               	movf	??___flmul+3,w
  4210  0105  3DD7               	addwfc	___flmul@prod+3,f
  4211  0106  0842               	movf	___flmul@b+2,w
  4212  0107  00C8               	movwf	??___flmul
  4213  0108  0848               	movf	??___flmul,w
  4214  0109  00F1               	movwf	__Umul8_16@multiplicand
  4215  010A  0844               	movf	___flmul@a,w
  4216  010B  318F  27DD  3180   	fcall	__Umul8_16
  4217  010E  0872               	movf	?__Umul8_16+1,w
  4218  010F  0020               	movlb	0	; select bank0
  4219  0110  00D9               	movwf	___flmul@temp+1
  4220  0111  0871               	movf	?__Umul8_16,w
  4221  0112  00D8               	movwf	___flmul@temp
  4222  0113                     l2315:
  4223  0113  0858               	movf	___flmul@temp,w
  4224  0114  00C8               	movwf	??___flmul
  4225  0115  01C9               	clrf	??___flmul+1
  4226  0116  01CA               	clrf	??___flmul+2
  4227  0117  01CB               	clrf	??___flmul+3
  4228  0118  0848               	movf	??___flmul,w
  4229  0119  07CE               	addwf	___flmul@grs,f
  4230  011A  0849               	movf	??___flmul+1,w
  4231  011B  3DCF               	addwfc	___flmul@grs+1,f
  4232  011C  084A               	movf	??___flmul+2,w
  4233  011D  3DD0               	addwfc	___flmul@grs+2,f
  4234  011E  084B               	movf	??___flmul+3,w
  4235  011F  3DD1               	addwfc	___flmul@grs+3,f
  4236  0120                     l2317:
  4237  0120  0859               	movf	___flmul@temp+1,w
  4238  0121  00C8               	movwf	??___flmul
  4239  0122  01C9               	clrf	??___flmul+1
  4240  0123  01CA               	clrf	??___flmul+2
  4241  0124  01CB               	clrf	??___flmul+3
  4242  0125  0848               	movf	??___flmul,w
  4243  0126  07D4               	addwf	___flmul@prod,f
  4244  0127  0849               	movf	??___flmul+1,w
  4245  0128  3DD5               	addwfc	___flmul@prod+1,f
  4246  0129  084A               	movf	??___flmul+2,w
  4247  012A  3DD6               	addwfc	___flmul@prod+2,f
  4248  012B  084B               	movf	??___flmul+3,w
  4249  012C  3DD7               	addwfc	___flmul@prod+3,f
  4250  012D                     l2319:
  4251  012D  3008               	movlw	8
  4252  012E                     u2075:
  4253  012E  35CE               	lslf	___flmul@grs,f
  4254  012F  0DCF               	rlf	___flmul@grs+1,f
  4255  0130  0DD0               	rlf	___flmul@grs+2,f
  4256  0131  0DD1               	rlf	___flmul@grs+3,f
  4257  0132  0B89               	decfsz	9,f
  4258  0133  292E               	goto	u2075
  4259  0134                     l2321:
  4260  0134  0841               	movf	___flmul@b+1,w
  4261  0135  00C8               	movwf	??___flmul
  4262  0136  0848               	movf	??___flmul,w
  4263  0137  00F1               	movwf	__Umul8_16@multiplicand
  4264  0138  0844               	movf	___flmul@a,w
  4265  0139  318F  27DD  3180   	fcall	__Umul8_16
  4266  013C  0872               	movf	?__Umul8_16+1,w
  4267  013D  0020               	movlb	0	; select bank0
  4268  013E  00D9               	movwf	___flmul@temp+1
  4269  013F  0871               	movf	?__Umul8_16,w
  4270  0140  00D8               	movwf	___flmul@temp
  4271  0141                     l2323:
  4272  0141  0858               	movf	___flmul@temp,w
  4273  0142  07CE               	addwf	___flmul@grs,f
  4274  0143  0859               	movf	___flmul@temp+1,w
  4275  0144  3DCF               	addwfc	___flmul@grs+1,f
  4276  0145  3000               	movlw	0
  4277  0146  3DD0               	addwfc	___flmul@grs+2,f
  4278  0147  3DD1               	addwfc	___flmul@grs+3,f
  4279  0148                     l2325:
  4280  0148  0840               	movf	___flmul@b,w
  4281  0149  00C8               	movwf	??___flmul
  4282  014A  0848               	movf	??___flmul,w
  4283  014B  00F1               	movwf	__Umul8_16@multiplicand
  4284  014C  0845               	movf	___flmul@a+1,w
  4285  014D  318F  27DD  3180   	fcall	__Umul8_16
  4286  0150  0872               	movf	?__Umul8_16+1,w
  4287  0151  0020               	movlb	0	; select bank0
  4288  0152  00D9               	movwf	___flmul@temp+1
  4289  0153  0871               	movf	?__Umul8_16,w
  4290  0154  00D8               	movwf	___flmul@temp
  4291  0155                     l2327:
  4292  0155  0858               	movf	___flmul@temp,w
  4293  0156  07CE               	addwf	___flmul@grs,f
  4294  0157  0859               	movf	___flmul@temp+1,w
  4295  0158  3DCF               	addwfc	___flmul@grs+1,f
  4296  0159  3000               	movlw	0
  4297  015A  3DD0               	addwfc	___flmul@grs+2,f
  4298  015B  3DD1               	addwfc	___flmul@grs+3,f
  4299  015C                     l2329:
  4300  015C  3008               	movlw	8
  4301  015D                     u2085:
  4302  015D  35CE               	lslf	___flmul@grs,f
  4303  015E  0DCF               	rlf	___flmul@grs+1,f
  4304  015F  0DD0               	rlf	___flmul@grs+2,f
  4305  0160  0DD1               	rlf	___flmul@grs+3,f
  4306  0161  0B89               	decfsz	9,f
  4307  0162  295D               	goto	u2085
  4308  0163  0840               	movf	___flmul@b,w
  4309  0164  00C8               	movwf	??___flmul
  4310  0165  0848               	movf	??___flmul,w
  4311  0166  00F1               	movwf	__Umul8_16@multiplicand
  4312  0167  0844               	movf	___flmul@a,w
  4313  0168  318F  27DD  3180   	fcall	__Umul8_16
  4314  016B  0872               	movf	?__Umul8_16+1,w
  4315  016C  0020               	movlb	0	; select bank0
  4316  016D  00D9               	movwf	___flmul@temp+1
  4317  016E  0871               	movf	?__Umul8_16,w
  4318  016F  00D8               	movwf	___flmul@temp
  4319  0170                     l2331:
  4320  0170  0858               	movf	___flmul@temp,w
  4321  0171  07CE               	addwf	___flmul@grs,f
  4322  0172  0859               	movf	___flmul@temp+1,w
  4323  0173  3DCF               	addwfc	___flmul@grs+1,f
  4324  0174  3000               	movlw	0
  4325  0175  3DD0               	addwfc	___flmul@grs+2,f
  4326  0176  3DD1               	addwfc	___flmul@grs+3,f
  4327  0177                     l2333:
  4328  0177  0841               	movf	___flmul@b+1,w
  4329  0178  00C8               	movwf	??___flmul
  4330  0179  0848               	movf	??___flmul,w
  4331  017A  00F1               	movwf	__Umul8_16@multiplicand
  4332  017B  0846               	movf	___flmul@a+2,w
  4333  017C  318F  27DD  3180   	fcall	__Umul8_16
  4334  017F  0872               	movf	?__Umul8_16+1,w
  4335  0180  0020               	movlb	0	; select bank0
  4336  0181  00D9               	movwf	___flmul@temp+1
  4337  0182  0871               	movf	?__Umul8_16,w
  4338  0183  00D8               	movwf	___flmul@temp
  4339  0184  0858               	movf	___flmul@temp,w
  4340  0185  07D4               	addwf	___flmul@prod,f
  4341  0186  0859               	movf	___flmul@temp+1,w
  4342  0187  3DD5               	addwfc	___flmul@prod+1,f
  4343  0188  3000               	movlw	0
  4344  0189  3DD6               	addwfc	___flmul@prod+2,f
  4345  018A  3DD7               	addwfc	___flmul@prod+3,f
  4346  018B                     l2335:
  4347  018B  0842               	movf	___flmul@b+2,w
  4348  018C  00C8               	movwf	??___flmul
  4349  018D  0848               	movf	??___flmul,w
  4350  018E  00F1               	movwf	__Umul8_16@multiplicand
  4351  018F  0845               	movf	___flmul@a+1,w
  4352  0190  318F  27DD  3180   	fcall	__Umul8_16
  4353  0193  0872               	movf	?__Umul8_16+1,w
  4354  0194  0020               	movlb	0	; select bank0
  4355  0195  00D9               	movwf	___flmul@temp+1
  4356  0196  0871               	movf	?__Umul8_16,w
  4357  0197  00D8               	movwf	___flmul@temp
  4358  0198                     l2337:
  4359  0198  0858               	movf	___flmul@temp,w
  4360  0199  07D4               	addwf	___flmul@prod,f
  4361  019A  0859               	movf	___flmul@temp+1,w
  4362  019B  3DD5               	addwfc	___flmul@prod+1,f
  4363  019C  3000               	movlw	0
  4364  019D  3DD6               	addwfc	___flmul@prod+2,f
  4365  019E  3DD7               	addwfc	___flmul@prod+3,f
  4366  019F  0842               	movf	___flmul@b+2,w
  4367  01A0  00C8               	movwf	??___flmul
  4368  01A1  0848               	movf	??___flmul,w
  4369  01A2  00F1               	movwf	__Umul8_16@multiplicand
  4370  01A3  0846               	movf	___flmul@a+2,w
  4371  01A4  318F  27DD  3180   	fcall	__Umul8_16
  4372  01A7  0872               	movf	?__Umul8_16+1,w
  4373  01A8  0020               	movlb	0	; select bank0
  4374  01A9  00D9               	movwf	___flmul@temp+1
  4375  01AA  0871               	movf	?__Umul8_16,w
  4376  01AB  00D8               	movwf	___flmul@temp
  4377  01AC                     l2339:
  4378  01AC  0858               	movf	___flmul@temp,w
  4379  01AD  00C8               	movwf	??___flmul
  4380  01AE  0859               	movf	___flmul@temp+1,w
  4381  01AF  00C9               	movwf	??___flmul+1
  4382  01B0  01CA               	clrf	??___flmul+2
  4383  01B1  01CB               	clrf	??___flmul+3
  4384  01B2  3008               	movlw	8
  4385  01B3                     u2095:
  4386  01B3  35C8               	lslf	??___flmul,f
  4387  01B4  0DC9               	rlf	??___flmul+1,f
  4388  01B5  0DCA               	rlf	??___flmul+2,f
  4389  01B6  0DCB               	rlf	??___flmul+3,f
  4390  01B7                     u2090:
  4391  01B7  0B89               	decfsz	9,f
  4392  01B8  29B3               	goto	u2095
  4393  01B9  0848               	movf	??___flmul,w
  4394  01BA  07D4               	addwf	___flmul@prod,f
  4395  01BB  0849               	movf	??___flmul+1,w
  4396  01BC  3DD5               	addwfc	___flmul@prod+1,f
  4397  01BD  084A               	movf	??___flmul+2,w
  4398  01BE  3DD6               	addwfc	___flmul@prod+2,f
  4399  01BF  084B               	movf	??___flmul+3,w
  4400  01C0  3DD7               	addwfc	___flmul@prod+3,f
  4401  01C1                     l2341:
  4402  01C1  084E               	movf	___flmul@grs,w
  4403  01C2  00C8               	movwf	??___flmul
  4404  01C3  084F               	movf	___flmul@grs+1,w
  4405  01C4  00C9               	movwf	??___flmul+1
  4406  01C5  0850               	movf	___flmul@grs+2,w
  4407  01C6  00CA               	movwf	??___flmul+2
  4408  01C7  0851               	movf	___flmul@grs+3,w
  4409  01C8  00CB               	movwf	??___flmul+3
  4410  01C9  3018               	movlw	24
  4411  01CA                     u2105:
  4412  01CA  36CB               	lsrf	??___flmul+3,f
  4413  01CB  0CCA               	rrf	??___flmul+2,f
  4414  01CC  0CC9               	rrf	??___flmul+1,f
  4415  01CD  0CC8               	rrf	??___flmul,f
  4416  01CE                     u2100:
  4417  01CE  0B89               	decfsz	9,f
  4418  01CF  29CA               	goto	u2105
  4419  01D0  0848               	movf	??___flmul,w
  4420  01D1  07D4               	addwf	___flmul@prod,f
  4421  01D2  0849               	movf	??___flmul+1,w
  4422  01D3  3DD5               	addwfc	___flmul@prod+1,f
  4423  01D4  084A               	movf	??___flmul+2,w
  4424  01D5  3DD6               	addwfc	___flmul@prod+2,f
  4425  01D6  084B               	movf	??___flmul+3,w
  4426  01D7  3DD7               	addwfc	___flmul@prod+3,f
  4427  01D8                     l2343:
  4428  01D8  3008               	movlw	8
  4429  01D9                     u2115:
  4430  01D9  35CE               	lslf	___flmul@grs,f
  4431  01DA  0DCF               	rlf	___flmul@grs+1,f
  4432  01DB  0DD0               	rlf	___flmul@grs+2,f
  4433  01DC  0DD1               	rlf	___flmul@grs+3,f
  4434  01DD  0B89               	decfsz	9,f
  4435  01DE  29D9               	goto	u2115
  4436  01DF                     l2345:
  4437  01DF  0853               	movf	___flmul@bexp,w
  4438  01E0  0752               	addwf	___flmul@aexp,w
  4439  01E1  00C8               	movwf	??___flmul
  4440  01E2  01C9               	clrf	??___flmul+1
  4441  01E3  0DC9               	rlf	??___flmul+1,f
  4442  01E4  0848               	movf	??___flmul,w
  4443  01E5  3E82               	addlw	130
  4444  01E6  00D8               	movwf	___flmul@temp
  4445  01E7  30FF               	movlw	255
  4446  01E8  3D49               	addwfc	??___flmul+1,w
  4447  01E9  00D9               	movwf	___flmul@temp+1
  4448  01EA  2A02               	goto	l2357
  4449  01EB                     l2347:
  4450  01EB  3001               	movlw	1
  4451  01EC                     u2125:
  4452  01EC  35D4               	lslf	___flmul@prod,f
  4453  01ED  0DD5               	rlf	___flmul@prod+1,f
  4454  01EE  0DD6               	rlf	___flmul@prod+2,f
  4455  01EF  0DD7               	rlf	___flmul@prod+3,f
  4456  01F0  0B89               	decfsz	9,f
  4457  01F1  29EC               	goto	u2125
  4458  01F2                     l2349:
  4459  01F2  1FD1               	btfss	___flmul@grs+3,7
  4460  01F3  29F5               	goto	u2131
  4461  01F4  29F6               	goto	u2130
  4462  01F5                     u2131:
  4463  01F5  29F7               	goto	l2353
  4464  01F6                     u2130:
  4465  01F6                     l2351:
  4466  01F6  1454               	bsf	___flmul@prod,0
  4467  01F7                     l2353:
  4468  01F7  3001               	movlw	1
  4469  01F8                     u2145:
  4470  01F8  35CE               	lslf	___flmul@grs,f
  4471  01F9  0DCF               	rlf	___flmul@grs+1,f
  4472  01FA  0DD0               	rlf	___flmul@grs+2,f
  4473  01FB  0DD1               	rlf	___flmul@grs+3,f
  4474  01FC  0B89               	decfsz	9,f
  4475  01FD  29F8               	goto	u2145
  4476  01FE                     l2355:
  4477  01FE  30FF               	movlw	255
  4478  01FF  07D8               	addwf	___flmul@temp,f
  4479  0200  30FF               	movlw	255
  4480  0201  3DD9               	addwfc	___flmul@temp+1,f
  4481  0202                     l2357:
  4482  0202  1FD6               	btfss	___flmul@prod+2,7
  4483  0203  2A05               	goto	u2151
  4484  0204  2A06               	goto	u2150
  4485  0205                     u2151:
  4486  0205  29EB               	goto	l2347
  4487  0206                     u2150:
  4488  0206                     l2359:
  4489  0206  01D2               	clrf	___flmul@aexp
  4490  0207                     l2361:
  4491  0207  1FD1               	btfss	___flmul@grs+3,7
  4492  0208  2A0A               	goto	u2161
  4493  0209  2A0B               	goto	u2160
  4494  020A                     u2161:
  4495  020A  2A27               	goto	l2369
  4496  020B                     u2160:
  4497  020B                     l2363:
  4498  020B  30FF               	movlw	255
  4499  020C  054E               	andwf	___flmul@grs,w
  4500  020D  00C8               	movwf	??___flmul
  4501  020E  30FF               	movlw	255
  4502  020F  054F               	andwf	___flmul@grs+1,w
  4503  0210  00C9               	movwf	??___flmul+1
  4504  0211  30FF               	movlw	255
  4505  0212  0550               	andwf	___flmul@grs+2,w
  4506  0213  00CA               	movwf	??___flmul+2
  4507  0214  307F               	movlw	127
  4508  0215  0551               	andwf	___flmul@grs+3,w
  4509  0216  00CB               	movwf	??___flmul+3
  4510  0217  084B               	movf	??___flmul+3,w
  4511  0218  044A               	iorwf	??___flmul+2,w
  4512  0219  0449               	iorwf	??___flmul+1,w
  4513  021A  0448               	iorwf	??___flmul,w
  4514  021B  1903               	skipnz
  4515  021C  2A1E               	goto	u2171
  4516  021D  2A1F               	goto	u2170
  4517  021E                     u2171:
  4518  021E  2A22               	goto	l870
  4519  021F                     u2170:
  4520  021F                     l2365:
  4521  021F  01D2               	clrf	___flmul@aexp
  4522  0220  0AD2               	incf	___flmul@aexp,f
  4523  0221  2A27               	goto	l2369
  4524  0222                     l870:
  4525  0222  1C54               	btfss	___flmul@prod,0
  4526  0223  2A25               	goto	u2181
  4527  0224  2A26               	goto	u2180
  4528  0225                     u2181:
  4529  0225  2A27               	goto	l2369
  4530  0226                     u2180:
  4531  0226  2A1F               	goto	l2365
  4532  0227                     l2369:
  4533  0227  0852               	movf	___flmul@aexp,w
  4534  0228  1903               	btfsc	3,2
  4535  0229  2A2B               	goto	u2191
  4536  022A  2A2C               	goto	u2190
  4537  022B                     u2191:
  4538  022B  2A54               	goto	l2379
  4539  022C                     u2190:
  4540  022C                     l2371:
  4541  022C  3001               	movlw	1
  4542  022D  07D4               	addwf	___flmul@prod,f
  4543  022E  3000               	movlw	0
  4544  022F  3DD5               	addwfc	___flmul@prod+1,f
  4545  0230  3000               	movlw	0
  4546  0231  3DD6               	addwfc	___flmul@prod+2,f
  4547  0232  3000               	movlw	0
  4548  0233  3DD7               	addwfc	___flmul@prod+3,f
  4549  0234                     l2373:
  4550  0234  1C57               	btfss	___flmul@prod+3,0
  4551  0235  2A37               	goto	u2201
  4552  0236  2A38               	goto	u2200
  4553  0237                     u2201:
  4554  0237  2A54               	goto	l2379
  4555  0238                     u2200:
  4556  0238                     l2375:
  4557  0238  0854               	movf	___flmul@prod,w
  4558  0239  00C8               	movwf	??___flmul
  4559  023A  0855               	movf	___flmul@prod+1,w
  4560  023B  00C9               	movwf	??___flmul+1
  4561  023C  0856               	movf	___flmul@prod+2,w
  4562  023D  00CA               	movwf	??___flmul+2
  4563  023E  0857               	movf	___flmul@prod+3,w
  4564  023F  00CB               	movwf	??___flmul+3
  4565  0240  3001               	movlw	1
  4566  0241  00CC               	movwf	??___flmul+4
  4567  0242                     u2215:
  4568  0242  37CB               	asrf	??___flmul+3,f
  4569  0243  0CCA               	rrf	??___flmul+2,f
  4570  0244  0CC9               	rrf	??___flmul+1,f
  4571  0245  0CC8               	rrf	??___flmul,f
  4572  0246                     u2210:
  4573  0246  0BCC               	decfsz	??___flmul+4,f
  4574  0247  2A42               	goto	u2215
  4575  0248  084B               	movf	??___flmul+3,w
  4576  0249  00D7               	movwf	___flmul@prod+3
  4577  024A  084A               	movf	??___flmul+2,w
  4578  024B  00D6               	movwf	___flmul@prod+2
  4579  024C  0849               	movf	??___flmul+1,w
  4580  024D  00D5               	movwf	___flmul@prod+1
  4581  024E  0848               	movf	??___flmul,w
  4582  024F  00D4               	movwf	___flmul@prod
  4583  0250                     l2377:
  4584  0250  3001               	movlw	1
  4585  0251  07D8               	addwf	___flmul@temp,f
  4586  0252  3000               	movlw	0
  4587  0253  3DD9               	addwfc	___flmul@temp+1,f
  4588  0254                     l2379:
  4589  0254  0859               	movf	___flmul@temp+1,w
  4590  0255  3A80               	xorlw	128
  4591  0256  00C8               	movwf	??___flmul
  4592  0257  3080               	movlw	128
  4593  0258  0248               	subwf	??___flmul,w
  4594  0259  1D03               	skipz
  4595  025A  2A5D               	goto	u2225
  4596  025B  30FF               	movlw	255
  4597  025C  0258               	subwf	___flmul@temp,w
  4598  025D                     u2225:
  4599  025D  1C03               	skipc
  4600  025E  2A60               	goto	u2221
  4601  025F  2A61               	goto	u2220
  4602  0260                     u2221:
  4603  0260  2A6B               	goto	l2383
  4604  0261                     u2220:
  4605  0261                     l2381:
  4606  0261  307F               	movlw	127
  4607  0262  0020               	movlb	0	; select bank0
  4608  0263  00D7               	movwf	___flmul@prod+3
  4609  0264  3080               	movlw	128
  4610  0265  00D6               	movwf	___flmul@prod+2
  4611  0266  3000               	movlw	0
  4612  0267  00D5               	movwf	___flmul@prod+1
  4613  0268  3000               	movlw	0
  4614  0269  00D4               	movwf	___flmul@prod
  4615  026A  2A9A               	goto	l876
  4616  026B                     l2383:
  4617  026B  0020               	movlb	0	; select bank0
  4618  026C  0859               	movf	___flmul@temp+1,w
  4619  026D  3A80               	xorlw	128
  4620  026E  00C8               	movwf	??___flmul
  4621  026F  3080               	movlw	128
  4622  0270  0248               	subwf	??___flmul,w
  4623  0271  1D03               	skipz
  4624  0272  2A75               	goto	u2235
  4625  0273  3001               	movlw	1
  4626  0274  0258               	subwf	___flmul@temp,w
  4627  0275                     u2235:
  4628  0275  1803               	skipnc
  4629  0276  2A78               	goto	u2231
  4630  0277  2A79               	goto	u2230
  4631  0278                     u2231:
  4632  0278  2A84               	goto	l2389
  4633  0279                     u2230:
  4634  0279                     l2385:
  4635  0279  3000               	movlw	0
  4636  027A  0020               	movlb	0	; select bank0
  4637  027B  00D7               	movwf	___flmul@prod+3
  4638  027C  3000               	movlw	0
  4639  027D  00D6               	movwf	___flmul@prod+2
  4640  027E  3000               	movlw	0
  4641  027F  00D5               	movwf	___flmul@prod+1
  4642  0280  3000               	movlw	0
  4643  0281  00D4               	movwf	___flmul@prod
  4644  0282                     l2387:
  4645  0282  01CD               	clrf	___flmul@sign
  4646  0283  2A9A               	goto	l876
  4647  0284                     l2389:
  4648  0284  0020               	movlb	0	; select bank0
  4649  0285  0858               	movf	___flmul@temp,w
  4650  0286  00C8               	movwf	??___flmul
  4651  0287  0848               	movf	??___flmul,w
  4652  0288  00D3               	movwf	___flmul@bexp
  4653  0289  30FF               	movlw	255
  4654  028A  05D4               	andwf	___flmul@prod,f
  4655  028B  30FF               	movlw	255
  4656  028C  05D5               	andwf	___flmul@prod+1,f
  4657  028D  307F               	movlw	127
  4658  028E  05D6               	andwf	___flmul@prod+2,f
  4659  028F  3000               	movlw	0
  4660  0290  05D7               	andwf	___flmul@prod+3,f
  4661  0291                     l2391:
  4662  0291  1C53               	btfss	___flmul@bexp,0
  4663  0292  2A94               	goto	u2241
  4664  0293  2A95               	goto	u2240
  4665  0294                     u2241:
  4666  0294  2A96               	goto	l2395
  4667  0295                     u2240:
  4668  0295                     l2393:
  4669  0295  17D6               	bsf	___flmul@prod+2,7
  4670  0296                     l2395:
  4671  0296  3653               	lsrf	___flmul@bexp,w
  4672  0297  00C8               	movwf	??___flmul
  4673  0298  0848               	movf	??___flmul,w
  4674  0299  00D7               	movwf	___flmul@prod+3
  4675  029A                     l876:
  4676  029A  084D               	movf	___flmul@sign,w
  4677  029B  00C8               	movwf	??___flmul
  4678  029C  0848               	movf	??___flmul,w
  4679  029D  04D7               	iorwf	___flmul@prod+3,f
  4680  029E                     l2397:
  4681  029E  0857               	movf	___flmul@prod+3,w
  4682  029F  00C3               	movwf	?___flmul+3
  4683  02A0  0856               	movf	___flmul@prod+2,w
  4684  02A1  00C2               	movwf	?___flmul+2
  4685  02A2  0855               	movf	___flmul@prod+1,w
  4686  02A3  00C1               	movwf	?___flmul+1
  4687  02A4  0854               	movf	___flmul@prod,w
  4688  02A5  00C0               	movwf	?___flmul
  4689  02A6                     l864:
  4690  02A6  0008               	return
  4691  02A7                     __end_of___flmul:
  4692                           
  4693                           	psect	text9
  4694  0FDD                     __ptext9:	
  4695 ;; *************** function __Umul8_16 *****************
  4696 ;; Defined at:
  4697 ;;		line 4 in file "C:\Program Files\Microchip\xc8\v2.31\pic\sources\c90\common\Umul8_16.c"
  4698 ;; Parameters:    Size  Location     Type
  4699 ;;  multiplier      1    wreg     unsigned char 
  4700 ;;  multiplicand    1    1[COMMON] unsigned char 
  4701 ;; Auto vars:     Size  Location     Type
  4702 ;;  multiplier      1    9[COMMON] unsigned char 
  4703 ;;  word_mpld       2    7[COMMON] unsigned int 
  4704 ;;  product         2    5[COMMON] unsigned int 
  4705 ;; Return value:  Size  Location     Type
  4706 ;;                  2    1[COMMON] unsigned int 
  4707 ;; Registers used:
  4708 ;;		wreg, status,2, status,0
  4709 ;; Tracked objects:
  4710 ;;		On entry : 0/0
  4711 ;;		On exit  : 0/0
  4712 ;;		Unchanged: 0/0
  4713 ;; Data sizes:     COMMON   BANK0   BANK1   BANK2   BANK3   BANK4   BANK5   BANK6   BANK7   BANK8   BANK9  BANK10  BANK1
      +1  BANK12
  4714 ;;      Params:         2       0       0       0       0       0       0       0       0       0       0       0       
      +0       0
  4715 ;;      Locals:         5       0       0       0       0       0       0       0       0       0       0       0       
      +0       0
  4716 ;;      Temps:          2       0       0       0       0       0       0       0       0       0       0       0       
      +0       0
  4717 ;;      Totals:         9       0       0       0       0       0       0       0       0       0       0       0       
      +0       0
  4718 ;;Total ram usage:        9 bytes
  4719 ;; Hardware stack levels used:    1
  4720 ;; Hardware stack levels required when called:    4
  4721 ;; This function calls:
  4722 ;;		Nothing
  4723 ;; This function is called by:
  4724 ;;		___flmul
  4725 ;; This function uses a non-reentrant model
  4726 ;;
  4727                           
  4728                           
  4729                           ;psect for function __Umul8_16
  4730  0FDD                     __Umul8_16:
  4731                           
  4732                           ;incstack = 0
  4733                           ; Regs used in __Umul8_16: [wreg+status,2+status,0]
  4734                           ;__Umul8_16@multiplier stored from wreg
  4735  0FDD  00F9               	movwf	__Umul8_16@multiplier
  4736  0FDE                     l1951:
  4737  0FDE  01F5               	clrf	__Umul8_16@product
  4738  0FDF  01F6               	clrf	__Umul8_16@product+1
  4739  0FE0                     l1953:
  4740  0FE0  0871               	movf	__Umul8_16@multiplicand,w
  4741  0FE1  00F3               	movwf	??__Umul8_16
  4742  0FE2  01F4               	clrf	??__Umul8_16+1
  4743  0FE3  0873               	movf	??__Umul8_16,w
  4744  0FE4  00F7               	movwf	__Umul8_16@word_mpld
  4745  0FE5  0874               	movf	??__Umul8_16+1,w
  4746  0FE6  00F8               	movwf	__Umul8_16@word_mpld+1
  4747  0FE7                     l1955:
  4748  0FE7  1C79               	btfss	__Umul8_16@multiplier,0
  4749  0FE8  2FEA               	goto	u1421
  4750  0FE9  2FEB               	goto	u1420
  4751  0FEA                     u1421:
  4752  0FEA  2FEF               	goto	l883
  4753  0FEB                     u1420:
  4754  0FEB                     l1957:
  4755  0FEB  0877               	movf	__Umul8_16@word_mpld,w
  4756  0FEC  07F5               	addwf	__Umul8_16@product,f
  4757  0FED  0878               	movf	__Umul8_16@word_mpld+1,w
  4758  0FEE  3DF6               	addwfc	__Umul8_16@product+1,f
  4759  0FEF                     l883:
  4760  0FEF  3001               	movlw	1
  4761  0FF0                     u1435:
  4762  0FF0  35F7               	lslf	__Umul8_16@word_mpld,f
  4763  0FF1  0DF8               	rlf	__Umul8_16@word_mpld+1,f
  4764  0FF2  0B89               	decfsz	9,f
  4765  0FF3  2FF0               	goto	u1435
  4766  0FF4  1003               	clrc
  4767  0FF5  0CF9               	rrf	__Umul8_16@multiplier,f
  4768  0FF6                     l1959:
  4769  0FF6  0879               	movf	__Umul8_16@multiplier,w
  4770  0FF7  1D03               	btfss	3,2
  4771  0FF8  2FFA               	goto	u1441
  4772  0FF9  2FFB               	goto	u1440
  4773  0FFA                     u1441:
  4774  0FFA  2FE7               	goto	l1955
  4775  0FFB                     u1440:
  4776  0FFB                     l1961:
  4777  0FFB  0876               	movf	__Umul8_16@product+1,w
  4778  0FFC  00F2               	movwf	?__Umul8_16+1
  4779  0FFD  0875               	movf	__Umul8_16@product,w
  4780  0FFE  00F1               	movwf	?__Umul8_16
  4781  0FFF                     l885:
  4782  0FFF  0008               	return
  4783  1000                     __end_of__Umul8_16:
  4784                           
  4785                           	psect	text10
  4786  02A7                     __ptext10:	
  4787 ;; *************** function ___fldiv *****************
  4788 ;; Defined at:
  4789 ;;		line 8 in file "C:\Program Files\Microchip\xc8\v2.31\pic\sources\c90\common\sprcdiv.c"
  4790 ;; Parameters:    Size  Location     Type
  4791 ;;  a               4    6[BANK0 ] unsigned int 
  4792 ;;  b               4   10[BANK0 ] unsigned int 
  4793 ;; Auto vars:     Size  Location     Type
  4794 ;;  grs             4   26[BANK0 ] unsigned long 
  4795 ;;  rem             4   19[BANK0 ] unsigned long 
  4796 ;;  new_exp         2   24[BANK0 ] int 
  4797 ;;  aexp            1   31[BANK0 ] unsigned char 
  4798 ;;  bexp            1   30[BANK0 ] unsigned char 
  4799 ;;  sign            1   23[BANK0 ] unsigned char 
  4800 ;; Return value:  Size  Location     Type
  4801 ;;                  4    6[BANK0 ] unsigned char 
  4802 ;; Registers used:
  4803 ;;		wreg, status,2, status,0
  4804 ;; Tracked objects:
  4805 ;;		On entry : 0/0
  4806 ;;		On exit  : 0/0
  4807 ;;		Unchanged: 0/0
  4808 ;; Data sizes:     COMMON   BANK0   BANK1   BANK2   BANK3   BANK4   BANK5   BANK6   BANK7   BANK8   BANK9  BANK10  BANK1
      +1  BANK12
  4809 ;;      Params:         0       8       0       0       0       0       0       0       0       0       0       0       
      +0       0
  4810 ;;      Locals:         0      13       0       0       0       0       0       0       0       0       0       0       
      +0       0
  4811 ;;      Temps:          0       5       0       0       0       0       0       0       0       0       0       0       
      +0       0
  4812 ;;      Totals:         0      26       0       0       0       0       0       0       0       0       0       0       
      +0       0
  4813 ;;Total ram usage:       26 bytes
  4814 ;; Hardware stack levels used:    1
  4815 ;; Hardware stack levels required when called:    4
  4816 ;; This function calls:
  4817 ;;		Nothing
  4818 ;; This function is called by:
  4819 ;;		_main
  4820 ;; This function uses a non-reentrant model
  4821 ;;
  4822                           
  4823                           
  4824                           ;psect for function ___fldiv
  4825  02A7                     ___fldiv:
  4826  02A7                     l2121:	
  4827                           ;incstack = 0
  4828                           ; Regs used in ___fldiv: [wreg+status,2+status,0]
  4829                           
  4830  02A7  0020               	movlb	0	; select bank0
  4831  02A8  082D               	movf	___fldiv@b+3,w
  4832  02A9  3980               	andlw	128
  4833  02AA  00AE               	movwf	??___fldiv
  4834  02AB  082E               	movf	??___fldiv,w
  4835  02AC  00B7               	movwf	___fldiv@sign
  4836  02AD                     l2123:
  4837  02AD  352D               	lslf	___fldiv@b+3,w
  4838  02AE  00AE               	movwf	??___fldiv
  4839  02AF  082E               	movf	??___fldiv,w
  4840  02B0  00BE               	movwf	___fldiv@bexp
  4841  02B1                     l2125:
  4842  02B1  1FAC               	btfss	___fldiv@b+2,7
  4843  02B2  2AB4               	goto	u1701
  4844  02B3  2AB5               	goto	u1700
  4845  02B4                     u1701:
  4846  02B4  2AB6               	goto	l2129
  4847  02B5                     u1700:
  4848  02B5                     l2127:
  4849  02B5  143E               	bsf	___fldiv@bexp,0
  4850  02B6                     l2129:
  4851  02B6  083E               	movf	___fldiv@bexp,w
  4852  02B7  1903               	btfsc	3,2
  4853  02B8  2ABA               	goto	u1711
  4854  02B9  2ABB               	goto	u1710
  4855  02BA                     u1711:
  4856  02BA  2ACB               	goto	l2139
  4857  02BB                     u1710:
  4858  02BB                     l2131:
  4859  02BB  0A3E               	incf	___fldiv@bexp,w
  4860  02BC  1D03               	btfss	3,2
  4861  02BD  2ABF               	goto	u1721
  4862  02BE  2AC0               	goto	u1720
  4863  02BF                     u1721:
  4864  02BF  2AC8               	goto	l2135
  4865  02C0                     u1720:
  4866  02C0                     l2133:
  4867  02C0  3000               	movlw	0
  4868  02C1  00AD               	movwf	___fldiv@b+3
  4869  02C2  3000               	movlw	0
  4870  02C3  00AC               	movwf	___fldiv@b+2
  4871  02C4  3000               	movlw	0
  4872  02C5  00AB               	movwf	___fldiv@b+1
  4873  02C6  3000               	movlw	0
  4874  02C7  00AA               	movwf	___fldiv@b
  4875  02C8                     l2135:
  4876  02C8  17AC               	bsf	___fldiv@b+2,7
  4877  02C9                     l2137:
  4878  02C9  01AD               	clrf	___fldiv@b+3
  4879  02CA  2AD3               	goto	l2141
  4880  02CB                     l2139:
  4881  02CB  3000               	movlw	0
  4882  02CC  00AD               	movwf	___fldiv@b+3
  4883  02CD  3000               	movlw	0
  4884  02CE  00AC               	movwf	___fldiv@b+2
  4885  02CF  3000               	movlw	0
  4886  02D0  00AB               	movwf	___fldiv@b+1
  4887  02D1  3000               	movlw	0
  4888  02D2  00AA               	movwf	___fldiv@b
  4889  02D3                     l2141:
  4890  02D3  0829               	movf	___fldiv@a+3,w
  4891  02D4  3980               	andlw	128
  4892  02D5  00AE               	movwf	??___fldiv
  4893  02D6  082E               	movf	??___fldiv,w
  4894  02D7  06B7               	xorwf	___fldiv@sign,f
  4895  02D8                     l2143:
  4896  02D8  3529               	lslf	___fldiv@a+3,w
  4897  02D9  00AE               	movwf	??___fldiv
  4898  02DA  082E               	movf	??___fldiv,w
  4899  02DB  00BF               	movwf	___fldiv@aexp
  4900  02DC                     l2145:
  4901  02DC  1FA8               	btfss	___fldiv@a+2,7
  4902  02DD  2ADF               	goto	u1731
  4903  02DE  2AE0               	goto	u1730
  4904  02DF                     u1731:
  4905  02DF  2AE1               	goto	l2149
  4906  02E0                     u1730:
  4907  02E0                     l2147:
  4908  02E0  143F               	bsf	___fldiv@aexp,0
  4909  02E1                     l2149:
  4910  02E1  083F               	movf	___fldiv@aexp,w
  4911  02E2  1903               	btfsc	3,2
  4912  02E3  2AE5               	goto	u1741
  4913  02E4  2AE6               	goto	u1740
  4914  02E5                     u1741:
  4915  02E5  2AF6               	goto	l2159
  4916  02E6                     u1740:
  4917  02E6                     l2151:
  4918  02E6  0A3F               	incf	___fldiv@aexp,w
  4919  02E7  1D03               	btfss	3,2
  4920  02E8  2AEA               	goto	u1751
  4921  02E9  2AEB               	goto	u1750
  4922  02EA                     u1751:
  4923  02EA  2AF3               	goto	l2155
  4924  02EB                     u1750:
  4925  02EB                     l2153:
  4926  02EB  3000               	movlw	0
  4927  02EC  00A9               	movwf	___fldiv@a+3
  4928  02ED  3000               	movlw	0
  4929  02EE  00A8               	movwf	___fldiv@a+2
  4930  02EF  3000               	movlw	0
  4931  02F0  00A7               	movwf	___fldiv@a+1
  4932  02F1  3000               	movlw	0
  4933  02F2  00A6               	movwf	___fldiv@a
  4934  02F3                     l2155:
  4935  02F3  17A8               	bsf	___fldiv@a+2,7
  4936  02F4                     l2157:
  4937  02F4  01A9               	clrf	___fldiv@a+3
  4938  02F5  2AFE               	goto	l824
  4939  02F6                     l2159:
  4940  02F6  3000               	movlw	0
  4941  02F7  00A9               	movwf	___fldiv@a+3
  4942  02F8  3000               	movlw	0
  4943  02F9  00A8               	movwf	___fldiv@a+2
  4944  02FA  3000               	movlw	0
  4945  02FB  00A7               	movwf	___fldiv@a+1
  4946  02FC  3000               	movlw	0
  4947  02FD  00A6               	movwf	___fldiv@a
  4948  02FE                     l824:
  4949  02FE  0829               	movf	___fldiv@a+3,w
  4950  02FF  0428               	iorwf	___fldiv@a+2,w
  4951  0300  0427               	iorwf	___fldiv@a+1,w
  4952  0301  0426               	iorwf	___fldiv@a,w
  4953  0302  1D03               	skipz
  4954  0303  2B05               	goto	u1761
  4955  0304  2B06               	goto	u1760
  4956  0305                     u1761:
  4957  0305  2B1F               	goto	l2169
  4958  0306                     u1760:
  4959  0306                     l2161:
  4960  0306  3000               	movlw	0
  4961  0307  00AD               	movwf	___fldiv@b+3
  4962  0308  3000               	movlw	0
  4963  0309  00AC               	movwf	___fldiv@b+2
  4964  030A  3000               	movlw	0
  4965  030B  00AB               	movwf	___fldiv@b+1
  4966  030C  3000               	movlw	0
  4967  030D  00AA               	movwf	___fldiv@b
  4968  030E  3080               	movlw	128
  4969  030F  04AC               	iorwf	___fldiv@b+2,f
  4970  0310  307F               	movlw	127
  4971  0311  04AD               	iorwf	___fldiv@b+3,f
  4972  0312                     l2163:
  4973  0312  0837               	movf	___fldiv@sign,w
  4974  0313  00AE               	movwf	??___fldiv
  4975  0314  082E               	movf	??___fldiv,w
  4976  0315  04AD               	iorwf	___fldiv@b+3,f
  4977  0316                     l2165:
  4978  0316  082D               	movf	___fldiv@b+3,w
  4979  0317  00A9               	movwf	?___fldiv+3
  4980  0318  082C               	movf	___fldiv@b+2,w
  4981  0319  00A8               	movwf	?___fldiv+2
  4982  031A  082B               	movf	___fldiv@b+1,w
  4983  031B  00A7               	movwf	?___fldiv+1
  4984  031C  082A               	movf	___fldiv@b,w
  4985  031D  00A6               	movwf	?___fldiv
  4986  031E  2C5A               	goto	l826
  4987  031F                     l2169:
  4988  031F  083E               	movf	___fldiv@bexp,w
  4989  0320  1D03               	btfss	3,2
  4990  0321  2B23               	goto	u1771
  4991  0322  2B24               	goto	u1770
  4992  0323                     u1771:
  4993  0323  2B2D               	goto	l2175
  4994  0324                     u1770:
  4995  0324                     l2171:
  4996  0324  3000               	movlw	0
  4997  0325  00A9               	movwf	?___fldiv+3
  4998  0326  3000               	movlw	0
  4999  0327  00A8               	movwf	?___fldiv+2
  5000  0328  3000               	movlw	0
  5001  0329  00A7               	movwf	?___fldiv+1
  5002  032A  3000               	movlw	0
  5003  032B  00A6               	movwf	?___fldiv
  5004  032C  2C5A               	goto	l826
  5005  032D                     l2175:
  5006  032D  083E               	movf	___fldiv@bexp,w
  5007  032E  00AE               	movwf	??___fldiv
  5008  032F  01AF               	clrf	??___fldiv+1
  5009  0330  082F               	movf	??___fldiv+1,w
  5010  0331  00B1               	movwf	??___fldiv+3
  5011  0332  083F               	movf	___fldiv@aexp,w
  5012  0333  022E               	subwf	??___fldiv,w
  5013  0334  00B0               	movwf	??___fldiv+2
  5014  0335  1C03               	skipc
  5015  0336  03B1               	decf	??___fldiv+3,f
  5016  0337  0830               	movf	??___fldiv+2,w
  5017  0338  3E7F               	addlw	127
  5018  0339  00B8               	movwf	___fldiv@new_exp
  5019  033A  3000               	movlw	0
  5020  033B  3D31               	addwfc	??___fldiv+3,w
  5021  033C  00B9               	movwf	___fldiv@new_exp+1
  5022  033D                     l2177:
  5023  033D  082D               	movf	___fldiv@b+3,w
  5024  033E  00B6               	movwf	___fldiv@rem+3
  5025  033F  082C               	movf	___fldiv@b+2,w
  5026  0340  00B5               	movwf	___fldiv@rem+2
  5027  0341  082B               	movf	___fldiv@b+1,w
  5028  0342  00B4               	movwf	___fldiv@rem+1
  5029  0343  082A               	movf	___fldiv@b,w
  5030  0344  00B3               	movwf	___fldiv@rem
  5031  0345                     l2179:
  5032  0345  3000               	movlw	0
  5033  0346  00AD               	movwf	___fldiv@b+3
  5034  0347  3000               	movlw	0
  5035  0348  00AC               	movwf	___fldiv@b+2
  5036  0349  3000               	movlw	0
  5037  034A  00AB               	movwf	___fldiv@b+1
  5038  034B  3000               	movlw	0
  5039  034C  00AA               	movwf	___fldiv@b
  5040  034D                     l2181:
  5041  034D  3000               	movlw	0
  5042  034E  00BD               	movwf	___fldiv@grs+3
  5043  034F  3000               	movlw	0
  5044  0350  00BC               	movwf	___fldiv@grs+2
  5045  0351  3000               	movlw	0
  5046  0352  00BB               	movwf	___fldiv@grs+1
  5047  0353  3000               	movlw	0
  5048  0354  00BA               	movwf	___fldiv@grs
  5049  0355                     l2183:
  5050  0355  01BF               	clrf	___fldiv@aexp
  5051  0356  2B95               	goto	l2203
  5052  0357                     l2185:
  5053  0357  083F               	movf	___fldiv@aexp,w
  5054  0358  1903               	btfsc	3,2
  5055  0359  2B5B               	goto	u1781
  5056  035A  2B5C               	goto	u1780
  5057  035B                     u1781:
  5058  035B  2B76               	goto	l2195
  5059  035C                     u1780:
  5060  035C                     l2187:
  5061  035C  3001               	movlw	1
  5062  035D                     u1795:
  5063  035D  35B3               	lslf	___fldiv@rem,f
  5064  035E  0DB4               	rlf	___fldiv@rem+1,f
  5065  035F  0DB5               	rlf	___fldiv@rem+2,f
  5066  0360  0DB6               	rlf	___fldiv@rem+3,f
  5067  0361  0B89               	decfsz	9,f
  5068  0362  2B5D               	goto	u1795
  5069  0363  3001               	movlw	1
  5070  0364                     u1805:
  5071  0364  35AA               	lslf	___fldiv@b,f
  5072  0365  0DAB               	rlf	___fldiv@b+1,f
  5073  0366  0DAC               	rlf	___fldiv@b+2,f
  5074  0367  0DAD               	rlf	___fldiv@b+3,f
  5075  0368  0B89               	decfsz	9,f
  5076  0369  2B64               	goto	u1805
  5077  036A                     l2189:
  5078  036A  1FBD               	btfss	___fldiv@grs+3,7
  5079  036B  2B6D               	goto	u1811
  5080  036C  2B6E               	goto	u1810
  5081  036D                     u1811:
  5082  036D  2B6F               	goto	l2193
  5083  036E                     u1810:
  5084  036E                     l2191:
  5085  036E  142A               	bsf	___fldiv@b,0
  5086  036F                     l2193:
  5087  036F  3001               	movlw	1
  5088  0370                     u1825:
  5089  0370  35BA               	lslf	___fldiv@grs,f
  5090  0371  0DBB               	rlf	___fldiv@grs+1,f
  5091  0372  0DBC               	rlf	___fldiv@grs+2,f
  5092  0373  0DBD               	rlf	___fldiv@grs+3,f
  5093  0374  0B89               	decfsz	9,f
  5094  0375  2B70               	goto	u1825
  5095  0376                     l2195:
  5096  0376  0829               	movf	___fldiv@a+3,w
  5097  0377  0236               	subwf	___fldiv@rem+3,w
  5098  0378  1D03               	skipz
  5099  0379  2B84               	goto	u1835
  5100  037A  0828               	movf	___fldiv@a+2,w
  5101  037B  0235               	subwf	___fldiv@rem+2,w
  5102  037C  1D03               	skipz
  5103  037D  2B84               	goto	u1835
  5104  037E  0827               	movf	___fldiv@a+1,w
  5105  037F  0234               	subwf	___fldiv@rem+1,w
  5106  0380  1D03               	skipz
  5107  0381  2B84               	goto	u1835
  5108  0382  0826               	movf	___fldiv@a,w
  5109  0383  0233               	subwf	___fldiv@rem,w
  5110  0384                     u1835:
  5111  0384  1C03               	skipc
  5112  0385  2B87               	goto	u1831
  5113  0386  2B88               	goto	u1830
  5114  0387                     u1831:
  5115  0387  2B91               	goto	l2201
  5116  0388                     u1830:
  5117  0388                     l2197:
  5118  0388  173D               	bsf	___fldiv@grs+3,6
  5119  0389                     l2199:
  5120  0389  0826               	movf	___fldiv@a,w
  5121  038A  02B3               	subwf	___fldiv@rem,f
  5122  038B  0827               	movf	___fldiv@a+1,w
  5123  038C  3BB4               	subwfb	___fldiv@rem+1,f
  5124  038D  0828               	movf	___fldiv@a+2,w
  5125  038E  3BB5               	subwfb	___fldiv@rem+2,f
  5126  038F  0829               	movf	___fldiv@a+3,w
  5127  0390  3BB6               	subwfb	___fldiv@rem+3,f
  5128  0391                     l2201:
  5129  0391  3001               	movlw	1
  5130  0392  00AE               	movwf	??___fldiv
  5131  0393  082E               	movf	??___fldiv,w
  5132  0394  07BF               	addwf	___fldiv@aexp,f
  5133  0395                     l2203:
  5134  0395  301A               	movlw	26
  5135  0396  023F               	subwf	___fldiv@aexp,w
  5136  0397  1C03               	skipc
  5137  0398  2B9A               	goto	u1841
  5138  0399  2B9B               	goto	u1840
  5139  039A                     u1841:
  5140  039A  2B57               	goto	l2185
  5141  039B                     u1840:
  5142  039B                     l2205:
  5143  039B  0836               	movf	___fldiv@rem+3,w
  5144  039C  0435               	iorwf	___fldiv@rem+2,w
  5145  039D  0434               	iorwf	___fldiv@rem+1,w
  5146  039E  0433               	iorwf	___fldiv@rem,w
  5147  039F  1903               	skipnz
  5148  03A0  2BA2               	goto	u1851
  5149  03A1  2BA3               	goto	u1850
  5150  03A2                     u1851:
  5151  03A2  2BBC               	goto	l2219
  5152  03A3                     u1850:
  5153  03A3                     l2207:
  5154  03A3  143A               	bsf	___fldiv@grs,0
  5155  03A4  2BBC               	goto	l2219
  5156  03A5                     l2209:
  5157  03A5  3001               	movlw	1
  5158  03A6                     u1865:
  5159  03A6  35AA               	lslf	___fldiv@b,f
  5160  03A7  0DAB               	rlf	___fldiv@b+1,f
  5161  03A8  0DAC               	rlf	___fldiv@b+2,f
  5162  03A9  0DAD               	rlf	___fldiv@b+3,f
  5163  03AA  0B89               	decfsz	9,f
  5164  03AB  2BA6               	goto	u1865
  5165  03AC                     l2211:
  5166  03AC  1FBD               	btfss	___fldiv@grs+3,7
  5167  03AD  2BAF               	goto	u1871
  5168  03AE  2BB0               	goto	u1870
  5169  03AF                     u1871:
  5170  03AF  2BB1               	goto	l2215
  5171  03B0                     u1870:
  5172  03B0                     l2213:
  5173  03B0  142A               	bsf	___fldiv@b,0
  5174  03B1                     l2215:
  5175  03B1  3001               	movlw	1
  5176  03B2                     u1885:
  5177  03B2  35BA               	lslf	___fldiv@grs,f
  5178  03B3  0DBB               	rlf	___fldiv@grs+1,f
  5179  03B4  0DBC               	rlf	___fldiv@grs+2,f
  5180  03B5  0DBD               	rlf	___fldiv@grs+3,f
  5181  03B6  0B89               	decfsz	9,f
  5182  03B7  2BB2               	goto	u1885
  5183  03B8                     l2217:
  5184  03B8  30FF               	movlw	255
  5185  03B9  07B8               	addwf	___fldiv@new_exp,f
  5186  03BA  30FF               	movlw	255
  5187  03BB  3DB9               	addwfc	___fldiv@new_exp+1,f
  5188  03BC                     l2219:
  5189  03BC  1FAC               	btfss	___fldiv@b+2,7
  5190  03BD  2BBF               	goto	u1891
  5191  03BE  2BC0               	goto	u1890
  5192  03BF                     u1891:
  5193  03BF  2BA5               	goto	l2209
  5194  03C0                     u1890:
  5195  03C0                     l2221:
  5196  03C0  01BF               	clrf	___fldiv@aexp
  5197  03C1                     l2223:
  5198  03C1  1FBD               	btfss	___fldiv@grs+3,7
  5199  03C2  2BC4               	goto	u1901
  5200  03C3  2BC5               	goto	u1900
  5201  03C4                     u1901:
  5202  03C4  2BE1               	goto	l2231
  5203  03C5                     u1900:
  5204  03C5                     l2225:
  5205  03C5  30FF               	movlw	255
  5206  03C6  053A               	andwf	___fldiv@grs,w
  5207  03C7  00AE               	movwf	??___fldiv
  5208  03C8  30FF               	movlw	255
  5209  03C9  053B               	andwf	___fldiv@grs+1,w
  5210  03CA  00AF               	movwf	??___fldiv+1
  5211  03CB  30FF               	movlw	255
  5212  03CC  053C               	andwf	___fldiv@grs+2,w
  5213  03CD  00B0               	movwf	??___fldiv+2
  5214  03CE  307F               	movlw	127
  5215  03CF  053D               	andwf	___fldiv@grs+3,w
  5216  03D0  00B1               	movwf	??___fldiv+3
  5217  03D1  0831               	movf	??___fldiv+3,w
  5218  03D2  0430               	iorwf	??___fldiv+2,w
  5219  03D3  042F               	iorwf	??___fldiv+1,w
  5220  03D4  042E               	iorwf	??___fldiv,w
  5221  03D5  1903               	skipnz
  5222  03D6  2BD8               	goto	u1911
  5223  03D7  2BD9               	goto	u1910
  5224  03D8                     u1911:
  5225  03D8  2BDC               	goto	l840
  5226  03D9                     u1910:
  5227  03D9                     l2227:
  5228  03D9  01BF               	clrf	___fldiv@aexp
  5229  03DA  0ABF               	incf	___fldiv@aexp,f
  5230  03DB  2BE1               	goto	l2231
  5231  03DC                     l840:
  5232  03DC  1C2A               	btfss	___fldiv@b,0
  5233  03DD  2BDF               	goto	u1921
  5234  03DE  2BE0               	goto	u1920
  5235  03DF                     u1921:
  5236  03DF  2BE1               	goto	l2231
  5237  03E0                     u1920:
  5238  03E0  2BD9               	goto	l2227
  5239  03E1                     l2231:
  5240  03E1  083F               	movf	___fldiv@aexp,w
  5241  03E2  1903               	btfsc	3,2
  5242  03E3  2BE5               	goto	u1931
  5243  03E4  2BE6               	goto	u1930
  5244  03E5                     u1931:
  5245  03E5  2C0E               	goto	l2241
  5246  03E6                     u1930:
  5247  03E6                     l2233:
  5248  03E6  3001               	movlw	1
  5249  03E7  07AA               	addwf	___fldiv@b,f
  5250  03E8  3000               	movlw	0
  5251  03E9  3DAB               	addwfc	___fldiv@b+1,f
  5252  03EA  3000               	movlw	0
  5253  03EB  3DAC               	addwfc	___fldiv@b+2,f
  5254  03EC  3000               	movlw	0
  5255  03ED  3DAD               	addwfc	___fldiv@b+3,f
  5256  03EE                     l2235:
  5257  03EE  1C2D               	btfss	___fldiv@b+3,0
  5258  03EF  2BF1               	goto	u1941
  5259  03F0  2BF2               	goto	u1940
  5260  03F1                     u1941:
  5261  03F1  2C0E               	goto	l2241
  5262  03F2                     u1940:
  5263  03F2                     l2237:
  5264  03F2  082A               	movf	___fldiv@b,w
  5265  03F3  00AE               	movwf	??___fldiv
  5266  03F4  082B               	movf	___fldiv@b+1,w
  5267  03F5  00AF               	movwf	??___fldiv+1
  5268  03F6  082C               	movf	___fldiv@b+2,w
  5269  03F7  00B0               	movwf	??___fldiv+2
  5270  03F8  082D               	movf	___fldiv@b+3,w
  5271  03F9  00B1               	movwf	??___fldiv+3
  5272  03FA  3001               	movlw	1
  5273  03FB  00B2               	movwf	??___fldiv+4
  5274  03FC                     u1955:
  5275  03FC  37B1               	asrf	??___fldiv+3,f
  5276  03FD  0CB0               	rrf	??___fldiv+2,f
  5277  03FE  0CAF               	rrf	??___fldiv+1,f
  5278  03FF  0CAE               	rrf	??___fldiv,f
  5279  0400                     u1950:
  5280  0400  0BB2               	decfsz	??___fldiv+4,f
  5281  0401  2BFC               	goto	u1955
  5282  0402  0831               	movf	??___fldiv+3,w
  5283  0403  00AD               	movwf	___fldiv@b+3
  5284  0404  0830               	movf	??___fldiv+2,w
  5285  0405  00AC               	movwf	___fldiv@b+2
  5286  0406  082F               	movf	??___fldiv+1,w
  5287  0407  00AB               	movwf	___fldiv@b+1
  5288  0408  082E               	movf	??___fldiv,w
  5289  0409  00AA               	movwf	___fldiv@b
  5290  040A                     l2239:
  5291  040A  3001               	movlw	1
  5292  040B  07B8               	addwf	___fldiv@new_exp,f
  5293  040C  3000               	movlw	0
  5294  040D  3DB9               	addwfc	___fldiv@new_exp+1,f
  5295  040E                     l2241:
  5296  040E  0839               	movf	___fldiv@new_exp+1,w
  5297  040F  3A80               	xorlw	128
  5298  0410  00AE               	movwf	??___fldiv
  5299  0411  3080               	movlw	128
  5300  0412  022E               	subwf	??___fldiv,w
  5301  0413  1D03               	skipz
  5302  0414  2C17               	goto	u1965
  5303  0415  30FF               	movlw	255
  5304  0416  0238               	subwf	___fldiv@new_exp,w
  5305  0417                     u1965:
  5306  0417  1C03               	skipc
  5307  0418  2C1A               	goto	u1961
  5308  0419  2C1B               	goto	u1960
  5309  041A                     u1961:
  5310  041A  2C28               	goto	l845
  5311  041B                     u1960:
  5312  041B                     l2243:
  5313  041B  30FF               	movlw	255
  5314  041C  0020               	movlb	0	; select bank0
  5315  041D  00B8               	movwf	___fldiv@new_exp
  5316  041E  3000               	movlw	0
  5317  041F  00B9               	movwf	___fldiv@new_exp+1
  5318  0420  3000               	movlw	0
  5319  0421  00AD               	movwf	___fldiv@b+3
  5320  0422  3000               	movlw	0
  5321  0423  00AC               	movwf	___fldiv@b+2
  5322  0424  3000               	movlw	0
  5323  0425  00AB               	movwf	___fldiv@b+1
  5324  0426  3000               	movlw	0
  5325  0427  00AA               	movwf	___fldiv@b
  5326  0428                     l845:
  5327  0428  0020               	movlb	0	; select bank0
  5328  0429  0839               	movf	___fldiv@new_exp+1,w
  5329  042A  3A80               	xorlw	128
  5330  042B  00AE               	movwf	??___fldiv
  5331  042C  3080               	movlw	128
  5332  042D  022E               	subwf	??___fldiv,w
  5333  042E  1D03               	skipz
  5334  042F  2C32               	goto	u1975
  5335  0430  3001               	movlw	1
  5336  0431  0238               	subwf	___fldiv@new_exp,w
  5337  0432                     u1975:
  5338  0432  1803               	skipnc
  5339  0433  2C35               	goto	u1971
  5340  0434  2C36               	goto	u1970
  5341  0435                     u1971:
  5342  0435  2C42               	goto	l846
  5343  0436                     u1970:
  5344  0436                     l2245:
  5345  0436  0020               	movlb	0	; select bank0
  5346  0437  01B8               	clrf	___fldiv@new_exp
  5347  0438  01B9               	clrf	___fldiv@new_exp+1
  5348  0439                     l2247:
  5349  0439  3000               	movlw	0
  5350  043A  00AD               	movwf	___fldiv@b+3
  5351  043B  3000               	movlw	0
  5352  043C  00AC               	movwf	___fldiv@b+2
  5353  043D  3000               	movlw	0
  5354  043E  00AB               	movwf	___fldiv@b+1
  5355  043F  3000               	movlw	0
  5356  0440  00AA               	movwf	___fldiv@b
  5357  0441                     l2249:
  5358  0441  01B7               	clrf	___fldiv@sign
  5359  0442                     l846:
  5360  0442  0020               	movlb	0	; select bank0
  5361  0443  0838               	movf	___fldiv@new_exp,w
  5362  0444  00AE               	movwf	??___fldiv
  5363  0445  082E               	movf	??___fldiv,w
  5364  0446  00BE               	movwf	___fldiv@bexp
  5365  0447                     l2251:
  5366  0447  1C3E               	btfss	___fldiv@bexp,0
  5367  0448  2C4A               	goto	u1981
  5368  0449  2C4B               	goto	u1980
  5369  044A                     u1981:
  5370  044A  2C4D               	goto	l2255
  5371  044B                     u1980:
  5372  044B                     l2253:
  5373  044B  17AC               	bsf	___fldiv@b+2,7
  5374  044C  2C51               	goto	l848
  5375  044D                     l2255:
  5376  044D  307F               	movlw	127
  5377  044E  00AE               	movwf	??___fldiv
  5378  044F  082E               	movf	??___fldiv,w
  5379  0450  05AC               	andwf	___fldiv@b+2,f
  5380  0451                     l848:
  5381  0451  363E               	lsrf	___fldiv@bexp,w
  5382  0452  00AE               	movwf	??___fldiv
  5383  0453  082E               	movf	??___fldiv,w
  5384  0454  00AD               	movwf	___fldiv@b+3
  5385  0455  0837               	movf	___fldiv@sign,w
  5386  0456  00AE               	movwf	??___fldiv
  5387  0457  082E               	movf	??___fldiv,w
  5388  0458  04AD               	iorwf	___fldiv@b+3,f
  5389  0459  2B16               	goto	l2165
  5390  045A                     l826:
  5391  045A  0008               	return
  5392  045B                     __end_of___fldiv:
  5393                           
  5394                           	psect	text11
  5395  0F70                     __ptext11:	
  5396 ;; *************** function _SYSTEM_Initialize *****************
  5397 ;; Defined at:
  5398 ;;		line 50 in file "mcc_generated_files/mcc.c"
  5399 ;; Parameters:    Size  Location     Type
  5400 ;;		None
  5401 ;; Auto vars:     Size  Location     Type
  5402 ;;		None
  5403 ;; Return value:  Size  Location     Type
  5404 ;;                  1    wreg      void 
  5405 ;; Registers used:
  5406 ;;		wreg, status,2, status,0, pclath, cstack
  5407 ;; Tracked objects:
  5408 ;;		On entry : 0/0
  5409 ;;		On exit  : 0/0
  5410 ;;		Unchanged: 0/0
  5411 ;; Data sizes:     COMMON   BANK0   BANK1   BANK2   BANK3   BANK4   BANK5   BANK6   BANK7   BANK8   BANK9  BANK10  BANK1
      +1  BANK12
  5412 ;;      Params:         0       0       0       0       0       0       0       0       0       0       0       0       
      +0       0
  5413 ;;      Locals:         0       0       0       0       0       0       0       0       0       0       0       0       
      +0       0
  5414 ;;      Temps:          0       0       0       0       0       0       0       0       0       0       0       0       
      +0       0
  5415 ;;      Totals:         0       0       0       0       0       0       0       0       0       0       0       0       
      +0       0
  5416 ;;Total ram usage:        0 bytes
  5417 ;; Hardware stack levels used:    1
  5418 ;; Hardware stack levels required when called:    6
  5419 ;; This function calls:
  5420 ;;		_ADC_Initialize
  5421 ;;		_EUSART_Initialize
  5422 ;;		_OSCILLATOR_Initialize
  5423 ;;		_PIN_MANAGER_Initialize
  5424 ;;		_PWM1_Initialize
  5425 ;;		_TMR2_Initialize
  5426 ;;		_WDT_Initialize
  5427 ;; This function is called by:
  5428 ;;		_main
  5429 ;; This function uses a non-reentrant model
  5430 ;;
  5431                           
  5432                           
  5433                           ;psect for function _SYSTEM_Initialize
  5434  0F70                     _SYSTEM_Initialize:
  5435  0F70                     l1969:	
  5436                           ;incstack = 0
  5437                           ; Regs used in _SYSTEM_Initialize: [wreg+status,2+status,0+pclath+cstack]
  5438                           
  5439                           
  5440                           ;mcc.c: 53: PIN_MANAGER_Initialize();
  5441  0F70  3187  27D9  318F   	fcall	_PIN_MANAGER_Initialize
  5442                           
  5443                           ;mcc.c: 54: OSCILLATOR_Initialize();
  5444  0F73  318F  2737  318F   	fcall	_OSCILLATOR_Initialize
  5445                           
  5446                           ;mcc.c: 55: WDT_Initialize();
  5447  0F76  318E  26FD  318F   	fcall	_WDT_Initialize
  5448                           
  5449                           ;mcc.c: 56: PWM1_Initialize();
  5450  0F79  318F  2748  318F   	fcall	_PWM1_Initialize
  5451                           
  5452                           ;mcc.c: 57: ADC_Initialize();
  5453  0F7C  318F  273F  318F   	fcall	_ADC_Initialize
  5454                           
  5455                           ;mcc.c: 58: TMR2_Initialize();
  5456  0F7F  318F  275E  318F   	fcall	_TMR2_Initialize
  5457                           
  5458                           ;mcc.c: 59: EUSART_Initialize();
  5459  0F82  3186  26C3  318F   	fcall	_EUSART_Initialize
  5460  0F85                     l134:
  5461  0F85  0008               	return
  5462  0F86                     __end_of_SYSTEM_Initialize:
  5463                           
  5464                           	psect	text12
  5465  0EFD                     __ptext12:	
  5466 ;; *************** function _WDT_Initialize *****************
  5467 ;; Defined at:
  5468 ;;		line 74 in file "mcc_generated_files/mcc.c"
  5469 ;; Parameters:    Size  Location     Type
  5470 ;;		None
  5471 ;; Auto vars:     Size  Location     Type
  5472 ;;		None
  5473 ;; Return value:  Size  Location     Type
  5474 ;;                  1    wreg      void 
  5475 ;; Registers used:
  5476 ;;		wreg
  5477 ;; Tracked objects:
  5478 ;;		On entry : 0/0
  5479 ;;		On exit  : 0/0
  5480 ;;		Unchanged: 0/0
  5481 ;; Data sizes:     COMMON   BANK0   BANK1   BANK2   BANK3   BANK4   BANK5   BANK6   BANK7   BANK8   BANK9  BANK10  BANK1
      +1  BANK12
  5482 ;;      Params:         0       0       0       0       0       0       0       0       0       0       0       0       
      +0       0
  5483 ;;      Locals:         0       0       0       0       0       0       0       0       0       0       0       0       
      +0       0
  5484 ;;      Temps:          0       0       0       0       0       0       0       0       0       0       0       0       
      +0       0
  5485 ;;      Totals:         0       0       0       0       0       0       0       0       0       0       0       0       
      +0       0
  5486 ;;Total ram usage:        0 bytes
  5487 ;; Hardware stack levels used:    1
  5488 ;; Hardware stack levels required when called:    4
  5489 ;; This function calls:
  5490 ;;		Nothing
  5491 ;; This function is called by:
  5492 ;;		_SYSTEM_Initialize
  5493 ;; This function uses a non-reentrant model
  5494 ;;
  5495                           
  5496                           
  5497                           ;psect for function _WDT_Initialize
  5498  0EFD                     _WDT_Initialize:
  5499  0EFD                     l1853:	
  5500                           ;incstack = 0
  5501                           ; Regs used in _WDT_Initialize: [wreg]
  5502                           
  5503                           
  5504                           ;mcc.c: 77: WDTCON = 0x16;
  5505  0EFD  3016               	movlw	22
  5506  0EFE  0021               	movlb	1	; select bank1
  5507  0EFF  0097               	movwf	23	;volatile
  5508  0F00                     l140:
  5509  0F00  0008               	return
  5510  0F01                     __end_of_WDT_Initialize:
  5511                           
  5512                           	psect	text13
  5513  0F5E                     __ptext13:	
  5514 ;; *************** function _TMR2_Initialize *****************
  5515 ;; Defined at:
  5516 ;;		line 64 in file "mcc_generated_files/tmr2.c"
  5517 ;; Parameters:    Size  Location     Type
  5518 ;;		None
  5519 ;; Auto vars:     Size  Location     Type
  5520 ;;		None
  5521 ;; Return value:  Size  Location     Type
  5522 ;;                  1    wreg      void 
  5523 ;; Registers used:
  5524 ;;		wreg, status,2, status,0, pclath, cstack
  5525 ;; Tracked objects:
  5526 ;;		On entry : 0/0
  5527 ;;		On exit  : 0/0
  5528 ;;		Unchanged: 0/0
  5529 ;; Data sizes:     COMMON   BANK0   BANK1   BANK2   BANK3   BANK4   BANK5   BANK6   BANK7   BANK8   BANK9  BANK10  BANK1
      +1  BANK12
  5530 ;;      Params:         0       0       0       0       0       0       0       0       0       0       0       0       
      +0       0
  5531 ;;      Locals:         0       0       0       0       0       0       0       0       0       0       0       0       
      +0       0
  5532 ;;      Temps:          0       0       0       0       0       0       0       0       0       0       0       0       
      +0       0
  5533 ;;      Totals:         0       0       0       0       0       0       0       0       0       0       0       0       
      +0       0
  5534 ;;Total ram usage:        0 bytes
  5535 ;; Hardware stack levels used:    1
  5536 ;; Hardware stack levels required when called:    5
  5537 ;; This function calls:
  5538 ;;		_TMR2_SetInterruptHandler
  5539 ;; This function is called by:
  5540 ;;		_SYSTEM_Initialize
  5541 ;; This function uses a non-reentrant model
  5542 ;;
  5543                           
  5544                           
  5545                           ;psect for function _TMR2_Initialize
  5546  0F5E                     _TMR2_Initialize:
  5547  0F5E                     l1829:	
  5548                           ;incstack = 0
  5549                           ; Regs used in _TMR2_Initialize: [wreg+status,2+status,0+pclath+cstack]
  5550                           
  5551                           
  5552                           ;tmr2.c: 69: PR2 = 0x03;
  5553  0F5E  3003               	movlw	3
  5554  0F5F  0020               	movlb	0	; select bank0
  5555  0F60  009B               	movwf	27	;volatile
  5556  0F61                     l1831:
  5557                           
  5558                           ;tmr2.c: 72: TMR2 = 0x00;
  5559  0F61  019A               	clrf	26	;volatile
  5560  0F62                     l1833:
  5561                           
  5562                           ;tmr2.c: 75: PIR1bits.TMR2IF = 0;
  5563  0F62  1091               	bcf	17,1	;volatile
  5564  0F63                     l1835:
  5565                           
  5566                           ;tmr2.c: 78: PIE1bits.TMR2IE = 1;
  5567  0F63  0021               	movlb	1	; select bank1
  5568  0F64  1491               	bsf	17,1	;volatile
  5569  0F65                     l1837:
  5570                           
  5571                           ;tmr2.c: 81: TMR2_SetInterruptHandler(TMR2_DefaultInterruptHandler);
  5572  0F65  3003               	movlw	low _TMR2_DefaultInterruptHandler
  5573  0F66  00F1               	movwf	TMR2_SetInterruptHandler@InterruptHandler
  5574  0F67  3000               	movlw	high _TMR2_DefaultInterruptHandler
  5575  0F68  00F2               	movwf	TMR2_SetInterruptHandler@InterruptHandler+1
  5576  0F69  318F  2725  318F   	fcall	_TMR2_SetInterruptHandler
  5577  0F6C                     l1839:
  5578                           
  5579                           ;tmr2.c: 84: T2CON = 0x1F;
  5580  0F6C  301F               	movlw	31
  5581  0F6D  0020               	movlb	0	; select bank0
  5582  0F6E  009C               	movwf	28	;volatile
  5583  0F6F                     l79:
  5584  0F6F  0008               	return
  5585  0F70                     __end_of_TMR2_Initialize:
  5586                           
  5587                           	psect	text14
  5588  0F25                     __ptext14:	
  5589 ;; *************** function _TMR2_SetInterruptHandler *****************
  5590 ;; Defined at:
  5591 ;;		line 140 in file "mcc_generated_files/tmr2.c"
  5592 ;; Parameters:    Size  Location     Type
  5593 ;;  InterruptHan    2    1[COMMON] PTR FTN()void 
  5594 ;;		 -> TMR2_DefaultInterruptHandler(1), 
  5595 ;; Auto vars:     Size  Location     Type
  5596 ;;		None
  5597 ;; Return value:  Size  Location     Type
  5598 ;;                  1    wreg      void 
  5599 ;; Registers used:
  5600 ;;		wreg
  5601 ;; Tracked objects:
  5602 ;;		On entry : 0/0
  5603 ;;		On exit  : 0/0
  5604 ;;		Unchanged: 0/0
  5605 ;; Data sizes:     COMMON   BANK0   BANK1   BANK2   BANK3   BANK4   BANK5   BANK6   BANK7   BANK8   BANK9  BANK10  BANK1
      +1  BANK12
  5606 ;;      Params:         2       0       0       0       0       0       0       0       0       0       0       0       
      +0       0
  5607 ;;      Locals:         0       0       0       0       0       0       0       0       0       0       0       0       
      +0       0
  5608 ;;      Temps:          0       0       0       0       0       0       0       0       0       0       0       0       
      +0       0
  5609 ;;      Totals:         2       0       0       0       0       0       0       0       0       0       0       0       
      +0       0
  5610 ;;Total ram usage:        2 bytes
  5611 ;; Hardware stack levels used:    1
  5612 ;; Hardware stack levels required when called:    4
  5613 ;; This function calls:
  5614 ;;		Nothing
  5615 ;; This function is called by:
  5616 ;;		_TMR2_Initialize
  5617 ;; This function uses a non-reentrant model
  5618 ;;
  5619                           
  5620                           
  5621                           ;psect for function _TMR2_SetInterruptHandler
  5622  0F25                     _TMR2_SetInterruptHandler:
  5623  0F25                     l1751:	
  5624                           ;incstack = 0
  5625                           ; Regs used in _TMR2_SetInterruptHandler: [wreg]
  5626                           
  5627                           
  5628                           ;tmr2.c: 141: TMR2_InterruptHandler = InterruptHandler;
  5629  0F25  0872               	movf	TMR2_SetInterruptHandler@InterruptHandler+1,w
  5630  0F26  0021               	movlb	1	; select bank1
  5631  0F27  00C6               	movwf	(_TMR2_InterruptHandler+1)^(0+128)
  5632  0F28  0871               	movf	TMR2_SetInterruptHandler@InterruptHandler,w
  5633  0F29  00C5               	movwf	_TMR2_InterruptHandler^(0+128)
  5634  0F2A                     l104:
  5635  0F2A  0008               	return
  5636  0F2B                     __end_of_TMR2_SetInterruptHandler:
  5637                           
  5638                           	psect	text15
  5639  0F48                     __ptext15:	
  5640 ;; *************** function _PWM1_Initialize *****************
  5641 ;; Defined at:
  5642 ;;		line 64 in file "mcc_generated_files/pwm1.c"
  5643 ;; Parameters:    Size  Location     Type
  5644 ;;		None
  5645 ;; Auto vars:     Size  Location     Type
  5646 ;;		None
  5647 ;; Return value:  Size  Location     Type
  5648 ;;                  1    wreg      void 
  5649 ;; Registers used:
  5650 ;;		wreg, status,2, status,0
  5651 ;; Tracked objects:
  5652 ;;		On entry : 0/0
  5653 ;;		On exit  : 0/0
  5654 ;;		Unchanged: 0/0
  5655 ;; Data sizes:     COMMON   BANK0   BANK1   BANK2   BANK3   BANK4   BANK5   BANK6   BANK7   BANK8   BANK9  BANK10  BANK1
      +1  BANK12
  5656 ;;      Params:         0       0       0       0       0       0       0       0       0       0       0       0       
      +0       0
  5657 ;;      Locals:         0       0       0       0       0       0       0       0       0       0       0       0       
      +0       0
  5658 ;;      Temps:          0       0       0       0       0       0       0       0       0       0       0       0       
      +0       0
  5659 ;;      Totals:         0       0       0       0       0       0       0       0       0       0       0       0       
      +0       0
  5660 ;;Total ram usage:        0 bytes
  5661 ;; Hardware stack levels used:    1
  5662 ;; Hardware stack levels required when called:    4
  5663 ;; This function calls:
  5664 ;;		Nothing
  5665 ;; This function is called by:
  5666 ;;		_SYSTEM_Initialize
  5667 ;; This function uses a non-reentrant model
  5668 ;;
  5669                           
  5670                           
  5671                           ;psect for function _PWM1_Initialize
  5672  0F48                     _PWM1_Initialize:
  5673  0F48                     l1823:	
  5674                           ;incstack = 0
  5675                           ; Regs used in _PWM1_Initialize: [wreg+status,2+status,0]
  5676                           
  5677                           
  5678                           ;pwm1.c: 69: CCP1CON = 0x1C;
  5679  0F48  301C               	movlw	28
  5680  0F49  0025               	movlb	5	; select bank5
  5681  0F4A  0093               	movwf	19	;volatile
  5682                           
  5683                           ;pwm1.c: 72: CCPR1L = 0x3E;
  5684  0F4B  303E               	movlw	62
  5685  0F4C  0091               	movwf	17	;volatile
  5686  0F4D                     l1825:
  5687                           
  5688                           ;pwm1.c: 75: CCPR1H = 0x00;
  5689  0F4D  0192               	clrf	18	;volatile
  5690  0F4E                     l1827:
  5691                           
  5692                           ;pwm1.c: 78: CCPTMRSbits.C1TSEL = 0x0;
  5693  0F4E  30FC               	movlw	-4
  5694  0F4F  059E               	andwf	30,f	;volatile
  5695  0F50                     l53:
  5696  0F50  0008               	return
  5697  0F51                     __end_of_PWM1_Initialize:
  5698                           
  5699                           	psect	text16
  5700  07D9                     __ptext16:	
  5701 ;; *************** function _PIN_MANAGER_Initialize *****************
  5702 ;; Defined at:
  5703 ;;		line 55 in file "mcc_generated_files/pin_manager.c"
  5704 ;; Parameters:    Size  Location     Type
  5705 ;;		None
  5706 ;; Auto vars:     Size  Location     Type
  5707 ;;		None
  5708 ;; Return value:  Size  Location     Type
  5709 ;;                  1    wreg      void 
  5710 ;; Registers used:
  5711 ;;		wreg, status,2
  5712 ;; Tracked objects:
  5713 ;;		On entry : 0/0
  5714 ;;		On exit  : 0/0
  5715 ;;		Unchanged: 0/0
  5716 ;; Data sizes:     COMMON   BANK0   BANK1   BANK2   BANK3   BANK4   BANK5   BANK6   BANK7   BANK8   BANK9  BANK10  BANK1
      +1  BANK12
  5717 ;;      Params:         0       0       0       0       0       0       0       0       0       0       0       0       
      +0       0
  5718 ;;      Locals:         0       0       0       0       0       0       0       0       0       0       0       0       
      +0       0
  5719 ;;      Temps:          0       0       0       0       0       0       0       0       0       0       0       0       
      +0       0
  5720 ;;      Totals:         0       0       0       0       0       0       0       0       0       0       0       0       
      +0       0
  5721 ;;Total ram usage:        0 bytes
  5722 ;; Hardware stack levels used:    1
  5723 ;; Hardware stack levels required when called:    4
  5724 ;; This function calls:
  5725 ;;		Nothing
  5726 ;; This function is called by:
  5727 ;;		_SYSTEM_Initialize
  5728 ;; This function uses a non-reentrant model
  5729 ;;
  5730                           
  5731                           
  5732                           ;psect for function _PIN_MANAGER_Initialize
  5733  07D9                     _PIN_MANAGER_Initialize:
  5734  07D9                     l1791:	
  5735                           ;incstack = 0
  5736                           ; Regs used in _PIN_MANAGER_Initialize: [wreg+status,2]
  5737                           
  5738                           
  5739                           ;pin_manager.c: 60: LATA = 0x00;
  5740  07D9  0022               	movlb	2	; select bank2
  5741  07DA  018C               	clrf	12	;volatile
  5742                           
  5743                           ;pin_manager.c: 61: LATC = 0x00;
  5744  07DB  018E               	clrf	14	;volatile
  5745  07DC                     l1793:
  5746                           
  5747                           ;pin_manager.c: 66: TRISA = 0x04;
  5748  07DC  3004               	movlw	4
  5749  07DD  0021               	movlb	1	; select bank1
  5750  07DE  008C               	movwf	12	;volatile
  5751  07DF                     l1795:
  5752                           
  5753                           ;pin_manager.c: 67: TRISC = 0x20;
  5754  07DF  3020               	movlw	32
  5755  07E0  008E               	movwf	14	;volatile
  5756                           
  5757                           ;pin_manager.c: 72: ANSELC = 0x00;
  5758  07E1  0023               	movlb	3	; select bank3
  5759  07E2  018E               	clrf	14	;volatile
  5760  07E3                     l1797:
  5761                           
  5762                           ;pin_manager.c: 73: ANSELA = 0x04;
  5763  07E3  3004               	movlw	4
  5764  07E4  008C               	movwf	12	;volatile
  5765  07E5                     l1799:
  5766                           
  5767                           ;pin_manager.c: 78: WPUA = 0x00;
  5768  07E5  0024               	movlb	4	; select bank4
  5769  07E6  018C               	clrf	12	;volatile
  5770  07E7                     l1801:
  5771                           
  5772                           ;pin_manager.c: 79: WPUC = 0x00;
  5773  07E7  018E               	clrf	14	;volatile
  5774  07E8                     l1803:
  5775                           
  5776                           ;pin_manager.c: 80: OPTION_REGbits.nWPUEN = 1;
  5777  07E8  0021               	movlb	1	; select bank1
  5778  07E9  1795               	bsf	21,7	;volatile
  5779  07EA                     l1805:
  5780                           
  5781                           ;pin_manager.c: 85: ODCONA = 0x00;
  5782  07EA  0025               	movlb	5	; select bank5
  5783  07EB  018C               	clrf	12	;volatile
  5784  07EC                     l1807:
  5785                           
  5786                           ;pin_manager.c: 86: ODCONC = 0x00;
  5787  07EC  018E               	clrf	14	;volatile
  5788  07ED                     l1809:
  5789                           
  5790                           ;pin_manager.c: 91: SLRCONA = 0x37;
  5791  07ED  3037               	movlw	55
  5792  07EE  0026               	movlb	6	; select bank6
  5793  07EF  008C               	movwf	12	;volatile
  5794  07F0                     l1811:
  5795                           
  5796                           ;pin_manager.c: 92: SLRCONC = 0x3F;
  5797  07F0  303F               	movlw	63
  5798  07F1  008E               	movwf	14	;volatile
  5799  07F2                     l1813:
  5800                           
  5801                           ;pin_manager.c: 97: INLVLA = 0x3F;
  5802  07F2  303F               	movlw	63
  5803  07F3  0027               	movlb	7	; select bank7
  5804  07F4  008C               	movwf	12	;volatile
  5805  07F5                     l1815:
  5806                           
  5807                           ;pin_manager.c: 98: INLVLC = 0x3F;
  5808  07F5  303F               	movlw	63
  5809  07F6  008E               	movwf	14	;volatile
  5810  07F7                     l1817:
  5811                           
  5812                           ;pin_manager.c: 107: RXPPS = 0x15;
  5813  07F7  3015               	movlw	21
  5814  07F8  003C               	movlb	28	; select bank28
  5815  07F9  00A4               	movwf	36	;volatile
  5816  07FA                     l1819:
  5817                           
  5818                           ;pin_manager.c: 108: RC1PPS = 0x0C;
  5819  07FA  300C               	movlw	12
  5820  07FB  003D               	movlb	29	; select bank29
  5821  07FC  00A1               	movwf	33	;volatile
  5822  07FD                     l1821:
  5823                           
  5824                           ;pin_manager.c: 109: RC4PPS = 0x14;
  5825  07FD  3014               	movlw	20
  5826  07FE  00A4               	movwf	36	;volatile
  5827  07FF                     l39:
  5828  07FF  0008               	return
  5829  0800                     __end_of_PIN_MANAGER_Initialize:
  5830                           
  5831                           	psect	text17
  5832  0F37                     __ptext17:	
  5833 ;; *************** function _OSCILLATOR_Initialize *****************
  5834 ;; Defined at:
  5835 ;;		line 62 in file "mcc_generated_files/mcc.c"
  5836 ;; Parameters:    Size  Location     Type
  5837 ;;		None
  5838 ;; Auto vars:     Size  Location     Type
  5839 ;;		None
  5840 ;; Return value:  Size  Location     Type
  5841 ;;                  1    wreg      void 
  5842 ;; Registers used:
  5843 ;;		wreg, status,2
  5844 ;; Tracked objects:
  5845 ;;		On entry : 0/0
  5846 ;;		On exit  : 0/0
  5847 ;;		Unchanged: 0/0
  5848 ;; Data sizes:     COMMON   BANK0   BANK1   BANK2   BANK3   BANK4   BANK5   BANK6   BANK7   BANK8   BANK9  BANK10  BANK1
      +1  BANK12
  5849 ;;      Params:         0       0       0       0       0       0       0       0       0       0       0       0       
      +0       0
  5850 ;;      Locals:         0       0       0       0       0       0       0       0       0       0       0       0       
      +0       0
  5851 ;;      Temps:          0       0       0       0       0       0       0       0       0       0       0       0       
      +0       0
  5852 ;;      Totals:         0       0       0       0       0       0       0       0       0       0       0       0       
      +0       0
  5853 ;;Total ram usage:        0 bytes
  5854 ;; Hardware stack levels used:    1
  5855 ;; Hardware stack levels required when called:    4
  5856 ;; This function calls:
  5857 ;;		Nothing
  5858 ;; This function is called by:
  5859 ;;		_SYSTEM_Initialize
  5860 ;; This function uses a non-reentrant model
  5861 ;;
  5862                           
  5863                           
  5864                           ;psect for function _OSCILLATOR_Initialize
  5865  0F37                     _OSCILLATOR_Initialize:
  5866  0F37                     l1845:	
  5867                           ;incstack = 0
  5868                           ; Regs used in _OSCILLATOR_Initialize: [wreg+status,2]
  5869                           
  5870                           
  5871                           ;mcc.c: 65: OSCCON = 0x6A;
  5872  0F37  306A               	movlw	106
  5873  0F38  0021               	movlb	1	; select bank1
  5874  0F39  0099               	movwf	25	;volatile
  5875  0F3A                     l1847:
  5876                           
  5877                           ;mcc.c: 67: OSCSTAT = 0x00;
  5878  0F3A  019A               	clrf	26	;volatile
  5879  0F3B                     l1849:
  5880                           
  5881                           ;mcc.c: 69: OSCTUNE = 0x00;
  5882  0F3B  0198               	clrf	24	;volatile
  5883  0F3C                     l1851:
  5884                           
  5885                           ;mcc.c: 71: BORCON = 0x00;
  5886  0F3C  0022               	movlb	2	; select bank2
  5887  0F3D  0196               	clrf	22	;volatile
  5888  0F3E                     l137:
  5889  0F3E  0008               	return
  5890  0F3F                     __end_of_OSCILLATOR_Initialize:
  5891                           
  5892                           	psect	text18
  5893  06C3                     __ptext18:	
  5894 ;; *************** function _EUSART_Initialize *****************
  5895 ;; Defined at:
  5896 ;;		line 88 in file "mcc_generated_files/eusart.c"
  5897 ;; Parameters:    Size  Location     Type
  5898 ;;		None
  5899 ;; Auto vars:     Size  Location     Type
  5900 ;;		None
  5901 ;; Return value:  Size  Location     Type
  5902 ;;                  1    wreg      void 
  5903 ;; Registers used:
  5904 ;;		wreg, status,2, status,0, pclath, cstack
  5905 ;; Tracked objects:
  5906 ;;		On entry : 0/0
  5907 ;;		On exit  : 0/0
  5908 ;;		Unchanged: 0/0
  5909 ;; Data sizes:     COMMON   BANK0   BANK1   BANK2   BANK3   BANK4   BANK5   BANK6   BANK7   BANK8   BANK9  BANK10  BANK1
      +1  BANK12
  5910 ;;      Params:         0       0       0       0       0       0       0       0       0       0       0       0       
      +0       0
  5911 ;;      Locals:         0       0       0       0       0       0       0       0       0       0       0       0       
      +0       0
  5912 ;;      Temps:          1       0       0       0       0       0       0       0       0       0       0       0       
      +0       0
  5913 ;;      Totals:         1       0       0       0       0       0       0       0       0       0       0       0       
      +0       0
  5914 ;;Total ram usage:        1 bytes
  5915 ;; Hardware stack levels used:    1
  5916 ;; Hardware stack levels required when called:    5
  5917 ;; This function calls:
  5918 ;;		_EUSART_SetErrorHandler
  5919 ;;		_EUSART_SetFramingErrorHandler
  5920 ;;		_EUSART_SetOverrunErrorHandler
  5921 ;;		_EUSART_SetRxInterruptHandler
  5922 ;;		_EUSART_SetTxInterruptHandler
  5923 ;; This function is called by:
  5924 ;;		_SYSTEM_Initialize
  5925 ;; This function uses a non-reentrant model
  5926 ;;
  5927                           
  5928                           
  5929                           ;psect for function _EUSART_Initialize
  5930  06C3                     _EUSART_Initialize:
  5931  06C3                     l1865:	
  5932                           ;incstack = 0
  5933                           ; Regs used in _EUSART_Initialize: [wreg+status,2+status,0+pclath+cstack]
  5934                           
  5935                           
  5936                           ;eusart.c: 91: PIE1bits.RCIE = 0;
  5937  06C3  0021               	movlb	1	; select bank1
  5938  06C4  1291               	bcf	17,5	;volatile
  5939  06C5                     l1867:
  5940                           
  5941                           ;eusart.c: 92: EUSART_SetRxInterruptHandler(EUSART_Receive_ISR);
  5942  06C5  3041               	movlw	low _EUSART_Receive_ISR
  5943  06C6  00F1               	movwf	EUSART_SetRxInterruptHandler@interruptHandler
  5944  06C7  3007               	movlw	high _EUSART_Receive_ISR
  5945  06C8  00F2               	movwf	EUSART_SetRxInterruptHandler@interruptHandler+1
  5946  06C9  318F  2719  3186   	fcall	_EUSART_SetRxInterruptHandler
  5947  06CC                     l1869:
  5948                           
  5949                           ;eusart.c: 93: PIE1bits.TXIE = 0;
  5950  06CC  0021               	movlb	1	; select bank1
  5951  06CD  1211               	bcf	17,4	;volatile
  5952                           
  5953                           ;eusart.c: 94: EUSART_SetTxInterruptHandler(EUSART_Transmit_ISR);
  5954  06CE  30BA               	movlw	low _EUSART_Transmit_ISR
  5955  06CF  00F1               	movwf	EUSART_SetTxInterruptHandler@interruptHandler
  5956  06D0  300F               	movlw	high _EUSART_Transmit_ISR
  5957  06D1  00F2               	movwf	EUSART_SetTxInterruptHandler@interruptHandler+1
  5958  06D2  318F  271F  3186   	fcall	_EUSART_SetTxInterruptHandler
  5959  06D5                     l1871:
  5960                           
  5961                           ;eusart.c: 98: BAUD1CON = 0x08;
  5962  06D5  3008               	movlw	8
  5963  06D6  0023               	movlb	3	; select bank3
  5964  06D7  009F               	movwf	31	;volatile
  5965  06D8                     l1873:
  5966                           
  5967                           ;eusart.c: 101: RC1STA = 0x90;
  5968  06D8  3090               	movlw	144
  5969  06D9  009D               	movwf	29	;volatile
  5970  06DA                     l1875:
  5971                           
  5972                           ;eusart.c: 104: TX1STA = 0x24;
  5973  06DA  3024               	movlw	36
  5974  06DB  009E               	movwf	30	;volatile
  5975  06DC                     l1877:
  5976                           
  5977                           ;eusart.c: 107: SP1BRGL = 0x67;
  5978  06DC  3067               	movlw	103
  5979  06DD  009B               	movwf	27	;volatile
  5980  06DE                     l1879:
  5981                           
  5982                           ;eusart.c: 110: SP1BRGH = 0x00;
  5983  06DE  019C               	clrf	28	;volatile
  5984  06DF                     l1881:
  5985                           
  5986                           ;eusart.c: 113: EUSART_SetFramingErrorHandler(EUSART_DefaultFramingErrorHandler);
  5987  06DF  3002               	movlw	low _EUSART_DefaultFramingErrorHandler
  5988  06E0  00F1               	movwf	EUSART_SetFramingErrorHandler@interruptHandler
  5989  06E1  3000               	movlw	high _EUSART_DefaultFramingErrorHandler
  5990  06E2  00F2               	movwf	EUSART_SetFramingErrorHandler@interruptHandler+1
  5991  06E3  318F  270D  3186   	fcall	_EUSART_SetFramingErrorHandler
  5992  06E6                     l1883:
  5993                           
  5994                           ;eusart.c: 114: EUSART_SetOverrunErrorHandler(EUSART_DefaultOverrunErrorHandler);
  5995  06E6  30F9               	movlw	low _EUSART_DefaultOverrunErrorHandler
  5996  06E7  00F1               	movwf	EUSART_SetOverrunErrorHandler@interruptHandler
  5997  06E8  300E               	movlw	high _EUSART_DefaultOverrunErrorHandler
  5998  06E9  00F2               	movwf	EUSART_SetOverrunErrorHandler@interruptHandler+1
  5999  06EA  318F  2713  3186   	fcall	_EUSART_SetOverrunErrorHandler
  6000  06ED                     l1885:
  6001                           
  6002                           ;eusart.c: 115: EUSART_SetErrorHandler(EUSART_DefaultErrorHandler);
  6003  06ED  30F5               	movlw	low _EUSART_DefaultErrorHandler
  6004  06EE  00F1               	movwf	EUSART_SetErrorHandler@interruptHandler
  6005  06EF  300E               	movlw	high _EUSART_DefaultErrorHandler
  6006  06F0  00F2               	movwf	EUSART_SetErrorHandler@interruptHandler+1
  6007  06F1  318F  2707  3186   	fcall	_EUSART_SetErrorHandler
  6008                           
  6009                           ;eusart.c: 117: eusartRxLastError.status = 0;
  6010  06F4  0021               	movlb	1	; select bank1
  6011  06F5  01BA               	clrf	_eusartRxLastError^(0+128)	;volatile
  6012                           
  6013                           ;eusart.c: 120: eusartTxHead = 0;
  6014  06F6  0020               	movlb	0	; select bank0
  6015  06F7  01EF               	clrf	_eusartTxHead	;volatile
  6016                           
  6017                           ;eusart.c: 121: eusartTxTail = 0;
  6018  06F8  01EE               	clrf	_eusartTxTail	;volatile
  6019  06F9                     l1887:
  6020                           
  6021                           ;eusart.c: 122: eusartTxBufferRemaining = sizeof(eusartTxBuffer);
  6022  06F9  3008               	movlw	8
  6023  06FA  00F3               	movwf	??_EUSART_Initialize
  6024  06FB  0873               	movf	??_EUSART_Initialize,w
  6025  06FC  0021               	movlb	1	; select bank1
  6026  06FD  00C7               	movwf	_eusartTxBufferRemaining^(0+128)	;volatile
  6027  06FE                     l1889:
  6028                           
  6029                           ;eusart.c: 124: eusartRxHead = 0;
  6030  06FE  01FC               	clrf	_eusartRxHead	;volatile
  6031  06FF                     l1891:
  6032                           
  6033                           ;eusart.c: 125: eusartRxTail = 0;
  6034  06FF  0020               	movlb	0	; select bank0
  6035  0700  01ED               	clrf	_eusartRxTail	;volatile
  6036  0701                     l1893:
  6037                           
  6038                           ;eusart.c: 126: eusartRxCount = 0;
  6039  0701  01EC               	clrf	_eusartRxCount	;volatile
  6040  0702                     l1895:
  6041                           
  6042                           ;eusart.c: 129: PIE1bits.RCIE = 1;
  6043  0702  0021               	movlb	1	; select bank1
  6044  0703  1691               	bsf	17,5	;volatile
  6045  0704                     l255:
  6046  0704  0008               	return
  6047  0705                     __end_of_EUSART_Initialize:
  6048                           
  6049                           	psect	text19
  6050  0F1F                     __ptext19:	
  6051 ;; *************** function _EUSART_SetTxInterruptHandler *****************
  6052 ;; Defined at:
  6053 ;;		line 285 in file "mcc_generated_files/eusart.c"
  6054 ;; Parameters:    Size  Location     Type
  6055 ;;  interruptHan    2    1[COMMON] PTR FTN()void 
  6056 ;;		 -> EUSART_Transmit_ISR(1), 
  6057 ;; Auto vars:     Size  Location     Type
  6058 ;;		None
  6059 ;; Return value:  Size  Location     Type
  6060 ;;                  1    wreg      void 
  6061 ;; Registers used:
  6062 ;;		wreg
  6063 ;; Tracked objects:
  6064 ;;		On entry : 0/0
  6065 ;;		On exit  : 0/0
  6066 ;;		Unchanged: 0/0
  6067 ;; Data sizes:     COMMON   BANK0   BANK1   BANK2   BANK3   BANK4   BANK5   BANK6   BANK7   BANK8   BANK9  BANK10  BANK1
      +1  BANK12
  6068 ;;      Params:         2       0       0       0       0       0       0       0       0       0       0       0       
      +0       0
  6069 ;;      Locals:         0       0       0       0       0       0       0       0       0       0       0       0       
      +0       0
  6070 ;;      Temps:          0       0       0       0       0       0       0       0       0       0       0       0       
      +0       0
  6071 ;;      Totals:         2       0       0       0       0       0       0       0       0       0       0       0       
      +0       0
  6072 ;;Total ram usage:        2 bytes
  6073 ;; Hardware stack levels used:    1
  6074 ;; Hardware stack levels required when called:    4
  6075 ;; This function calls:
  6076 ;;		Nothing
  6077 ;; This function is called by:
  6078 ;;		_EUSART_Initialize
  6079 ;; This function uses a non-reentrant model
  6080 ;;
  6081                           
  6082                           
  6083                           ;psect for function _EUSART_SetTxInterruptHandler
  6084  0F1F                     _EUSART_SetTxInterruptHandler:
  6085  0F1F                     l1755:	
  6086                           ;incstack = 0
  6087                           ; Regs used in _EUSART_SetTxInterruptHandler: [wreg]
  6088                           
  6089                           
  6090                           ;eusart.c: 286: EUSART_TxDefaultInterruptHandler = interruptHandler;
  6091  0F1F  0872               	movf	EUSART_SetTxInterruptHandler@interruptHandler+1,w
  6092  0F20  0021               	movlb	1	; select bank1
  6093  0F21  00C4               	movwf	(_EUSART_TxDefaultInterruptHandler+1)^(0+128)
  6094  0F22  0871               	movf	EUSART_SetTxInterruptHandler@interruptHandler,w
  6095  0F23  00C3               	movwf	_EUSART_TxDefaultInterruptHandler^(0+128)
  6096  0F24                     l327:
  6097  0F24  0008               	return
  6098  0F25                     __end_of_EUSART_SetTxInterruptHandler:
  6099                           
  6100                           	psect	text20
  6101  0F19                     __ptext20:	
  6102 ;; *************** function _EUSART_SetRxInterruptHandler *****************
  6103 ;; Defined at:
  6104 ;;		line 289 in file "mcc_generated_files/eusart.c"
  6105 ;; Parameters:    Size  Location     Type
  6106 ;;  interruptHan    2    1[COMMON] PTR FTN()void 
  6107 ;;		 -> EUSART_Receive_ISR(1), 
  6108 ;; Auto vars:     Size  Location     Type
  6109 ;;		None
  6110 ;; Return value:  Size  Location     Type
  6111 ;;                  1    wreg      void 
  6112 ;; Registers used:
  6113 ;;		wreg
  6114 ;; Tracked objects:
  6115 ;;		On entry : 0/0
  6116 ;;		On exit  : 0/0
  6117 ;;		Unchanged: 0/0
  6118 ;; Data sizes:     COMMON   BANK0   BANK1   BANK2   BANK3   BANK4   BANK5   BANK6   BANK7   BANK8   BANK9  BANK10  BANK1
      +1  BANK12
  6119 ;;      Params:         2       0       0       0       0       0       0       0       0       0       0       0       
      +0       0
  6120 ;;      Locals:         0       0       0       0       0       0       0       0       0       0       0       0       
      +0       0
  6121 ;;      Temps:          0       0       0       0       0       0       0       0       0       0       0       0       
      +0       0
  6122 ;;      Totals:         2       0       0       0       0       0       0       0       0       0       0       0       
      +0       0
  6123 ;;Total ram usage:        2 bytes
  6124 ;; Hardware stack levels used:    1
  6125 ;; Hardware stack levels required when called:    4
  6126 ;; This function calls:
  6127 ;;		Nothing
  6128 ;; This function is called by:
  6129 ;;		_EUSART_Initialize
  6130 ;; This function uses a non-reentrant model
  6131 ;;
  6132                           
  6133                           
  6134                           ;psect for function _EUSART_SetRxInterruptHandler
  6135  0F19                     _EUSART_SetRxInterruptHandler:
  6136  0F19                     l1753:	
  6137                           ;incstack = 0
  6138                           ; Regs used in _EUSART_SetRxInterruptHandler: [wreg]
  6139                           
  6140                           
  6141                           ;eusart.c: 290: EUSART_RxDefaultInterruptHandler = interruptHandler;
  6142  0F19  0872               	movf	EUSART_SetRxInterruptHandler@interruptHandler+1,w
  6143  0F1A  0021               	movlb	1	; select bank1
  6144  0F1B  00C2               	movwf	(_EUSART_RxDefaultInterruptHandler+1)^(0+128)
  6145  0F1C  0871               	movf	EUSART_SetRxInterruptHandler@interruptHandler,w
  6146  0F1D  00C1               	movwf	_EUSART_RxDefaultInterruptHandler^(0+128)
  6147  0F1E                     l330:
  6148  0F1E  0008               	return
  6149  0F1F                     __end_of_EUSART_SetRxInterruptHandler:
  6150                           
  6151                           	psect	text21
  6152  0F13                     __ptext21:	
  6153 ;; *************** function _EUSART_SetOverrunErrorHandler *****************
  6154 ;; Defined at:
  6155 ;;		line 277 in file "mcc_generated_files/eusart.c"
  6156 ;; Parameters:    Size  Location     Type
  6157 ;;  interruptHan    2    1[COMMON] PTR FTN()void 
  6158 ;;		 -> EUSART_DefaultOverrunErrorHandler(1), 
  6159 ;; Auto vars:     Size  Location     Type
  6160 ;;		None
  6161 ;; Return value:  Size  Location     Type
  6162 ;;                  1    wreg      void 
  6163 ;; Registers used:
  6164 ;;		wreg
  6165 ;; Tracked objects:
  6166 ;;		On entry : 0/0
  6167 ;;		On exit  : 0/0
  6168 ;;		Unchanged: 0/0
  6169 ;; Data sizes:     COMMON   BANK0   BANK1   BANK2   BANK3   BANK4   BANK5   BANK6   BANK7   BANK8   BANK9  BANK10  BANK1
      +1  BANK12
  6170 ;;      Params:         2       0       0       0       0       0       0       0       0       0       0       0       
      +0       0
  6171 ;;      Locals:         0       0       0       0       0       0       0       0       0       0       0       0       
      +0       0
  6172 ;;      Temps:          0       0       0       0       0       0       0       0       0       0       0       0       
      +0       0
  6173 ;;      Totals:         2       0       0       0       0       0       0       0       0       0       0       0       
      +0       0
  6174 ;;Total ram usage:        2 bytes
  6175 ;; Hardware stack levels used:    1
  6176 ;; Hardware stack levels required when called:    4
  6177 ;; This function calls:
  6178 ;;		Nothing
  6179 ;; This function is called by:
  6180 ;;		_EUSART_Initialize
  6181 ;; This function uses a non-reentrant model
  6182 ;;
  6183                           
  6184                           
  6185                           ;psect for function _EUSART_SetOverrunErrorHandler
  6186  0F13                     _EUSART_SetOverrunErrorHandler:
  6187  0F13                     l1759:	
  6188                           ;incstack = 0
  6189                           ; Regs used in _EUSART_SetOverrunErrorHandler: [wreg]
  6190                           
  6191                           
  6192                           ;eusart.c: 278: EUSART_OverrunErrorHandler = interruptHandler;
  6193  0F13  0872               	movf	EUSART_SetOverrunErrorHandler@interruptHandler+1,w
  6194  0F14  0021               	movlb	1	; select bank1
  6195  0F15  00BE               	movwf	(_EUSART_OverrunErrorHandler+1)^(0+128)
  6196  0F16  0871               	movf	EUSART_SetOverrunErrorHandler@interruptHandler,w
  6197  0F17  00BD               	movwf	_EUSART_OverrunErrorHandler^(0+128)
  6198  0F18                     l321:
  6199  0F18  0008               	return
  6200  0F19                     __end_of_EUSART_SetOverrunErrorHandler:
  6201                           
  6202                           	psect	text22
  6203  0F0D                     __ptext22:	
  6204 ;; *************** function _EUSART_SetFramingErrorHandler *****************
  6205 ;; Defined at:
  6206 ;;		line 273 in file "mcc_generated_files/eusart.c"
  6207 ;; Parameters:    Size  Location     Type
  6208 ;;  interruptHan    2    1[COMMON] PTR FTN()void 
  6209 ;;		 -> EUSART_DefaultFramingErrorHandler(1), 
  6210 ;; Auto vars:     Size  Location     Type
  6211 ;;		None
  6212 ;; Return value:  Size  Location     Type
  6213 ;;                  1    wreg      void 
  6214 ;; Registers used:
  6215 ;;		wreg
  6216 ;; Tracked objects:
  6217 ;;		On entry : 0/0
  6218 ;;		On exit  : 0/0
  6219 ;;		Unchanged: 0/0
  6220 ;; Data sizes:     COMMON   BANK0   BANK1   BANK2   BANK3   BANK4   BANK5   BANK6   BANK7   BANK8   BANK9  BANK10  BANK1
      +1  BANK12
  6221 ;;      Params:         2       0       0       0       0       0       0       0       0       0       0       0       
      +0       0
  6222 ;;      Locals:         0       0       0       0       0       0       0       0       0       0       0       0       
      +0       0
  6223 ;;      Temps:          0       0       0       0       0       0       0       0       0       0       0       0       
      +0       0
  6224 ;;      Totals:         2       0       0       0       0       0       0       0       0       0       0       0       
      +0       0
  6225 ;;Total ram usage:        2 bytes
  6226 ;; Hardware stack levels used:    1
  6227 ;; Hardware stack levels required when called:    4
  6228 ;; This function calls:
  6229 ;;		Nothing
  6230 ;; This function is called by:
  6231 ;;		_EUSART_Initialize
  6232 ;; This function uses a non-reentrant model
  6233 ;;
  6234                           
  6235                           
  6236                           ;psect for function _EUSART_SetFramingErrorHandler
  6237  0F0D                     _EUSART_SetFramingErrorHandler:
  6238  0F0D                     l1757:	
  6239                           ;incstack = 0
  6240                           ; Regs used in _EUSART_SetFramingErrorHandler: [wreg]
  6241                           
  6242                           
  6243                           ;eusart.c: 274: EUSART_FramingErrorHandler = interruptHandler;
  6244  0F0D  0872               	movf	EUSART_SetFramingErrorHandler@interruptHandler+1,w
  6245  0F0E  0021               	movlb	1	; select bank1
  6246  0F0F  00C0               	movwf	(_EUSART_FramingErrorHandler+1)^(0+128)
  6247  0F10  0871               	movf	EUSART_SetFramingErrorHandler@interruptHandler,w
  6248  0F11  00BF               	movwf	_EUSART_FramingErrorHandler^(0+128)
  6249  0F12                     l318:
  6250  0F12  0008               	return
  6251  0F13                     __end_of_EUSART_SetFramingErrorHandler:
  6252                           
  6253                           	psect	text23
  6254  0F07                     __ptext23:	
  6255 ;; *************** function _EUSART_SetErrorHandler *****************
  6256 ;; Defined at:
  6257 ;;		line 281 in file "mcc_generated_files/eusart.c"
  6258 ;; Parameters:    Size  Location     Type
  6259 ;;  interruptHan    2    1[COMMON] PTR FTN()void 
  6260 ;;		 -> EUSART_DefaultErrorHandler(1), 
  6261 ;; Auto vars:     Size  Location     Type
  6262 ;;		None
  6263 ;; Return value:  Size  Location     Type
  6264 ;;                  1    wreg      void 
  6265 ;; Registers used:
  6266 ;;		wreg
  6267 ;; Tracked objects:
  6268 ;;		On entry : 0/0
  6269 ;;		On exit  : 0/0
  6270 ;;		Unchanged: 0/0
  6271 ;; Data sizes:     COMMON   BANK0   BANK1   BANK2   BANK3   BANK4   BANK5   BANK6   BANK7   BANK8   BANK9  BANK10  BANK1
      +1  BANK12
  6272 ;;      Params:         2       0       0       0       0       0       0       0       0       0       0       0       
      +0       0
  6273 ;;      Locals:         0       0       0       0       0       0       0       0       0       0       0       0       
      +0       0
  6274 ;;      Temps:          0       0       0       0       0       0       0       0       0       0       0       0       
      +0       0
  6275 ;;      Totals:         2       0       0       0       0       0       0       0       0       0       0       0       
      +0       0
  6276 ;;Total ram usage:        2 bytes
  6277 ;; Hardware stack levels used:    1
  6278 ;; Hardware stack levels required when called:    4
  6279 ;; This function calls:
  6280 ;;		Nothing
  6281 ;; This function is called by:
  6282 ;;		_EUSART_Initialize
  6283 ;; This function uses a non-reentrant model
  6284 ;;
  6285                           
  6286                           
  6287                           ;psect for function _EUSART_SetErrorHandler
  6288  0F07                     _EUSART_SetErrorHandler:
  6289  0F07                     l1761:	
  6290                           ;incstack = 0
  6291                           ; Regs used in _EUSART_SetErrorHandler: [wreg]
  6292                           
  6293                           
  6294                           ;eusart.c: 282: EUSART_ErrorHandler = interruptHandler;
  6295  0F07  0872               	movf	EUSART_SetErrorHandler@interruptHandler+1,w
  6296  0F08  0021               	movlb	1	; select bank1
  6297  0F09  00BC               	movwf	(_EUSART_ErrorHandler+1)^(0+128)
  6298  0F0A  0871               	movf	EUSART_SetErrorHandler@interruptHandler,w
  6299  0F0B  00BB               	movwf	_EUSART_ErrorHandler^(0+128)
  6300  0F0C                     l324:
  6301  0F0C  0008               	return
  6302  0F0D                     __end_of_EUSART_SetErrorHandler:
  6303                           
  6304                           	psect	text24
  6305  0F3F                     __ptext24:	
  6306 ;; *************** function _ADC_Initialize *****************
  6307 ;; Defined at:
  6308 ;;		line 67 in file "mcc_generated_files/adc.c"
  6309 ;; Parameters:    Size  Location     Type
  6310 ;;		None
  6311 ;; Auto vars:     Size  Location     Type
  6312 ;;		None
  6313 ;; Return value:  Size  Location     Type
  6314 ;;                  1    wreg      void 
  6315 ;; Registers used:
  6316 ;;		wreg, status,2
  6317 ;; Tracked objects:
  6318 ;;		On entry : 0/0
  6319 ;;		On exit  : 0/0
  6320 ;;		Unchanged: 0/0
  6321 ;; Data sizes:     COMMON   BANK0   BANK1   BANK2   BANK3   BANK4   BANK5   BANK6   BANK7   BANK8   BANK9  BANK10  BANK1
      +1  BANK12
  6322 ;;      Params:         0       0       0       0       0       0       0       0       0       0       0       0       
      +0       0
  6323 ;;      Locals:         0       0       0       0       0       0       0       0       0       0       0       0       
      +0       0
  6324 ;;      Temps:          0       0       0       0       0       0       0       0       0       0       0       0       
      +0       0
  6325 ;;      Totals:         0       0       0       0       0       0       0       0       0       0       0       0       
      +0       0
  6326 ;;Total ram usage:        0 bytes
  6327 ;; Hardware stack levels used:    1
  6328 ;; Hardware stack levels required when called:    4
  6329 ;; This function calls:
  6330 ;;		Nothing
  6331 ;; This function is called by:
  6332 ;;		_SYSTEM_Initialize
  6333 ;; This function uses a non-reentrant model
  6334 ;;
  6335                           
  6336                           
  6337                           ;psect for function _ADC_Initialize
  6338  0F3F                     _ADC_Initialize:
  6339  0F3F                     l1855:	
  6340                           ;incstack = 0
  6341                           ; Regs used in _ADC_Initialize: [wreg+status,2]
  6342                           
  6343                           
  6344                           ;adc.c: 72: ADCON1 = 0xC0;
  6345  0F3F  30C0               	movlw	192
  6346  0F40  0021               	movlb	1	; select bank1
  6347  0F41  009E               	movwf	30	;volatile
  6348  0F42                     l1857:
  6349                           
  6350                           ;adc.c: 75: ADCON2 = 0x00;
  6351  0F42  019F               	clrf	31	;volatile
  6352  0F43                     l1859:
  6353                           
  6354                           ;adc.c: 78: ADRESL = 0x00;
  6355  0F43  019B               	clrf	27	;volatile
  6356  0F44                     l1861:
  6357                           
  6358                           ;adc.c: 81: ADRESH = 0x00;
  6359  0F44  019C               	clrf	28	;volatile
  6360  0F45                     l1863:
  6361                           
  6362                           ;adc.c: 84: ADCON0 = 0x09;
  6363  0F45  3009               	movlw	9
  6364  0F46  009D               	movwf	29	;volatile
  6365  0F47                     l159:
  6366  0F47  0008               	return
  6367  0F48                     __end_of_ADC_Initialize:
  6368                           
  6369                           	psect	text25
  6370  0FA0                     __ptext25:	
  6371 ;; *************** function _ADC_GetConversion *****************
  6372 ;; Defined at:
  6373 ;;		line 115 in file "mcc_generated_files/adc.c"
  6374 ;; Parameters:    Size  Location     Type
  6375 ;;  channel         1    wreg     enum E3994
  6376 ;; Auto vars:     Size  Location     Type
  6377 ;;  channel         1    4[COMMON] enum E3994
  6378 ;; Return value:  Size  Location     Type
  6379 ;;                  2    1[COMMON] unsigned int 
  6380 ;; Registers used:
  6381 ;;		wreg, status,2, status,0
  6382 ;; Tracked objects:
  6383 ;;		On entry : 0/0
  6384 ;;		On exit  : 0/0
  6385 ;;		Unchanged: 0/0
  6386 ;; Data sizes:     COMMON   BANK0   BANK1   BANK2   BANK3   BANK4   BANK5   BANK6   BANK7   BANK8   BANK9  BANK10  BANK1
      +1  BANK12
  6387 ;;      Params:         2       0       0       0       0       0       0       0       0       0       0       0       
      +0       0
  6388 ;;      Locals:         1       0       0       0       0       0       0       0       0       0       0       0       
      +0       0
  6389 ;;      Temps:          1       0       0       0       0       0       0       0       0       0       0       0       
      +0       0
  6390 ;;      Totals:         4       0       0       0       0       0       0       0       0       0       0       0       
      +0       0
  6391 ;;Total ram usage:        4 bytes
  6392 ;; Hardware stack levels used:    1
  6393 ;; Hardware stack levels required when called:    4
  6394 ;; This function calls:
  6395 ;;		Nothing
  6396 ;; This function is called by:
  6397 ;;		_main
  6398 ;; This function uses a non-reentrant model
  6399 ;;
  6400                           
  6401                           
  6402                           ;psect for function _ADC_GetConversion
  6403  0FA0                     _ADC_GetConversion:
  6404                           
  6405                           ;incstack = 0
  6406                           ; Regs used in _ADC_GetConversion: [wreg+status,2+status,0]
  6407                           ;ADC_GetConversion@channel stored from wreg
  6408  0FA0  00F4               	movwf	ADC_GetConversion@channel
  6409  0FA1                     l1971:
  6410                           
  6411                           ;adc.c: 118: ADCON0bits.CHS = channel;
  6412  0FA1  0874               	movf	ADC_GetConversion@channel,w
  6413  0FA2  00F3               	movwf	??_ADC_GetConversion
  6414  0FA3  0DF3               	rlf	??_ADC_GetConversion,f
  6415  0FA4  0DF3               	rlf	??_ADC_GetConversion,f
  6416  0FA5  0021               	movlb	1	; select bank1
  6417  0FA6  081D               	movf	29,w	;volatile
  6418  0FA7  0673               	xorwf	??_ADC_GetConversion,w
  6419  0FA8  3983               	andlw	-125
  6420  0FA9  0673               	xorwf	??_ADC_GetConversion,w
  6421  0FAA  009D               	movwf	29	;volatile
  6422  0FAB                     l1973:
  6423                           
  6424                           ;adc.c: 121: ADCON0bits.ADON = 1;
  6425  0FAB  141D               	bsf	29,0	;volatile
  6426  0FAC                     l1975:
  6427                           
  6428                           ;adc.c: 124: _delay((unsigned long)((5)*(4000000/4000000.0)));
  6429  0FAC  3200               	nop2	;2 cycle nop
  6430  0FAD  3200               	nop2	;2 cycle nop
  6431  0FAE  0000               	nop
  6432  0FAF                     l1977:
  6433                           
  6434                           ;adc.c: 127: ADCON0bits.GO_nDONE = 1;
  6435  0FAF  0021               	movlb	1	; select bank1
  6436  0FB0  149D               	bsf	29,1	;volatile
  6437  0FB1                     l174:	
  6438                           ;adc.c: 131: {
  6439                           
  6440  0FB1  189D               	btfsc	29,1	;volatile
  6441  0FB2  2FB4               	goto	u1451
  6442  0FB3  2FB5               	goto	u1450
  6443  0FB4                     u1451:
  6444  0FB4  2FB1               	goto	l174
  6445  0FB5                     u1450:
  6446  0FB5                     l1979:
  6447                           
  6448                           ;adc.c: 132: };adc.c: 135: return ((adc_result_t)((ADRESH << 8) + ADRESL));
  6449  0FB5  081C               	movf	28,w	;volatile
  6450  0FB6  00F2               	movwf	?_ADC_GetConversion+1
  6451  0FB7  081B               	movf	27,w	;volatile
  6452  0FB8  00F1               	movwf	?_ADC_GetConversion
  6453  0FB9                     l177:
  6454  0FB9  0008               	return
  6455  0FBA                     __end_of_ADC_GetConversion:
  6456                           
  6457                           	psect	intentry
  6458  0004                     __pintentry:	
  6459 ;; *************** function _INTERRUPT_InterruptManager *****************
  6460 ;; Defined at:
  6461 ;;		line 52 in file "mcc_generated_files/interrupt_manager.c"
  6462 ;; Parameters:    Size  Location     Type
  6463 ;;		None
  6464 ;; Auto vars:     Size  Location     Type
  6465 ;;		None
  6466 ;; Return value:  Size  Location     Type
  6467 ;;                  1    wreg      void 
  6468 ;; Registers used:
  6469 ;;		wreg, fsr1l, fsr1h, status,2, status,0, pclath, cstack
  6470 ;; Tracked objects:
  6471 ;;		On entry : 0/0
  6472 ;;		On exit  : 0/0
  6473 ;;		Unchanged: 0/0
  6474 ;; Data sizes:     COMMON   BANK0   BANK1   BANK2   BANK3   BANK4   BANK5   BANK6   BANK7   BANK8   BANK9  BANK10  BANK1
      +1  BANK12
  6475 ;;      Params:         0       0       0       0       0       0       0       0       0       0       0       0       
      +0       0
  6476 ;;      Locals:         0       0       0       0       0       0       0       0       0       0       0       0       
      +0       0
  6477 ;;      Temps:          0       0       0       0       0       0       0       0       0       0       0       0       
      +0       0
  6478 ;;      Totals:         0       0       0       0       0       0       0       0       0       0       0       0       
      +0       0
  6479 ;;Total ram usage:        0 bytes
  6480 ;; Hardware stack levels used:    1
  6481 ;; Hardware stack levels required when called:    3
  6482 ;; This function calls:
  6483 ;;		Absolute function
  6484 ;;		_EUSART_Receive_ISR
  6485 ;;		_EUSART_Transmit_ISR
  6486 ;;		_TMR2_ISR
  6487 ;; This function is called by:
  6488 ;;		Interrupt level 1
  6489 ;; This function uses a non-reentrant model
  6490 ;;
  6491                           
  6492  0004                     _INTERRUPT_InterruptManager:
  6493                           
  6494                           ;incstack = 0
  6495  0004  147E               	bsf	int$flags,0	;set compiler interrupt flag (level 1)
  6496                           
  6497                           ; Regs used in _INTERRUPT_InterruptManager: [wreg+fsr1l+fsr1h+status,2+status,0+pclath+c
      +                          stack]
  6498  0005  3180               	pagesel	$
  6499  0006                     i1l2449:
  6500                           
  6501                           ;interrupt_manager.c: 55: if(INTCONbits.PEIE == 1)
  6502  0006  1F0B               	btfss	11,6	;volatile
  6503  0007  2809               	goto	u239_21
  6504  0008  280A               	goto	u239_20
  6505  0009                     u239_21:
  6506  0009  283A               	goto	i1l355
  6507  000A                     u239_20:
  6508  000A                     i1l2451:
  6509                           
  6510                           ;interrupt_manager.c: 56: {;interrupt_manager.c: 57: if(PIE1bits.TXIE == 1 && PIR1bits.T
      +                          XIF == 1)
  6511  000A  0021               	movlb	1	; select bank1
  6512  000B  1E11               	btfss	17,4	;volatile
  6513  000C  280E               	goto	u240_21
  6514  000D  280F               	goto	u240_20
  6515  000E                     u240_21:
  6516  000E  281B               	goto	i1l348
  6517  000F                     u240_20:
  6518  000F                     i1l2453:
  6519  000F  0020               	movlb	0	; select bank0
  6520  0010  1E11               	btfss	17,4	;volatile
  6521  0011  2813               	goto	u241_21
  6522  0012  2814               	goto	u241_20
  6523  0013                     u241_21:
  6524  0013  281B               	goto	i1l348
  6525  0014                     u241_20:
  6526  0014                     i1l2455:
  6527                           
  6528                           ;interrupt_manager.c: 58: {;interrupt_manager.c: 59: EUSART_TxDefaultInterruptHandler();
  6529  0014  0021               	movlb	1	; select bank1
  6530  0015  0844               	movf	(_EUSART_TxDefaultInterruptHandler+1)^(0+128),w
  6531  0016  008A               	movwf	10
  6532  0017  0843               	movf	_EUSART_TxDefaultInterruptHandler^(0+128),w
  6533  0018  000A               	callw
  6534  0019  3180               	pagesel	$
  6535                           
  6536                           ;interrupt_manager.c: 60: }
  6537  001A  283A               	goto	i1l355
  6538  001B                     i1l348:
  6539                           
  6540                           ;interrupt_manager.c: 61: else if(PIE1bits.RCIE == 1 && PIR1bits.RCIF == 1)
  6541  001B  0021               	movlb	1	; select bank1
  6542  001C  1E91               	btfss	17,5	;volatile
  6543  001D  281F               	goto	u242_21
  6544  001E  2820               	goto	u242_20
  6545  001F                     u242_21:
  6546  001F  282C               	goto	i1l350
  6547  0020                     u242_20:
  6548  0020                     i1l2457:
  6549  0020  0020               	movlb	0	; select bank0
  6550  0021  1E91               	btfss	17,5	;volatile
  6551  0022  2824               	goto	u243_21
  6552  0023  2825               	goto	u243_20
  6553  0024                     u243_21:
  6554  0024  282C               	goto	i1l350
  6555  0025                     u243_20:
  6556  0025                     i1l2459:
  6557                           
  6558                           ;interrupt_manager.c: 62: {;interrupt_manager.c: 63: EUSART_RxDefaultInterruptHandler();
  6559  0025  0021               	movlb	1	; select bank1
  6560  0026  0842               	movf	(_EUSART_RxDefaultInterruptHandler+1)^(0+128),w
  6561  0027  008A               	movwf	10
  6562  0028  0841               	movf	_EUSART_RxDefaultInterruptHandler^(0+128),w
  6563  0029  000A               	callw
  6564  002A  3180               	pagesel	$
  6565                           
  6566                           ;interrupt_manager.c: 64: }
  6567  002B  283A               	goto	i1l355
  6568  002C                     i1l350:
  6569                           
  6570                           ;interrupt_manager.c: 65: else if(PIE1bits.TMR2IE == 1 && PIR1bits.TMR2IF == 1)
  6571  002C  0021               	movlb	1	; select bank1
  6572  002D  1C91               	btfss	17,1	;volatile
  6573  002E  2830               	goto	u244_21
  6574  002F  2831               	goto	u244_20
  6575  0030                     u244_21:
  6576  0030  283A               	goto	i1l349
  6577  0031                     u244_20:
  6578  0031                     i1l2461:
  6579  0031  0020               	movlb	0	; select bank0
  6580  0032  1C91               	btfss	17,1	;volatile
  6581  0033  2835               	goto	u245_21
  6582  0034  2836               	goto	u245_20
  6583  0035                     u245_21:
  6584  0035  283A               	goto	i1l349
  6585  0036                     u245_20:
  6586  0036                     i1l2463:
  6587                           
  6588                           ;interrupt_manager.c: 66: {;interrupt_manager.c: 67: TMR2_ISR();
  6589  0036  318F  2701  3180   	fcall	_TMR2_ISR
  6590                           
  6591                           ;interrupt_manager.c: 68: }
  6592  0039  283A               	goto	i1l355
  6593  003A                     i1l349:
  6594  003A                     i1l355:	
  6595                           ;interrupt_manager.c: 72: };interrupt_manager.c: 73: }
  6596                           
  6597  003A  107E               	bcf	int$flags,0	;clear compiler interrupt flag (level 1)
  6598  003B  0009               	retfie
  6599  003C                     __end_of_INTERRUPT_InterruptManager:
  6600                           
  6601                           	psect	text27
  6602  0F01                     __ptext27:	
  6603 ;; *************** function _TMR2_ISR *****************
  6604 ;; Defined at:
  6605 ;;		line 119 in file "mcc_generated_files/tmr2.c"
  6606 ;; Parameters:    Size  Location     Type
  6607 ;;		None
  6608 ;; Auto vars:     Size  Location     Type
  6609 ;;		None
  6610 ;; Return value:  Size  Location     Type
  6611 ;;                  1    wreg      void 
  6612 ;; Registers used:
  6613 ;;		wreg, status,2, status,0, pclath, cstack
  6614 ;; Tracked objects:
  6615 ;;		On entry : 0/0
  6616 ;;		On exit  : 0/0
  6617 ;;		Unchanged: 0/0
  6618 ;; Data sizes:     COMMON   BANK0   BANK1   BANK2   BANK3   BANK4   BANK5   BANK6   BANK7   BANK8   BANK9  BANK10  BANK1
      +1  BANK12
  6619 ;;      Params:         0       0       0       0       0       0       0       0       0       0       0       0       
      +0       0
  6620 ;;      Locals:         0       0       0       0       0       0       0       0       0       0       0       0       
      +0       0
  6621 ;;      Temps:          0       0       0       0       0       0       0       0       0       0       0       0       
      +0       0
  6622 ;;      Totals:         0       0       0       0       0       0       0       0       0       0       0       0       
      +0       0
  6623 ;;Total ram usage:        0 bytes
  6624 ;; Hardware stack levels used:    1
  6625 ;; Hardware stack levels required when called:    2
  6626 ;; This function calls:
  6627 ;;		_TMR2_CallBack
  6628 ;; This function is called by:
  6629 ;;		_INTERRUPT_InterruptManager
  6630 ;; This function uses a non-reentrant model
  6631 ;;
  6632                           
  6633                           
  6634                           ;psect for function _TMR2_ISR
  6635  0F01                     _TMR2_ISR:
  6636  0F01                     i1l1965:	
  6637                           ;incstack = 0
  6638                           ; Regs used in _TMR2_ISR: [wreg+status,2+status,0+pclath+cstack]
  6639                           
  6640                           
  6641                           ;tmr2.c: 123: PIR1bits.TMR2IF = 0;
  6642  0F01  0020               	movlb	0	; select bank0
  6643  0F02  1091               	bcf	17,1	;volatile
  6644  0F03                     i1l1967:
  6645                           
  6646                           ;tmr2.c: 127: TMR2_CallBack();
  6647  0F03  318F  2751  318F   	fcall	_TMR2_CallBack
  6648  0F06                     i1l97:
  6649  0F06  0008               	return
  6650  0F07                     __end_of_TMR2_ISR:
  6651                           
  6652                           	psect	text28
  6653  0F51                     __ptext28:	
  6654 ;; *************** function _TMR2_CallBack *****************
  6655 ;; Defined at:
  6656 ;;		line 130 in file "mcc_generated_files/tmr2.c"
  6657 ;; Parameters:    Size  Location     Type
  6658 ;;		None
  6659 ;; Auto vars:     Size  Location     Type
  6660 ;;		None
  6661 ;; Return value:  Size  Location     Type
  6662 ;;                  1    wreg      void 
  6663 ;; Registers used:
  6664 ;;		wreg, status,2, status,0, pclath, cstack
  6665 ;; Tracked objects:
  6666 ;;		On entry : 0/0
  6667 ;;		On exit  : 0/0
  6668 ;;		Unchanged: 0/0
  6669 ;; Data sizes:     COMMON   BANK0   BANK1   BANK2   BANK3   BANK4   BANK5   BANK6   BANK7   BANK8   BANK9  BANK10  BANK1
      +1  BANK12
  6670 ;;      Params:         0       0       0       0       0       0       0       0       0       0       0       0       
      +0       0
  6671 ;;      Locals:         0       0       0       0       0       0       0       0       0       0       0       0       
      +0       0
  6672 ;;      Temps:          0       0       0       0       0       0       0       0       0       0       0       0       
      +0       0
  6673 ;;      Totals:         0       0       0       0       0       0       0       0       0       0       0       0       
      +0       0
  6674 ;;Total ram usage:        0 bytes
  6675 ;; Hardware stack levels used:    1
  6676 ;; Hardware stack levels required when called:    1
  6677 ;; This function calls:
  6678 ;;		Absolute function
  6679 ;;		_TMR2_DefaultInterruptHandler
  6680 ;; This function is called by:
  6681 ;;		_TMR2_ISR
  6682 ;; This function uses a non-reentrant model
  6683 ;;
  6684                           
  6685                           
  6686                           ;psect for function _TMR2_CallBack
  6687  0F51                     _TMR2_CallBack:
  6688  0F51                     i1l1841:	
  6689                           ;incstack = 0
  6690                           ; Regs used in _TMR2_CallBack: [wreg+status,2+status,0+pclath+cstack]
  6691                           
  6692                           
  6693                           ;tmr2.c: 134: if(TMR2_InterruptHandler)
  6694  0F51  0021               	movlb	1	; select bank1
  6695  0F52  0845               	movf	_TMR2_InterruptHandler^(0+128),w
  6696  0F53  0446               	iorwf	(_TMR2_InterruptHandler+1)^(0+128),w
  6697  0F54  1903               	btfsc	3,2
  6698  0F55  2F57               	goto	u128_21
  6699  0F56  2F58               	goto	u128_20
  6700  0F57                     u128_21:
  6701  0F57  2F5D               	goto	i1l101
  6702  0F58                     u128_20:
  6703  0F58                     i1l1843:
  6704                           
  6705                           ;tmr2.c: 135: {;tmr2.c: 136: TMR2_InterruptHandler();
  6706  0F58  0846               	movf	(_TMR2_InterruptHandler+1)^(0+128),w
  6707  0F59  008A               	movwf	10
  6708  0F5A  0845               	movf	_TMR2_InterruptHandler^(0+128),w
  6709  0F5B  000A               	callw
  6710  0F5C  318F               	pagesel	$
  6711  0F5D                     i1l101:
  6712  0F5D  0008               	return
  6713  0F5E                     __end_of_TMR2_CallBack:
  6714                           
  6715                           	psect	text29
  6716  0003                     __ptext29:	
  6717 ;; *************** function _TMR2_DefaultInterruptHandler *****************
  6718 ;; Defined at:
  6719 ;;		line 144 in file "mcc_generated_files/tmr2.c"
  6720 ;; Parameters:    Size  Location     Type
  6721 ;;		None
  6722 ;; Auto vars:     Size  Location     Type
  6723 ;;		None
  6724 ;; Return value:  Size  Location     Type
  6725 ;;                  1    wreg      void 
  6726 ;; Registers used:
  6727 ;;		None
  6728 ;; Tracked objects:
  6729 ;;		On entry : 0/0
  6730 ;;		On exit  : 0/0
  6731 ;;		Unchanged: 0/0
  6732 ;; Data sizes:     COMMON   BANK0   BANK1   BANK2   BANK3   BANK4   BANK5   BANK6   BANK7   BANK8   BANK9  BANK10  BANK1
      +1  BANK12
  6733 ;;      Params:         0       0       0       0       0       0       0       0       0       0       0       0       
      +0       0
  6734 ;;      Locals:         0       0       0       0       0       0       0       0       0       0       0       0       
      +0       0
  6735 ;;      Temps:          0       0       0       0       0       0       0       0       0       0       0       0       
      +0       0
  6736 ;;      Totals:         0       0       0       0       0       0       0       0       0       0       0       0       
      +0       0
  6737 ;;Total ram usage:        0 bytes
  6738 ;; Hardware stack levels used:    1
  6739 ;; This function calls:
  6740 ;;		Nothing
  6741 ;; This function is called by:
  6742 ;;		_TMR2_Initialize
  6743 ;;		_TMR2_CallBack
  6744 ;; This function uses a non-reentrant model
  6745 ;;
  6746                           
  6747                           
  6748                           ;psect for function _TMR2_DefaultInterruptHandler
  6749  0003                     _TMR2_DefaultInterruptHandler:
  6750  0003                     i1l107:	
  6751                           ;incstack = 0
  6752                           ; Regs used in _TMR2_DefaultInterruptHandler: []
  6753                           
  6754  0003  0008               	return
  6755  0004                     __end_of_TMR2_DefaultInterruptHandler:
  6756                           
  6757                           	psect	text30
  6758  0FBA                     __ptext30:	
  6759 ;; *************** function _EUSART_Transmit_ISR *****************
  6760 ;; Defined at:
  6761 ;;		line 206 in file "mcc_generated_files/eusart.c"
  6762 ;; Parameters:    Size  Location     Type
  6763 ;;		None
  6764 ;; Auto vars:     Size  Location     Type
  6765 ;;		None
  6766 ;; Return value:  Size  Location     Type
  6767 ;;                  1    wreg      void 
  6768 ;; Registers used:
  6769 ;;		wreg, fsr1l, fsr1h, status,2, status,0
  6770 ;; Tracked objects:
  6771 ;;		On entry : 0/0
  6772 ;;		On exit  : 0/0
  6773 ;;		Unchanged: 0/0
  6774 ;; Data sizes:     COMMON   BANK0   BANK1   BANK2   BANK3   BANK4   BANK5   BANK6   BANK7   BANK8   BANK9  BANK10  BANK1
      +1  BANK12
  6775 ;;      Params:         0       0       0       0       0       0       0       0       0       0       0       0       
      +0       0
  6776 ;;      Locals:         0       0       0       0       0       0       0       0       0       0       0       0       
      +0       0
  6777 ;;      Temps:          1       0       0       0       0       0       0       0       0       0       0       0       
      +0       0
  6778 ;;      Totals:         1       0       0       0       0       0       0       0       0       0       0       0       
      +0       0
  6779 ;;Total ram usage:        1 bytes
  6780 ;; Hardware stack levels used:    1
  6781 ;; This function calls:
  6782 ;;		Nothing
  6783 ;; This function is called by:
  6784 ;;		_EUSART_Initialize
  6785 ;;		_INTERRUPT_InterruptManager
  6786 ;; This function uses a non-reentrant model
  6787 ;;
  6788                           
  6789                           
  6790                           ;psect for function _EUSART_Transmit_ISR
  6791  0FBA                     _EUSART_Transmit_ISR:
  6792  0FBA                     i1l2005:	
  6793                           ;incstack = 0
  6794                           ; Regs used in _EUSART_Transmit_ISR: [wreg+fsr1l+fsr1h+status,2+status,0]
  6795                           
  6796                           
  6797                           ;eusart.c: 210: if(sizeof(eusartTxBuffer) > eusartTxBufferRemaining)
  6798  0FBA  3008               	movlw	8
  6799  0FBB  0021               	movlb	1	; select bank1
  6800  0FBC  0247               	subwf	_eusartTxBufferRemaining^(0+128),w	;volatile
  6801  0FBD  1803               	skipnc
  6802  0FBE  2FC0               	goto	u148_21
  6803  0FBF  2FC1               	goto	u148_20
  6804  0FC0                     u148_21:
  6805  0FC0  2FDB               	goto	i1l292
  6806  0FC1                     u148_20:
  6807  0FC1                     i1l2007:
  6808                           
  6809                           ;eusart.c: 211: {;eusart.c: 212: TX1REG = eusartTxBuffer[eusartTxTail++];
  6810  0FC1  0020               	movlb	0	; select bank0
  6811  0FC2  086E               	movf	_eusartTxTail,w
  6812  0FC3  3EB0               	addlw	(low (_eusartTxBuffer| 0))& (0+255)
  6813  0FC4  0086               	movwf	6
  6814  0FC5  0187               	clrf	7
  6815  0FC6  0801               	movf	1,w
  6816  0FC7  0023               	movlb	3	; select bank3
  6817  0FC8  009A               	movwf	26	;volatile
  6818  0FC9                     i1l2009:
  6819  0FC9  3001               	movlw	1
  6820  0FCA  00F0               	movwf	??_EUSART_Transmit_ISR
  6821  0FCB  0870               	movf	??_EUSART_Transmit_ISR,w
  6822  0FCC  0020               	movlb	0	; select bank0
  6823  0FCD  07EE               	addwf	_eusartTxTail,f	;volatile
  6824  0FCE                     i1l2011:
  6825                           
  6826                           ;eusart.c: 213: if(sizeof(eusartTxBuffer) <= eusartTxTail)
  6827  0FCE  3008               	movlw	8
  6828  0FCF  026E               	subwf	_eusartTxTail,w	;volatile
  6829  0FD0  1C03               	skipc
  6830  0FD1  2FD3               	goto	u149_21
  6831  0FD2  2FD4               	goto	u149_20
  6832  0FD3                     u149_21:
  6833  0FD3  2FD5               	goto	i1l2015
  6834  0FD4                     u149_20:
  6835  0FD4                     i1l2013:
  6836                           
  6837                           ;eusart.c: 214: {;eusart.c: 215: eusartTxTail = 0;
  6838  0FD4  01EE               	clrf	_eusartTxTail	;volatile
  6839  0FD5                     i1l2015:
  6840                           
  6841                           ;eusart.c: 216: };eusart.c: 217: eusartTxBufferRemaining++;
  6842  0FD5  3001               	movlw	1
  6843  0FD6  00F0               	movwf	??_EUSART_Transmit_ISR
  6844  0FD7  0870               	movf	??_EUSART_Transmit_ISR,w
  6845  0FD8  0021               	movlb	1	; select bank1
  6846  0FD9  07C7               	addwf	_eusartTxBufferRemaining^(0+128),f	;volatile
  6847                           
  6848                           ;eusart.c: 218: }
  6849  0FDA  2FDC               	goto	i1l295
  6850  0FDB                     i1l292:
  6851                           
  6852                           ;eusart.c: 219: else;eusart.c: 220: {;eusart.c: 221: PIE1bits.TXIE = 0;
  6853  0FDB  1211               	bcf	17,4	;volatile
  6854  0FDC                     i1l295:
  6855  0FDC  0008               	return
  6856  0FDD                     __end_of_EUSART_Transmit_ISR:
  6857                           
  6858                           	psect	text31
  6859  0741                     __ptext31:	
  6860 ;; *************** function _EUSART_Receive_ISR *****************
  6861 ;; Defined at:
  6862 ;;		line 225 in file "mcc_generated_files/eusart.c"
  6863 ;; Parameters:    Size  Location     Type
  6864 ;;		None
  6865 ;; Auto vars:     Size  Location     Type
  6866 ;;		None
  6867 ;; Return value:  Size  Location     Type
  6868 ;;                  1    wreg      void 
  6869 ;; Registers used:
  6870 ;;		wreg, fsr1l, fsr1h, status,2, status,0, pclath, cstack
  6871 ;; Tracked objects:
  6872 ;;		On entry : 0/0
  6873 ;;		On exit  : 0/0
  6874 ;;		Unchanged: 0/0
  6875 ;; Data sizes:     COMMON   BANK0   BANK1   BANK2   BANK3   BANK4   BANK5   BANK6   BANK7   BANK8   BANK9  BANK10  BANK1
      +1  BANK12
  6876 ;;      Params:         0       0       0       0       0       0       0       0       0       0       0       0       
      +0       0
  6877 ;;      Locals:         0       0       0       0       0       0       0       0       0       0       0       0       
      +0       0
  6878 ;;      Temps:          0       0       0       0       0       0       0       0       0       0       0       0       
      +0       0
  6879 ;;      Totals:         0       0       0       0       0       0       0       0       0       0       0       0       
      +0       0
  6880 ;;Total ram usage:        0 bytes
  6881 ;; Hardware stack levels used:    1
  6882 ;; Hardware stack levels required when called:    2
  6883 ;; This function calls:
  6884 ;;		Absolute function
  6885 ;;		_EUSART_DefaultErrorHandler
  6886 ;;		_EUSART_DefaultFramingErrorHandler
  6887 ;;		_EUSART_DefaultOverrunErrorHandler
  6888 ;;		_EUSART_RxDataHandler
  6889 ;; This function is called by:
  6890 ;;		_EUSART_Initialize
  6891 ;;		_INTERRUPT_InterruptManager
  6892 ;; This function uses a non-reentrant model
  6893 ;;
  6894                           
  6895                           
  6896                           ;psect for function _EUSART_Receive_ISR
  6897  0741                     _EUSART_Receive_ISR:
  6898  0741                     i1l2017:	
  6899                           ;incstack = 0
  6900                           ; Regs used in _EUSART_Receive_ISR: [wreg+fsr1l+fsr1h+status,2+status,0+pclath+cstack]
  6901                           
  6902                           
  6903                           ;eusart.c: 228: eusartRxStatusBuffer[eusartRxHead].status = 0;
  6904  0741  087C               	movf	_eusartRxHead,w	;volatile
  6905  0742  3EA0               	addlw	(low (_eusartRxStatusBuffer| 0))& (0+255)
  6906  0743  0086               	movwf	6
  6907  0744  0187               	clrf	7
  6908  0745  0181               	clrf	1
  6909  0746                     i1l2019:
  6910                           
  6911                           ;eusart.c: 230: if(RC1STAbits.FERR){
  6912  0746  0023               	movlb	3	; select bank3
  6913  0747  1D1D               	btfss	29,2	;volatile
  6914  0748  2F4A               	goto	u150_21
  6915  0749  2F4B               	goto	u150_20
  6916  074A                     u150_21:
  6917  074A  2F56               	goto	i1l2025
  6918  074B                     u150_20:
  6919  074B                     i1l2021:
  6920                           
  6921                           ;eusart.c: 231: eusartRxStatusBuffer[eusartRxHead].ferr = 1;
  6922  074B  087C               	movf	_eusartRxHead,w	;volatile
  6923  074C  3EA0               	addlw	(low (_eusartRxStatusBuffer| 0))& (0+255)
  6924  074D  0086               	movwf	6
  6925  074E  0187               	clrf	7
  6926  074F  1481               	bsf	1,1
  6927  0750                     i1l2023:
  6928                           
  6929                           ;eusart.c: 232: EUSART_FramingErrorHandler();
  6930  0750  0021               	movlb	1	; select bank1
  6931  0751  0840               	movf	(_EUSART_FramingErrorHandler+1)^(0+128),w
  6932  0752  008A               	movwf	10
  6933  0753  083F               	movf	_EUSART_FramingErrorHandler^(0+128),w
  6934  0754  000A               	callw
  6935  0755  3187               	pagesel	$
  6936  0756                     i1l2025:
  6937                           
  6938                           ;eusart.c: 233: };eusart.c: 235: if(RC1STAbits.OERR){
  6939  0756  0023               	movlb	3	; select bank3
  6940  0757  1C9D               	btfss	29,1	;volatile
  6941  0758  2F5A               	goto	u151_21
  6942  0759  2F5B               	goto	u151_20
  6943  075A                     u151_21:
  6944  075A  2F66               	goto	i1l2031
  6945  075B                     u151_20:
  6946  075B                     i1l2027:
  6947                           
  6948                           ;eusart.c: 236: eusartRxStatusBuffer[eusartRxHead].oerr = 1;
  6949  075B  087C               	movf	_eusartRxHead,w	;volatile
  6950  075C  3EA0               	addlw	(low (_eusartRxStatusBuffer| 0))& (0+255)
  6951  075D  0086               	movwf	6
  6952  075E  0187               	clrf	7
  6953  075F  1501               	bsf	1,2
  6954  0760                     i1l2029:
  6955                           
  6956                           ;eusart.c: 237: EUSART_OverrunErrorHandler();
  6957  0760  0021               	movlb	1	; select bank1
  6958  0761  083E               	movf	(_EUSART_OverrunErrorHandler+1)^(0+128),w
  6959  0762  008A               	movwf	10
  6960  0763  083D               	movf	_EUSART_OverrunErrorHandler^(0+128),w
  6961  0764  000A               	callw
  6962  0765  3187               	pagesel	$
  6963  0766                     i1l2031:
  6964                           
  6965                           ;eusart.c: 238: };eusart.c: 240: if(eusartRxStatusBuffer[eusartRxHead].status){
  6966  0766  087C               	movf	_eusartRxHead,w	;volatile
  6967  0767  3EA0               	addlw	(low (_eusartRxStatusBuffer| 0))& (0+255)
  6968  0768  0086               	movwf	6
  6969  0769  0187               	clrf	7
  6970  076A  0801               	movf	1,w
  6971  076B  1903               	btfsc	3,2
  6972  076C  2F6E               	goto	u152_21
  6973  076D  2F6F               	goto	u152_20
  6974  076E                     u152_21:
  6975  076E  2F76               	goto	i1l2035
  6976  076F                     u152_20:
  6977  076F                     i1l2033:
  6978                           
  6979                           ;eusart.c: 241: EUSART_ErrorHandler();
  6980  076F  0021               	movlb	1	; select bank1
  6981  0770  083C               	movf	(_EUSART_ErrorHandler+1)^(0+128),w
  6982  0771  008A               	movwf	10
  6983  0772  083B               	movf	_EUSART_ErrorHandler^(0+128),w
  6984  0773  000A               	callw
  6985  0774  3187               	pagesel	$
  6986                           
  6987                           ;eusart.c: 242: } else {
  6988  0775  2F79               	goto	i1l302
  6989  0776                     i1l2035:
  6990                           
  6991                           ;eusart.c: 243: EUSART_RxDataHandler();
  6992  0776  318F  2786  3187   	fcall	_EUSART_RxDataHandler
  6993  0779                     i1l302:
  6994  0779  0008               	return
  6995  077A                     __end_of_EUSART_Receive_ISR:
  6996                           
  6997                           	psect	text32
  6998  0EF9                     __ptext32:	
  6999 ;; *************** function _EUSART_DefaultOverrunErrorHandler *****************
  7000 ;; Defined at:
  7001 ;;		line 261 in file "mcc_generated_files/eusart.c"
  7002 ;; Parameters:    Size  Location     Type
  7003 ;;		None
  7004 ;; Auto vars:     Size  Location     Type
  7005 ;;		None
  7006 ;; Return value:  Size  Location     Type
  7007 ;;                  1    wreg      void 
  7008 ;; Registers used:
  7009 ;;		None
  7010 ;; Tracked objects:
  7011 ;;		On entry : 0/0
  7012 ;;		On exit  : 0/0
  7013 ;;		Unchanged: 0/0
  7014 ;; Data sizes:     COMMON   BANK0   BANK1   BANK2   BANK3   BANK4   BANK5   BANK6   BANK7   BANK8   BANK9  BANK10  BANK1
      +1  BANK12
  7015 ;;      Params:         0       0       0       0       0       0       0       0       0       0       0       0       
      +0       0
  7016 ;;      Locals:         0       0       0       0       0       0       0       0       0       0       0       0       
      +0       0
  7017 ;;      Temps:          0       0       0       0       0       0       0       0       0       0       0       0       
      +0       0
  7018 ;;      Totals:         0       0       0       0       0       0       0       0       0       0       0       0       
      +0       0
  7019 ;;Total ram usage:        0 bytes
  7020 ;; Hardware stack levels used:    1
  7021 ;; This function calls:
  7022 ;;		Nothing
  7023 ;; This function is called by:
  7024 ;;		_EUSART_Initialize
  7025 ;;		_EUSART_Receive_ISR
  7026 ;; This function uses a non-reentrant model
  7027 ;;
  7028                           
  7029                           
  7030                           ;psect for function _EUSART_DefaultOverrunErrorHandler
  7031  0EF9                     _EUSART_DefaultOverrunErrorHandler:
  7032  0EF9                     i1l1899:	
  7033                           ;incstack = 0
  7034                           ; Regs used in _EUSART_DefaultOverrunErrorHandler: []
  7035                           
  7036                           
  7037                           ;eusart.c: 264: RC1STAbits.CREN = 0;
  7038  0EF9  0023               	movlb	3	; select bank3
  7039  0EFA  121D               	bcf	29,4	;volatile
  7040                           
  7041                           ;eusart.c: 265: RC1STAbits.CREN = 1;
  7042  0EFB  161D               	bsf	29,4	;volatile
  7043  0EFC                     i1l312:
  7044  0EFC  0008               	return
  7045  0EFD                     __end_of_EUSART_DefaultOverrunErrorHandler:
  7046                           
  7047                           	psect	text33
  7048  0002                     __ptext33:	
  7049 ;; *************** function _EUSART_DefaultFramingErrorHandler *****************
  7050 ;; Defined at:
  7051 ;;		line 259 in file "mcc_generated_files/eusart.c"
  7052 ;; Parameters:    Size  Location     Type
  7053 ;;		None
  7054 ;; Auto vars:     Size  Location     Type
  7055 ;;		None
  7056 ;; Return value:  Size  Location     Type
  7057 ;;                  1    wreg      void 
  7058 ;; Registers used:
  7059 ;;		None
  7060 ;; Tracked objects:
  7061 ;;		On entry : 0/0
  7062 ;;		On exit  : 0/0
  7063 ;;		Unchanged: 0/0
  7064 ;; Data sizes:     COMMON   BANK0   BANK1   BANK2   BANK3   BANK4   BANK5   BANK6   BANK7   BANK8   BANK9  BANK10  BANK1
      +1  BANK12
  7065 ;;      Params:         0       0       0       0       0       0       0       0       0       0       0       0       
      +0       0
  7066 ;;      Locals:         0       0       0       0       0       0       0       0       0       0       0       0       
      +0       0
  7067 ;;      Temps:          0       0       0       0       0       0       0       0       0       0       0       0       
      +0       0
  7068 ;;      Totals:         0       0       0       0       0       0       0       0       0       0       0       0       
      +0       0
  7069 ;;Total ram usage:        0 bytes
  7070 ;; Hardware stack levels used:    1
  7071 ;; This function calls:
  7072 ;;		Nothing
  7073 ;; This function is called by:
  7074 ;;		_EUSART_Initialize
  7075 ;;		_EUSART_Receive_ISR
  7076 ;; This function uses a non-reentrant model
  7077 ;;
  7078                           
  7079                           
  7080                           ;psect for function _EUSART_DefaultFramingErrorHandler
  7081  0002                     _EUSART_DefaultFramingErrorHandler:
  7082  0002                     i1l309:	
  7083                           ;incstack = 0
  7084                           ; Regs used in _EUSART_DefaultFramingErrorHandler: []
  7085                           
  7086  0002  0008               	return
  7087  0003                     __end_of_EUSART_DefaultFramingErrorHandler:
  7088                           
  7089                           	psect	text34
  7090  0EF5                     __ptext34:	
  7091 ;; *************** function _EUSART_DefaultErrorHandler *****************
  7092 ;; Defined at:
  7093 ;;		line 269 in file "mcc_generated_files/eusart.c"
  7094 ;; Parameters:    Size  Location     Type
  7095 ;;		None
  7096 ;; Auto vars:     Size  Location     Type
  7097 ;;		None
  7098 ;; Return value:  Size  Location     Type
  7099 ;;                  1    wreg      void 
  7100 ;; Registers used:
  7101 ;;		wreg, fsr1l, fsr1h, status,2, status,0, pclath, cstack
  7102 ;; Tracked objects:
  7103 ;;		On entry : 0/0
  7104 ;;		On exit  : 0/0
  7105 ;;		Unchanged: 0/0
  7106 ;; Data sizes:     COMMON   BANK0   BANK1   BANK2   BANK3   BANK4   BANK5   BANK6   BANK7   BANK8   BANK9  BANK10  BANK1
      +1  BANK12
  7107 ;;      Params:         0       0       0       0       0       0       0       0       0       0       0       0       
      +0       0
  7108 ;;      Locals:         0       0       0       0       0       0       0       0       0       0       0       0       
      +0       0
  7109 ;;      Temps:          0       0       0       0       0       0       0       0       0       0       0       0       
      +0       0
  7110 ;;      Totals:         0       0       0       0       0       0       0       0       0       0       0       0       
      +0       0
  7111 ;;Total ram usage:        0 bytes
  7112 ;; Hardware stack levels used:    1
  7113 ;; Hardware stack levels required when called:    1
  7114 ;; This function calls:
  7115 ;;		_EUSART_RxDataHandler
  7116 ;; This function is called by:
  7117 ;;		_EUSART_Initialize
  7118 ;;		_EUSART_Receive_ISR
  7119 ;; This function uses a non-reentrant model
  7120 ;;
  7121                           
  7122                           
  7123                           ;psect for function _EUSART_DefaultErrorHandler
  7124  0EF5                     _EUSART_DefaultErrorHandler:
  7125  0EF5                     i1l1901:	
  7126                           ;incstack = 0
  7127                           ; Regs used in _EUSART_DefaultErrorHandler: [wreg+fsr1l+fsr1h+status,2+status,0+pclath+c
      +                          stack]
  7128                           
  7129                           
  7130                           ;eusart.c: 270: EUSART_RxDataHandler();
  7131  0EF5  318F  2786  318E   	fcall	_EUSART_RxDataHandler
  7132  0EF8                     i1l315:
  7133  0EF8  0008               	return
  7134  0EF9                     __end_of_EUSART_DefaultErrorHandler:
  7135                           
  7136                           	psect	text35
  7137  0F86                     __ptext35:	
  7138 ;; *************** function _EUSART_RxDataHandler *****************
  7139 ;; Defined at:
  7140 ;;		line 249 in file "mcc_generated_files/eusart.c"
  7141 ;; Parameters:    Size  Location     Type
  7142 ;;		None
  7143 ;; Auto vars:     Size  Location     Type
  7144 ;;		None
  7145 ;; Return value:  Size  Location     Type
  7146 ;;                  1    wreg      void 
  7147 ;; Registers used:
  7148 ;;		wreg, fsr1l, fsr1h, status,2, status,0
  7149 ;; Tracked objects:
  7150 ;;		On entry : 0/0
  7151 ;;		On exit  : 0/0
  7152 ;;		Unchanged: 0/0
  7153 ;; Data sizes:     COMMON   BANK0   BANK1   BANK2   BANK3   BANK4   BANK5   BANK6   BANK7   BANK8   BANK9  BANK10  BANK1
      +1  BANK12
  7154 ;;      Params:         0       0       0       0       0       0       0       0       0       0       0       0       
      +0       0
  7155 ;;      Locals:         0       0       0       0       0       0       0       0       0       0       0       0       
      +0       0
  7156 ;;      Temps:          1       0       0       0       0       0       0       0       0       0       0       0       
      +0       0
  7157 ;;      Totals:         1       0       0       0       0       0       0       0       0       0       0       0       
      +0       0
  7158 ;;Total ram usage:        1 bytes
  7159 ;; Hardware stack levels used:    1
  7160 ;; This function calls:
  7161 ;;		Nothing
  7162 ;; This function is called by:
  7163 ;;		_EUSART_Receive_ISR
  7164 ;;		_EUSART_DefaultErrorHandler
  7165 ;; This function uses a non-reentrant model
  7166 ;;
  7167                           
  7168                           
  7169                           ;psect for function _EUSART_RxDataHandler
  7170  0F86                     _EUSART_RxDataHandler:
  7171  0F86                     i1l1781:	
  7172                           ;incstack = 0
  7173                           ; Regs used in _EUSART_RxDataHandler: [wreg+fsr1l+fsr1h+status,2+status,0]
  7174                           
  7175                           
  7176                           ;eusart.c: 251: eusartRxBuffer[eusartRxHead++] = RC1REG;
  7177  0F86  0023               	movlb	3	; select bank3
  7178  0F87  0819               	movf	25,w	;volatile
  7179  0F88  00F0               	movwf	??_EUSART_RxDataHandler
  7180  0F89  087C               	movf	_eusartRxHead,w
  7181  0F8A  3EA8               	addlw	(low (_eusartRxBuffer| 0))& (0+255)
  7182  0F8B  0086               	movwf	6
  7183  0F8C  0187               	clrf	7
  7184  0F8D  0870               	movf	??_EUSART_RxDataHandler,w
  7185  0F8E  0081               	movwf	1
  7186  0F8F                     i1l1783:
  7187  0F8F  3001               	movlw	1
  7188  0F90  00F0               	movwf	??_EUSART_RxDataHandler
  7189  0F91  0870               	movf	??_EUSART_RxDataHandler,w
  7190  0F92  07FC               	addwf	_eusartRxHead,f	;volatile
  7191  0F93                     i1l1785:
  7192                           
  7193                           ;eusart.c: 252: if(sizeof(eusartRxBuffer) <= eusartRxHead)
  7194  0F93  3008               	movlw	8
  7195  0F94  027C               	subwf	_eusartRxHead,w	;volatile
  7196  0F95  1C03               	skipc
  7197  0F96  2F98               	goto	u127_21
  7198  0F97  2F99               	goto	u127_20
  7199  0F98                     u127_21:
  7200  0F98  2F9A               	goto	i1l1789
  7201  0F99                     u127_20:
  7202  0F99                     i1l1787:
  7203                           
  7204                           ;eusart.c: 253: {;eusart.c: 254: eusartRxHead = 0;
  7205  0F99  01FC               	clrf	_eusartRxHead	;volatile
  7206  0F9A                     i1l1789:
  7207                           
  7208                           ;eusart.c: 255: };eusart.c: 256: eusartRxCount++;
  7209  0F9A  3001               	movlw	1
  7210  0F9B  00F0               	movwf	??_EUSART_RxDataHandler
  7211  0F9C  0870               	movf	??_EUSART_RxDataHandler,w
  7212  0F9D  0020               	movlb	0	; select bank0
  7213  0F9E  07EC               	addwf	_eusartRxCount,f	;volatile
  7214  0F9F                     i1l306:
  7215  0F9F  0008               	return
  7216  0FA0                     __end_of_EUSART_RxDataHandler:
  7217  007E                     btemp	set	126	;btemp
  7218  007E                     int$flags	set	126
  7219  007E                     wtemp0	set	126
  7220                           
  7221                           	psect	config
  7222                           
  7223                           ;Config register CONFIG1 @ 0x8007
  7224                           ;	Oscillator Selection Bits
  7225                           ;	FOSC = INTOSC, INTOSC oscillator: I/O function on CLKIN pin
  7226                           ;	Watchdog Timer Enable
  7227                           ;	WDTE = OFF, WDT disabled
  7228                           ;	Power-up Timer Enable
  7229                           ;	PWRTE = OFF, PWRT disabled
  7230                           ;	MCLR Pin Function Select
  7231                           ;	MCLRE = ON, MCLR/VPP pin function is MCLR
  7232                           ;	Flash Program Memory Code Protection
  7233                           ;	CP = OFF, Program memory code protection is disabled
  7234                           ;	Brown-out Reset Enable
  7235                           ;	BOREN = OFF, Brown-out Reset disabled
  7236                           ;	Clock Out Enable
  7237                           ;	CLKOUTEN = OFF, CLKOUT function is disabled. I/O or oscillator function on the CLKOUT 
      +                          pin
  7238                           ;	Internal/External Switchover Mode
  7239                           ;	IESO = ON, Internal/External Switchover Mode is enabled
  7240                           ;	Fail-Safe Clock Monitor Enable
  7241                           ;	FCMEN = ON, Fail-Safe Clock Monitor is enabled
  7242  8007                     	org	32775
  7243  8007  39E4               	dw	14820
  7244                           
  7245                           ;Config register CONFIG2 @ 0x8008
  7246                           ;	Flash Memory Self-Write Protection
  7247                           ;	WRT = OFF, Write protection off
  7248                           ;	Peripheral Pin Select one-way control
  7249                           ;	PPS1WAY = ON, The PPSLOCK bit cannot be cleared once it is set by software
  7250                           ;	Zero-cross detect disable
  7251                           ;	ZCDDIS = ON, Zero-cross detect circuit is disabled at POR
  7252                           ;	Phase Lock Loop enable
  7253                           ;	PLLEN = OFF, 4x PLL is enabled when software sets the SPLLEN bit
  7254                           ;	Stack Overflow/Underflow Reset Enable
  7255                           ;	STVREN = ON, Stack Overflow or Underflow will cause a Reset
  7256                           ;	Brown-out Reset Voltage Selection
  7257                           ;	BORV = LO, Brown-out Reset Voltage (Vbor), low trip point selected.
  7258                           ;	Low-Power Brown Out Reset
  7259                           ;	LPBOR = OFF, Low-Power BOR is disabled
  7260                           ;	Low-Voltage Programming Enable
  7261                           ;	LVP = OFF, High-voltage on MCLR/VPP must be used for programming
  7262  8008                     	org	32776
  7263  8008  1EFF               	dw	7935

Data Sizes:
    Strings     5
    Constant    10
    Data        0
    BSS         32
    Persistent  45
    Stack       0

Auto Spaces:
    Space          Size  Autos    Used
    COMMON           14     12      13
    BANK0            80     76      80
    BANK1            80      0      40
    BANK2            80      0       0
    BANK3            80      0       0
    BANK4            80      0       0
    BANK5            80      0       0
    BANK6            80      0       0
    BANK7            80      0       0
    BANK8            80      0       0
    BANK9            80      0       0
    BANK10           80      0       0
    BANK11           80      0       0
    BANK12           48      0       0

Pointer List with Targets:

    ADC_InterruptHandler	PTR FTN()void  size(2) Largest target is 1
		 -> Absolute function(), 

    printf@f	PTR const unsigned char  size(2) Largest target is 5
		 -> STR_1(CODE[5]), 

    printf@ap	PTR void [1] size(1) Largest target is 2
		 -> ?_printf(BANK0[2]), 

    EUSART_SetRxInterruptHandler@interruptHandler	PTR FTN()void  size(2) Largest target is 1
		 -> EUSART_Receive_ISR(), 

    EUSART_RxDefaultInterruptHandler	PTR FTN()void  size(2) Largest target is 1
		 -> EUSART_Receive_ISR(), Absolute function(), 

    EUSART_SetTxInterruptHandler@interruptHandler	PTR FTN()void  size(2) Largest target is 1
		 -> EUSART_Transmit_ISR(), 

    EUSART_TxDefaultInterruptHandler	PTR FTN()void  size(2) Largest target is 1
		 -> EUSART_Transmit_ISR(), Absolute function(), 

    EUSART_SetErrorHandler@interruptHandler	PTR FTN()void  size(2) Largest target is 1
		 -> EUSART_DefaultErrorHandler(), 

    EUSART_SetOverrunErrorHandler@interruptHandler	PTR FTN()void  size(2) Largest target is 1
		 -> EUSART_DefaultOverrunErrorHandler(), 

    EUSART_SetFramingErrorHandler@interruptHandler	PTR FTN()void  size(2) Largest target is 1
		 -> EUSART_DefaultFramingErrorHandler(), 

    EUSART_ErrorHandler	PTR FTN()void  size(2) Largest target is 1
		 -> EUSART_DefaultErrorHandler(), Absolute function(), 

    EUSART_OverrunErrorHandler	PTR FTN()void  size(2) Largest target is 1
		 -> EUSART_DefaultOverrunErrorHandler(), Absolute function(), 

    EUSART_FramingErrorHandler	PTR FTN()void  size(2) Largest target is 1
		 -> EUSART_DefaultFramingErrorHandler(), Absolute function(), 

    TMR2_SetInterruptHandler@InterruptHandler	PTR FTN()void  size(2) Largest target is 1
		 -> TMR2_DefaultInterruptHandler(), 

    TMR2_InterruptHandler	PTR FTN()void  size(2) Largest target is 1
		 -> Absolute function(), TMR2_DefaultInterruptHandler(), 


Critical Paths under _main in COMMON

    _main->___fltol
    _printf->___lwmod
    _putch->_EUSART_Write
    ___lwmod->___lwdiv
    ___flmul->__Umul8_16
    ___fldiv->___xxtofl
    _SYSTEM_Initialize->_EUSART_Initialize
    _TMR2_Initialize->_TMR2_SetInterruptHandler
    _EUSART_Initialize->_EUSART_SetErrorHandler
    _EUSART_Initialize->_EUSART_SetFramingErrorHandler
    _EUSART_Initialize->_EUSART_SetOverrunErrorHandler
    _EUSART_Initialize->_EUSART_SetRxInterruptHandler
    _EUSART_Initialize->_EUSART_SetTxInterruptHandler

Critical Paths under _INTERRUPT_InterruptManager in COMMON

    _INTERRUPT_InterruptManager->_EUSART_Transmit_ISR
    _EUSART_Receive_ISR->_EUSART_RxDataHandler
    _EUSART_DefaultErrorHandler->_EUSART_RxDataHandler

Critical Paths under _main in BANK0

    _main->___fltol
    _printf->___lwmod
    ___fltol->___flmul
    ___flmul->___fldiv
    ___fldiv->___xxtofl

Critical Paths under _INTERRUPT_InterruptManager in BANK0

    None.

Critical Paths under _main in BANK1

    None.

Critical Paths under _INTERRUPT_InterruptManager in BANK1

    None.

Critical Paths under _main in BANK2

    None.

Critical Paths under _INTERRUPT_InterruptManager in BANK2

    None.

Critical Paths under _main in BANK3

    None.

Critical Paths under _INTERRUPT_InterruptManager in BANK3

    None.

Critical Paths under _main in BANK4

    None.

Critical Paths under _INTERRUPT_InterruptManager in BANK4

    None.

Critical Paths under _main in BANK5

    None.

Critical Paths under _INTERRUPT_InterruptManager in BANK5

    None.

Critical Paths under _main in BANK6

    None.

Critical Paths under _INTERRUPT_InterruptManager in BANK6

    None.

Critical Paths under _main in BANK7

    None.

Critical Paths under _INTERRUPT_InterruptManager in BANK7

    None.

Critical Paths under _main in BANK8

    None.

Critical Paths under _INTERRUPT_InterruptManager in BANK8

    None.

Critical Paths under _main in BANK9

    None.

Critical Paths under _INTERRUPT_InterruptManager in BANK9

    None.

Critical Paths under _main in BANK10

    None.

Critical Paths under _INTERRUPT_InterruptManager in BANK10

    None.

Critical Paths under _main in BANK11

    None.

Critical Paths under _INTERRUPT_InterruptManager in BANK11

    None.

Critical Paths under _main in BANK12

    None.

Critical Paths under _INTERRUPT_InterruptManager in BANK12

    None.

Call Graph Tables:

 ---------------------------------------------------------------------------------
 (Depth) Function   	        Calls       Base Space   Used Autos Params    Refs
 ---------------------------------------------------------------------------------
 (0) _main                                                11    11      0    6691
                                             67 BANK0      9     9      0
                  _ADC_GetConversion
                  _SYSTEM_Initialize
                            ___fldiv
                            ___flmul
                            ___fltol
                           ___xxtofl
                             _printf
 ---------------------------------------------------------------------------------
 (1) _printf                                              22    18      4    1445
                                              4 BANK0     14    10      4
                            ___lwdiv
                            ___lwmod
                              _putch
 ---------------------------------------------------------------------------------
 (2) _putch                                                1     1      0      66
                                              3 COMMON     1     1      0
                       _EUSART_Write
 ---------------------------------------------------------------------------------
 (3) _EUSART_Write                                         2     2      0      44
                                              1 COMMON     2     2      0
 ---------------------------------------------------------------------------------
 (2) ___lwmod                                              6     2      4     412
                                              9 COMMON     2     2      0
                                              0 BANK0      4     0      4
                            ___lwdiv (ARG)
 ---------------------------------------------------------------------------------
 (2) ___lwdiv                                              8     4      4     314
                                              1 COMMON     8     4      4
 ---------------------------------------------------------------------------------
 (1) ___xxtofl                                            14    10      4     474
                                              1 COMMON     8     4      4
                                              0 BANK0      6     6      0
 ---------------------------------------------------------------------------------
 (1) ___fltol                                             11     7      4     305
                                             10 COMMON     2     2      0
                                             58 BANK0      9     5      4
                            ___fldiv (ARG)
                            ___flmul (ARG)
                           ___xxtofl (ARG)
 ---------------------------------------------------------------------------------
 (1) ___flmul                                             26    18      8    2417
                                             32 BANK0     26    18      8
                          __Umul8_16
                            ___fldiv (ARG)
                           ___xxtofl (ARG)
 ---------------------------------------------------------------------------------
 (2) __Umul8_16                                            9     7      2     799
                                              1 COMMON     9     7      2
 ---------------------------------------------------------------------------------
 (1) ___fldiv                                             26    18      8    1273
                                              6 BANK0     26    18      8
                           ___xxtofl (ARG)
 ---------------------------------------------------------------------------------
 (1) _SYSTEM_Initialize                                    0     0      0     588
                     _ADC_Initialize
                  _EUSART_Initialize
              _OSCILLATOR_Initialize
             _PIN_MANAGER_Initialize
                    _PWM1_Initialize
                    _TMR2_Initialize
                     _WDT_Initialize
 ---------------------------------------------------------------------------------
 (2) _WDT_Initialize                                       0     0      0       0
 ---------------------------------------------------------------------------------
 (2) _TMR2_Initialize                                      0     0      0      98
           _TMR2_SetInterruptHandler
 ---------------------------------------------------------------------------------
 (3) _TMR2_SetInterruptHandler                             2     0      2      98
                                              1 COMMON     2     0      2
 ---------------------------------------------------------------------------------
 (2) _PWM1_Initialize                                      0     0      0       0
 ---------------------------------------------------------------------------------
 (2) _PIN_MANAGER_Initialize                               0     0      0       0
 ---------------------------------------------------------------------------------
 (2) _OSCILLATOR_Initialize                                0     0      0       0
 ---------------------------------------------------------------------------------
 (2) _EUSART_Initialize                                    1     1      0     490
                                              3 COMMON     1     1      0
             _EUSART_SetErrorHandler
      _EUSART_SetFramingErrorHandler
      _EUSART_SetOverrunErrorHandler
       _EUSART_SetRxInterruptHandler
       _EUSART_SetTxInterruptHandler
 ---------------------------------------------------------------------------------
 (3) _EUSART_SetTxInterruptHandler                         2     0      2      98
                                              1 COMMON     2     0      2
 ---------------------------------------------------------------------------------
 (3) _EUSART_SetRxInterruptHandler                         2     0      2      98
                                              1 COMMON     2     0      2
 ---------------------------------------------------------------------------------
 (3) _EUSART_SetOverrunErrorHandler                        2     0      2      98
                                              1 COMMON     2     0      2
 ---------------------------------------------------------------------------------
 (3) _EUSART_SetFramingErrorHandler                        2     0      2      98
                                              1 COMMON     2     0      2
 ---------------------------------------------------------------------------------
 (3) _EUSART_SetErrorHandler                               2     0      2      98
                                              1 COMMON     2     0      2
 ---------------------------------------------------------------------------------
 (2) _ADC_Initialize                                       0     0      0       0
 ---------------------------------------------------------------------------------
 (1) _ADC_GetConversion                                    4     2      2      22
                                              1 COMMON     4     2      2
 ---------------------------------------------------------------------------------
 Estimated maximum stack depth 3
 ---------------------------------------------------------------------------------
 (Depth) Function   	        Calls       Base Space   Used Autos Params    Refs
 ---------------------------------------------------------------------------------
 (4) _INTERRUPT_InterruptManager                           0     0      0       0
                   Absolute function *
                 _EUSART_Receive_ISR *
                _EUSART_Transmit_ISR *
                           _TMR2_ISR
 ---------------------------------------------------------------------------------
 (5) _TMR2_ISR                                             0     0      0       0
                      _TMR2_CallBack
 ---------------------------------------------------------------------------------
 (6) _TMR2_CallBack                                        0     0      0       0
                   Absolute function *
       _TMR2_DefaultInterruptHandler *
 ---------------------------------------------------------------------------------
 (7) _TMR2_DefaultInterruptHandler                         0     0      0       0
 ---------------------------------------------------------------------------------
 (5) _EUSART_Transmit_ISR                                  1     1      0       0
                                              0 COMMON     1     1      0
 ---------------------------------------------------------------------------------
 (5) _EUSART_Receive_ISR                                   0     0      0       0
                   Absolute function *
         _EUSART_DefaultErrorHandler *
  _EUSART_DefaultFramingErrorHandler *
  _EUSART_DefaultOverrunErrorHandler *
               _EUSART_RxDataHandler
 ---------------------------------------------------------------------------------
 (6) _EUSART_DefaultOverrunErrorHandler                    0     0      0       0
 ---------------------------------------------------------------------------------
 (6) _EUSART_DefaultFramingErrorHandler                    0     0      0       0
 ---------------------------------------------------------------------------------
 (6) _EUSART_DefaultErrorHandler                           0     0      0       0
               _EUSART_RxDataHandler
 ---------------------------------------------------------------------------------
 (6) _EUSART_RxDataHandler                                 1     1      0       0
                                              0 COMMON     1     1      0
 ---------------------------------------------------------------------------------
 (7) Absolute function(Fake)                               0     0      0       0
 ---------------------------------------------------------------------------------
 Estimated maximum stack depth 7
 ---------------------------------------------------------------------------------

 Call Graph Graphs:

 _main (ROOT)
   _ADC_GetConversion
   _SYSTEM_Initialize
     _ADC_Initialize
     _EUSART_Initialize
       _EUSART_SetErrorHandler
       _EUSART_SetFramingErrorHandler
       _EUSART_SetOverrunErrorHandler
       _EUSART_SetRxInterruptHandler
       _EUSART_SetTxInterruptHandler
     _OSCILLATOR_Initialize
     _PIN_MANAGER_Initialize
     _PWM1_Initialize
     _TMR2_Initialize
       _TMR2_SetInterruptHandler
     _WDT_Initialize
   ___fldiv
     ___xxtofl (ARG)
   ___flmul
     __Umul8_16
     ___fldiv (ARG)
       ___xxtofl (ARG)
     ___xxtofl (ARG)
   ___fltol
     ___fldiv (ARG)
       ___xxtofl (ARG)
     ___flmul (ARG)
       __Umul8_16
       ___fldiv (ARG)
         ___xxtofl (ARG)
       ___xxtofl (ARG)
     ___xxtofl (ARG)
   ___xxtofl
   _printf
     ___lwdiv
     ___lwmod
       ___lwdiv (ARG)
     _putch
       _EUSART_Write

 _INTERRUPT_InterruptManager (ROOT)
   Absolute function(Fake) *
   _EUSART_Receive_ISR *
     Absolute function(Fake) *
     _EUSART_DefaultErrorHandler *
       _EUSART_RxDataHandler
     _EUSART_DefaultFramingErrorHandler *
     _EUSART_DefaultOverrunErrorHandler *
     _EUSART_RxDataHandler *
   _EUSART_Transmit_ISR *
   _TMR2_ISR *
     _TMR2_CallBack
       Absolute function(Fake) *
       _TMR2_DefaultInterruptHandler *

 Address spaces:
Name               Size   Autos  Total    Cost      Usage
BIGRAM             3F0      0       0       0        0.0%
NULL                 0      0       0       0        0.0%
CODE                 0      0       0       0        0.0%
BITCOMMON            E      0       0       1        0.0%
BITSFR0              0      0       0       1        0.0%
SFR0                 0      0       0       1        0.0%
COMMON               E      C       D       2       92.9%
BITSFR1              0      0       0       2        0.0%
SFR1                 0      0       0       2        0.0%
BITSFR2              0      0       0       3        0.0%
SFR2                 0      0       0       3        0.0%
STACK                0      0       0       3        0.0%
BITBANK0            50      0       0       4        0.0%
BITSFR3              0      0       0       4        0.0%
SFR3                 0      0       0       4        0.0%
BANK0               50     4C      50       5      100.0%
BITSFR4              0      0       0       5        0.0%
SFR4                 0      0       0       5        0.0%
BITBANK1            50      0       0       6        0.0%
BITSFR5              0      0       0       6        0.0%
SFR5                 0      0       0       6        0.0%
BANK1               50      0      28       7       50.0%
BITSFR6              0      0       0       7        0.0%
SFR6                 0      0       0       7        0.0%
BITBANK2            50      0       0       8        0.0%
BITSFR7              0      0       0       8        0.0%
SFR7                 0      0       0       8        0.0%
BANK2               50      0       0       9        0.0%
BITSFR8              0      0       0       9        0.0%
SFR8                 0      0       0       9        0.0%
BITBANK3            50      0       0      10        0.0%
BITSFR9              0      0       0      10        0.0%
SFR9                 0      0       0      10        0.0%
BANK3               50      0       0      11        0.0%
BITSFR10             0      0       0      11        0.0%
SFR10                0      0       0      11        0.0%
BITBANK4            50      0       0      12        0.0%
BITSFR11             0      0       0      12        0.0%
SFR11                0      0       0      12        0.0%
BANK4               50      0       0      13        0.0%
BITSFR12             0      0       0      13        0.0%
SFR12                0      0       0      13        0.0%
BITBANK5            50      0       0      14        0.0%
BITSFR13             0      0       0      14        0.0%
SFR13                0      0       0      14        0.0%
BANK5               50      0       0      15        0.0%
BITSFR14             0      0       0      15        0.0%
SFR14                0      0       0      15        0.0%
BITBANK6            50      0       0      16        0.0%
BITSFR15             0      0       0      16        0.0%
SFR15                0      0       0      16        0.0%
BANK6               50      0       0      17        0.0%
BITSFR16             0      0       0      17        0.0%
SFR16                0      0       0      17        0.0%
BITBANK7            50      0       0      18        0.0%
BITSFR17             0      0       0      18        0.0%
SFR17                0      0       0      18        0.0%
BANK7               50      0       0      19        0.0%
BITSFR18             0      0       0      19        0.0%
SFR18                0      0       0      19        0.0%
BITSFR19             0      0       0      20        0.0%
SFR19                0      0       0      20        0.0%
ABS                  0      0      85      20        0.0%
BITBANK8            50      0       0      21        0.0%
BITSFR20             0      0       0      21        0.0%
SFR20                0      0       0      21        0.0%
BANK8               50      0       0      22        0.0%
BITSFR21             0      0       0      22        0.0%
SFR21                0      0       0      22        0.0%
BITBANK9            50      0       0      23        0.0%
BITSFR22             0      0       0      23        0.0%
SFR22                0      0       0      23        0.0%
BANK9               50      0       0      24        0.0%
BITSFR23             0      0       0      24        0.0%
SFR23                0      0       0      24        0.0%
BITBANK10           50      0       0      25        0.0%
BITSFR24             0      0       0      25        0.0%
SFR24                0      0       0      25        0.0%
BANK10              50      0       0      26        0.0%
BITSFR25             0      0       0      26        0.0%
SFR25                0      0       0      26        0.0%
BITBANK11           50      0       0      27        0.0%
BITSFR26             0      0       0      27        0.0%
SFR26                0      0       0      27        0.0%
BANK11              50      0       0      28        0.0%
BITSFR27             0      0       0      28        0.0%
SFR27                0      0       0      28        0.0%
BITBANK12           30      0       0      29        0.0%
BITSFR28             0      0       0      29        0.0%
SFR28                0      0       0      29        0.0%
BANK12              30      0       0      30        0.0%
BITSFR29             0      0       0      30        0.0%
SFR29                0      0       0      30        0.0%
BITSFR30             0      0       0      31        0.0%
SFR30                0      0       0      31        0.0%
DATA                 0      0      85      31        0.0%
BITSFR31             0      0       0      32        0.0%
SFR31                0      0       0      32        0.0%


Microchip Technology PIC Macro Assembler V2.31 build 20201012212115 
Symbol Table                                                                                   Fri Feb 05 21:41:07 2021

                ?_EUSART_SetRxInterruptHandler 0071               __end_of_TMR2_SetInterruptHandler 0F2B  
                                 ___fldiv@aexp 003F                                   ___fldiv@bexp 003E  
                                 ___fldiv@sign 0037                                             l53 0F50  
                                           l39 07FF                                             l79 0F6F  
                          __Umul8_16@word_mpld 0077                                            l104 0F2A  
                                          l140 0F00                                            l134 0F85  
                                          l321 0F18                                            l137 0F3E  
                                          l330 0F1E                                            l324 0F0C  
                                          l174 0FB1                                            l318 0F12  
                                          l159 0F47                                            l327 0F24  
                                          l255 0704                                            l280 07BE  
                                          l177 0FB9                                            l283 07D8  
                                          l374 05DC                                            l279 07B6  
                                          l471 051D                                            l289 0F30  
                                          l661 06C2                                            l910 05CA  
                                          l671 06C2                                            l840 03DC  
                                          l824 02FE                                            l921 0596  
                                          l826 045A                                            l922 05A2  
                                          l914 057C                                            l747 0740  
                                          l668 06AD                                            l908 0541  
                                          l845 0428                                            l757 07AE  
                                          l846 0442                                            l870 0222  
                                          l848 0451                                            l864 02A6  
                                          l883 0FEF                                            l876 029A  
                                          l885 0FFF                                            _PR2 001B  
                       ??_EUSART_RxDataHandler 0070                 ?_EUSART_SetFramingErrorHandler 0071  
                              _TMR2_Initialize 0F5E                                            wreg 0009  
                                 ___flmul@aexp 0052                                   ___flmul@bexp 0053  
                                 ___flmul@sign 004D                                   ___flmul@temp 0058  
                                 ___flmul@prod 0054                                   ___fltol@exp1 007B  
                                         l2101 0685                                           l2201 0391  
                                         l2121 02A7                                           l2211 03AC  
                                         l2203 0395                                           l2131 02BB  
                                         l2123 02AD                                           l2115 06A4  
                                         l2107 068D                                           l2221 03C0  
                                         l2213 03B0                                           l2205 039B  
                                         l2141 02D3                                           l2133 02C0  
                                         l2125 02B1                                           l2301 00AF  
                                         l2117 06B2                                           l2109 069D  
                                         l2231 03E1                                           l2223 03C1  
                                         l2215 03B1                                           l2207 03A3  
                                         l2151 02E6                                           l2143 02D8  
                                         l2135 02C8                                           l2127 02B5  
                                         l2311 00EC                                           l2119 06B7  
                                         l2233 03E6                                           l2241 040E  
                                         l2225 03C5                                           l2217 03B8  
                                         l2209 03A5                                           l2161 0306  
                                         l2153 02EB                                           l2145 02DC  
                                         l2137 02C9                                           l2129 02B6  
                                         l2321 0134                                           l2313 00F9  
                                         l2305 00B8                                           l2401 0520  
                                         l2251 0447                                           l2243 041B  
                                         l2235 03EE                                           l2227 03D9  
                                         l2219 03BC                                           l2171 0324  
                                         l2163 0312                                           l2155 02F3  
                                         l2147 02E0                                           l2139 02CB  
                                         l2331 0170                                           l2323 0141  
                                         l2315 0113                                           l2307 00C5  
                                         l2091 0663                                           l2403 0525  
                                         l2253 044B                                           l2245 0436  
                                         l2237 03F2                                           l2181 034D  
                                         l2165 0316                                           l2157 02F4  
                                         l2149 02E1                                           l2341 01C1  
                                         l2333 0177                                           l2325 0148  
                                         l2317 0120                                           l2309 00D2  
                                         l2261 0050                                           l2093 0676  
                                         l2085 064E                                           l2421 056D  
                                         l2413 0552                                           l2405 0529  
                                         l2255 044D                                           l2247 0439  
                                         l2239 040A                                           l2191 036E  
                                         l2183 0355                                           l2175 032D  
                                         l2159 02F6                                           l2351 01F6  
                                         l2343 01D8                                           l2335 018B  
                                         l2327 0155                                           l2319 012D  
                                         l2271 0064                                           l2263 0056  
                                         l2095 0677                                           l2087 065A  
                                         l2431 059A                                           l2423 0575  
                                         l2415 0557                                           l2407 0539  
                                         l2503 045B                                           l1801 07E7  
                                         l2249 0441                                           l2193 036F  
                                         l2185 0357                                           l2177 033D  
                                         l2169 031F                                           l2361 0207  
                                         l2353 01F7                                           l2345 01DF  
                                         l2337 0198                                           l2329 015C  
                                         l2281 0080                                           l2273 0069  
                                         l2265 005A                                           l2097 067F  
                                         l2441 05C2                                           l2433 05A4  
                                         l2425 0583                                           l2417 0562  
                                         l2409 0549                                           l2521 0493  
                                         l2513 046D                                           l2505 0461  
                                         l1811 07F0                                           l1803 07E8  
                                         l2187 035C                                           l2195 0376  
                                         l2179 0345                                           l2371 022C  
                                         l2363 020B                                           l2355 01FE  
                                         l2347 01EB                                           l2339 01AC  
                                         l2291 0093                                           l2283 0084  
                                         l2275 0071                                           l2267 005E  
                                         l2099 0681                                           l2435 05B8  
                                         l2427 058C                                           l2419 0569  
                                         l2531 049E                                           l2523 0497  
                                         l2515 0484                                           l2507 0467  
                                         l1821 07FD                                           l1813 07F2  
                                         l1805 07EA                                           l2197 0388  
                                         l2189 036A                                           l2381 0261  
                                         l2373 0234                                           l2365 021F  
                                         l2349 01F2                                           l2357 0202  
                                         l2293 009B                                           l2285 0088  
                                         l2277 0073                                           l2269 005F  
                                         l2437 05BD                                           l2429 0590  
                                         l2541 04CC                                           l2525 049C  
                                         l2517 048B                                           l2509 046C  
                                         l1815 07F5                                           l1807 07EC  
                                         l1823 0F48                                           l1751 0F25  
                                         l1831 0F61                                           l2199 0389  
                                         l2391 0291                                           l2383 026B  
                                         l2375 0238                                           l2359 0206  
                                         l2295 009D                                           l2287 0089  
                                         l2279 007B                                           l2439 05C1  
                                         l1911 0715                                           l1903 0705  
                                         l2543 04D2                                           l2535 04B8  
                                         l2519 048F                                           l2551 05CB  
                                         l1761 0F07                                           l1753 0F19  
                                         l1817 07F7                                           l1809 07ED  
                                         l1825 0F4D                                           l1833 0F62  
                                         l2393 0295                                           l2385 0279  
                                         l2377 0250                                           l2369 0227  
                                         l2297 00A5                                           l2289 008E  
                                         l1921 0731                                           l1913 0719  
                                         l1905 0707                                           l2481 077A  
                                         l2545 04FA                                           l2537 04C2  
                                         l2561 05D8                                           l2553 05CE  
                                         l1755 0F1F                                           l1851 0F3C  
                                         l1819 07FA                                           l1827 0F4E  
                                         l1835 0F63                                           l2395 0296  
                                         l2387 0282                                           l2379 0254  
                                         l2299 00AA                                           l1923 0736  
                                         l1915 071D                                           l1907 070D  
                                         l2491 0791                                           l2483 0781  
                                         l1771 07C8                                           l1763 07B0  
                                         l2547 04FE                                           l2539 04C8  
                                         l2563 0637                                           l2555 05D1  
                                         l1861 0F44                                           l1757 0F0D  
                                         l1845 0F37                                           l1837 0F65  
                                         l1829 0F5E                                           l1853 0EFD  
                                         l2397 029E                                           l2389 0284  
                                         l1917 072C                                           l1909 0710  
                                         l1925 073C                                           l2493 079B  
                                         l2485 0784                                           l1773 07CC  
                                         l1765 07B0                                           l2549 0508  
                                         l2565 0642                                           l2557 05D2  
                                         l1863 0F45                                           l1855 0F3F  
                                         l1759 0F13                                           l1871 06D5  
                                         l1847 0F3A                                           l1791 07D9  
                                         l1839 0F6C                                           l1951 0FDE  
                                         l1919 0730                                           l2495 079F  
                                         l2487 0789                                           l1775 07D2  
                                         l1767 07BA                                           l2559 05D3  
                                         l1857 0F42                                           l1881 06DF  
                                         l1873 06D8                                           l1865 06C3  
                                         l1849 0F3B                                           l1793 07DC  
                                         l1961 0FFB                                           l1953 0FE0  
                                         l2497 07A4                                           l2489 078D  
                                         l1777 07D3                                           l1769 07BF  
                                         l1971 0FA1                                           l1859 0F43  
                                         l1891 06FF                                           l1883 06E6  
                                         l1875 06DA                                           l1867 06C5  
                                         l1795 07DF                                           l1955 0FE7  
                                         l2499 07AA                                           l1779 07D6  
                                         l1973 0FAB                                           l1893 0701  
                                         l1885 06ED                                           l1877 06DC  
                                         l1869 06CC                                           l1797 07E3  
                                         l1957 0FEB                                           l1975 0FAC  
                                         l1895 0702                                           l1887 06F9  
                                         l1879 06DE                                           l1799 07E5  
                                         l1959 0FF6                                           l1977 0FAF  
                                         l1889 06FE                                           l1969 0F70  
                                         l1897 0F2C                                           l1979 0FB5  
                                         STR_1 100A                        __end_of_PWM1_Initialize 0F51  
                                         u2000 0064                                           u2001 0063  
                                         u2010 0069                                           u2011 0068  
                                         u2100 01CE                                           u2020 0088  
                                         u2021 0087                                           u2030 008E  
                                         u1310 071D                                           u2031 008D  
                                         u1311 071C                                           u2200 0238  
                                         u2040 0093                                           u1240 07B6  
                                         u2201 0237                                           u2105 01CA  
                                         u2041 0092                                           u1305 0711  
                                         u1241 07B5                                           u2210 0246  
                                         u2130 01F6                                           u2050 00AA  
                                         u1330 072C                                           u1250 07BA  
                                         u2131 01F5                                           u2115 01D9  
                                         u2051 00A9                                           u1331 072B  
                                         u1251 07B9                                           u1420 0FEB  
                                         u2220 0261                                           u2060 00AF  
                                         u1260 07D2                                           u1421 0FEA  
                                         u2221 0260                                           u2125 01EC  
                                         u2061 00AE                                           u1325 071E  
                                         u1261 07D1                                           _LATA 010C  
                                         u2230 0279                                           u2150 0206  
                                         u2310 0582                                           u1350 073C  
                                         u2231 0278                                           u2215 0242  
                                         u2151 0205                                           u2311 0581  
                                         u1351 073B                                           u1335 0728  
                                         _LATC 010E                                           u1440 0FFB  
                                         u2240 0295                                           u2160 020B  
                                         u1600 065A                                           u1441 0FFA  
                                         u2241 0294                                           u2225 025D  
                                         u2161 020A                                           u2145 01F8  
                                         u1601 0659                                           u2305 0576  
                                         u1345 0732                                           u1450 0FB5  
                                         u2170 021F                                           u2090 01B7  
                                         u1610 0670                                           u2330 0590  
                                         u2250 0525                                           u1290 070D  
                                         u1451 0FB4                                           u1435 0FF0  
                                         u2235 0275                                           u2171 021E  
                                         u2075 012E                                           u2331 058F  
                                         u2251 0524                                           u1291 070C  
                                         u1700 02B5                                           u2180 0226  
                                         u1620 0685                                           u2340 0596  
                                         u2260 0529                                           u1701 02B4  
                                         u2181 0225                                           u2085 015D  
                                         u1621 0684                                           u2341 0595  
                                         u2325 0586                                           u2261 0528  
                                         u1710 02BB                                           u2190 022C  
                                         u1630 068C                                           u2350 059A  
                                         u2270 0549                                           u2510 07AA  
                                         u1711 02BA                                           u2191 022B  
                                         u2095 01B3                                           u1631 068B  
                                         u1615 066C                                           u2351 0599  
                                         u2271 0548                                           u2511 07A9  
                                         u1720 02C0                                           u2360 05AE  
                                         u2520 0467                                           u1721 02BF  
                                         u2505 07A0                                           u2521 0466  
                                         u1810 036E                                           u1730 02E0  
                                         u1650 069C                                           u2370 05BD  
                                         u2290 0568                                           u2530 0493  
                                         u1811 036D                                           u1731 02DF  
                                         u1651 069B                                           u2371 05BC  
                                         u2291 0567                                           u2531 0492  
                                         u1900 03C5                                           u1740 02E6  
                                         u1660 06A3                                           u2380 05C1  
                                         u2460 0781                                           u2540 04B7  
                                         u1901 03C4                                           u1805 0364  
                                         u1741 02E5                                           u1661 06A2  
                                         u1645 068E                                           u2381 05C0  
                                         u2365 05AA                                           u2285 055C  
                                         u2461 0780                                           u2541 04B6  
                                         u1910 03D9                                           u1830 0388  
                                         u1750 02EB                                           u2550 04C2  
                                         u1911 03D8                                           u1831 0387  
                                         u1751 02EA                                           u2551 04C1  
                                         u1920 03E0                                           u1840 039B  
                                         u1760 0306                                           u1680 06B2  
                                         u2480 0791                                           u2560 04C8  
                                         u1921 03DF                                           u1841 039A  
                                         u1825 0370                                           u1761 0305  
                                         u1681 06B1                                           u2481 0790  
                                         u2561 04C7                                           u2545 04B3  
                                         u1930 03E6                                           u1850 03A3  
                                         u1770 0324                                           u1690 06B7  
                                         u2490 079B                                           u2570 0508  
                                         u1931 03E5                                           u1851 03A2  
                                         u1835 0384                                           u1771 0323  
                                         u1691 06B6                                           u1675 06A5  
                                         u2491 079A                                           u2475 0785  
                                         u2571 0507                                           u1940 03F2  
                                         u1780 035C                                           u2580 051D  
                                         u1941 03F1                                           u1781 035B  
                                         u2581 051C                                           u1950 0400  
                                         u1870 03B0                                           u1871 03AF  
                                         u2495 0797                                           u1960 041B  
                                         u1961 041A                                           u1865 03A6  
                                         u1970 0436                                           u1890 03C0  
                                         u1971 0435                                           u1955 03FC  
                                         u1891 03BF                                           u1795 035D  
                                         u1980 044B                                           u1981 044A  
                                         u1965 0417                                           u1885 03B2  
                                         u2597 0646                                           u1990 005E  
                                         u1975 0432                                           u1991 005D  
                                         i1l97 0F06                                           _TMR2 001A  
                                         _WPUA 020C                                           _WPUC 020E  
                                         _main 05CB                                           fsr0h 0005  
                                         fsr1h 0007                                           indf0 0000  
                                         fsr0l 0004                                           indf1 0001  
                                         fsr1l 0006                                           btemp 007E  
                                         start 003C                                ___fldiv@new_exp 0038  
                                 main@delayMax 0068                                   main@delayMin 006A  
                                ?_EUSART_Write 0070                 __size_of_OSCILLATOR_Initialize 0008  
                __end_of_OSCILLATOR_Initialize 0F3F                                  ___fltol@sign1 007A  
                                        ?_main 0070                                __end_of___fldiv 045B  
                              __end_of___flmul 02A7                                __end_of___fltol 06C3  
                                        _T2CON 001C                                __end_of___lwdiv 0741  
                                        i1l101 0F5D                                          i1l107 0003  
                                        i1l302 0779                                          i1l312 0EFC  
                                        i1l306 0F9F                                          i1l315 0EF8  
                                        i1l309 0002                                          i1l350 002C  
                              __end_of___lwmod 07AF                                          i1l355 003A  
                                        i1l292 0FDB                                          i1l348 001B  
                                        i1l349 003A                                          i1l295 0FDC  
                                        _TRISA 008C                                          _TRISC 008E  
                                        _RXPPS 0E24                               __end_of_TMR2_ISR 0F07  
                              __end_of_dpowers 100A                                 _WDT_Initialize 0EFD  
                                        _putch 0F2B                                          pclath 000A  
                                        status 0003                                          wtemp0 007E  
                              __initialization 003E                                   __end_of_main 064E  
                               ??_EUSART_Write 0071                        __end_of_TMR2_Initialize 0F70  
                  ?_INTERRUPT_InterruptManager 0070                 ??_EUSART_SetRxInterruptHandler 0073  
                     _TMR2_SetInterruptHandler 0F25                                         ??_main 0063  
                       __end_of_WDT_Initialize 0F01      __end_of_EUSART_DefaultFramingErrorHandler 0003  
   __size_of_EUSART_DefaultFramingErrorHandler 0001            ??_EUSART_DefaultFramingErrorHandler 0070  
           ?_EUSART_DefaultFramingErrorHandler 0070              _EUSART_DefaultFramingErrorHandler 0002  
                                       _ADCON0 009D                                         _ADCON1 009E  
                                       _ADCON2 009F                     _EUSART_OverrunErrorHandler 00BD  
                                       _ADRESH 009C                                         _ADRESL 009B  
                                       _CCPR1H 0292                                         _CCPR1L 0291  
                                       _ANSELA 018C                                         ?_putch 0070  
                                       _ANSELC 018E                                         _BORCON 0116  
                                       _RC1REG 0199                                         _RC1PPS 0EA1  
                                       _RC1STA 019D                                         i1l2011 0FCE  
                                       _RC4PPS 0EA4                                         i1l2021 074B  
                                       i1l2013 0FD4                                         i1l2005 0FBA  
                             ?_PWM1_Initialize 0070                                         i1l2031 0766  
                                       i1l2023 0750                                         i1l2015 0FD5  
                                       i1l2007 0FC1                                         i1l2033 076F  
                                       i1l2025 0756                                         i1l2017 0741  
                                       i1l2009 0FC9                                         i1l2035 0776  
                                       i1l2027 075B                                         i1l2019 0746  
                                       i1l2029 0760                                         _ODCONA 028C  
                                       _ODCONC 028E                                         i1l2451 000A  
                                       i1l1901 0EF5                                         i1l2461 0031  
                                       i1l2453 000F                                         i1l2463 0036  
                                       i1l2455 0014                                         i1l1841 0F51  
                                       i1l2457 0020                                         i1l2449 0006  
                                       i1l1843 0F58                                         i1l2459 0025  
                                       i1l1781 0F86                                         i1l1783 0F8F  
                                       i1l1785 0F93                                         i1l1787 0F99  
                                       i1l1789 0F9A                                         i1l1965 0F01  
                                       i1l1967 0F03                                         i1l1899 0EF9  
                                       u150_20 074B                                         u150_21 074A  
                                       u127_20 0F99                                         u151_20 075B  
                                       u127_21 0F98                                         u151_21 075A  
                                       u152_20 076F                                         u128_20 0F58  
                                       u240_20 000F                                         u152_21 076E  
                                       u128_21 0F57                                         u240_21 000E  
                                       _INLVLA 038C                                         _INLVLC 038E  
                                       u241_20 0014                                         u241_21 0013  
                                       u242_20 0020                                         u242_21 001F  
                                       u243_20 0025                                         u243_21 0024  
                                       u148_20 0FC1                                         u244_20 0031  
                                       u148_21 0FC0                                         u244_21 0030  
                                       u149_20 0FD4                                         u245_20 0036  
                                       u149_21 0FD3                                         u245_21 0035  
                                       u239_20 000A                                         u239_21 0009  
                                       _OSCCON 0099                                         _TX1REG 019A  
                                       _WDTCON 0097                                         _TX1STA 019E  
                             __end_of___xxtofl 05CB                                      ??___fldiv 002E  
                                    ??___flmul 0048                                      ??___fltol 005E  
                                    ??___lwdiv 0075                                      ??___lwmod 0079  
                          _EUSART_Transmit_ISR 0FBA                                         _printf 045B  
                           __size_of__Umul8_16 0023                                ?_WDT_Initialize 0070  
                     ADC_GetConversion@channel 0074       TMR2_SetInterruptHandler@InterruptHandler 0071  
                         ?_EUSART_Transmit_ISR 0070                                   ___xxtofl@arg 0022  
                                 ___xxtofl@exp 0021                              _SYSTEM_Initialize 0F70  
                                 ___xxtofl@val 0071                        __end_of__initialization 004C  
                        __end_of_TMR2_CallBack 0F5E                             ?_SYSTEM_Initialize 0070  
                                   ___fltol@f1 005A           __end_of_EUSART_SetTxInterruptHandler 0F25  
        __size_of_EUSART_SetTxInterruptHandler 0006                   _EUSART_SetTxInterruptHandler 0F1F  
                               __pcstackCOMMON 0070                            ??_SYSTEM_Initialize 0074  
                                    ?_TMR2_ISR 0070                                  __end_of_putch 0F31  
                             ?_TMR2_Initialize 0070                                 _OPTION_REGbits 0095  
                         _eusartRxStatusBuffer 00A0                ??_EUSART_SetOverrunErrorHandler 0073  
                    __end_of_SYSTEM_Initialize 0F86                          ??_EUSART_Transmit_ISR 0070  
                                      ??_putch 0073                                     __pbssBANK0 006C  
                                   __pbssBANK1 00A0                           __end_of_EUSART_Write 07D9  
                  __size_of_EUSART_Receive_ISR 0039                              __end_of__Umul8_16 1000  
                                   __pmaintext 05CB                  ?_EUSART_SetTxInterruptHandler 0071  
             _EUSART_TxDefaultInterruptHandler 00C3                                     ??_TMR2_ISR 0070  
                                   __pintentry 0004                                        _CCP1CON 0293  
                 ??_EUSART_DefaultErrorHandler 0071                                        ?_printf 0024  
                      __size_of_ADC_Initialize 0009                                  _eusartRxCount 006C  
                                    ?___xxtofl 0071                                        _SP1BRGH 019C  
                                      _SP1BRGL 019B                  __size_of_EUSART_RxDataHandler 001A  
                                      _OSCSTAT 009A                                        _OSCTUNE 0098  
                                      _SLRCONA 030C                                        _SLRCONC 030E  
                     ??_EUSART_SetErrorHandler 0073                           _ADC_InterruptHandler 00B8  
          __size_of_EUSART_DefaultErrorHandler 0004                     ??_TMR2_SetInterruptHandler 0073  
                                      ___fldiv 02A7                                        ___flmul 0050  
                                      ___fltol 064E                                        ___lwdiv 0705  
                                      ___lwmod 077A                                        __ptext1 045B  
                                      __ptext2 0F2B                                        __ptext3 07AF  
                                      __ptext4 077A                                        __ptext5 0705  
                                      __ptext6 051E                                        __ptext7 064E  
                                      __ptext8 0050                                        __ptext9 0FDD  
                              __size_of_printf 00C3                                        _dpowers 1000  
                        _OSCILLATOR_Initialize 0F37                                      _T2CONbits 001C  
                                   ??___xxtofl 0075                       ??_PIN_MANAGER_Initialize 0071  
                   __size_of_SYSTEM_Initialize 0016                                        clrloop0 0F32  
                                      main@val 0064                           end_of_initialization 004C  
        __end_of_EUSART_SetOverrunErrorHandler 0F19         __size_of_EUSART_SetOverrunErrorHandler 0006  
                _EUSART_SetOverrunErrorHandler 0F13                              _EUSART_Initialize 06C3  
                           ?_EUSART_Initialize 0070                                      _RCSTAbits 019D  
                                      printf@c 0031                                        printf@f 0024  
                          ??_EUSART_Initialize 0073                               ??_WDT_Initialize 0071  
               ??_EUSART_SetTxInterruptHandler 0073                                  ___xxtofl@sign 0020  
                        __size_of_EUSART_Write 002A                                    ___fldiv@grs 003A  
                                  ___fldiv@rem 0033                __size_of_EUSART_SetErrorHandler 0006  
                                  ___flmul@grs 004E                      __end_of_EUSART_Initialize 0705  
                                    _TXSTAbits 019E                       __size_of_PWM1_Initialize 0009  
         __end_of_TMR2_DefaultInterruptHandler 0004          __size_of_TMR2_DefaultInterruptHandler 0001  
                 _TMR2_DefaultInterruptHandler 0003             __end_of_EUSART_DefaultErrorHandler 0EF9  
                   _EUSART_DefaultErrorHandler 0EF5                                   _EUSART_Write 07AF  
                            __size_of_TMR2_ISR 0006                                 _ADC_Initialize 0F3F  
                       ?_OSCILLATOR_Initialize 0070                                 __end_of_printf 051E  
                          start_initialization 003E                __size_of_PIN_MANAGER_Initialize 0027  
 EUSART_SetRxInterruptHandler@interruptHandler 0071   EUSART_SetTxInterruptHandler@interruptHandler 0071  
                                  putch@txData 0073                 ?_EUSART_SetOverrunErrorHandler 0071  
                   _EUSART_FramingErrorHandler 00BF                         _EUSART_SetErrorHandler 0F07  
                                  _CCPTMRSbits 029E                         __end_of_ADC_Initialize 0F48  
                                    __Umul8_16 0FDD                  ?_TMR2_DefaultInterruptHandler 0070  
                                     ??_printf 0028                                      ___fldiv@a 0026  
                                    ___fldiv@b 002A                         __size_of_TMR2_CallBack 000D  
                  __end_of_EUSART_Transmit_ISR 0FDD                                      ___flmul@a 0044  
                                    ___flmul@b 0040                                    __pbssCOMMON 007C  
                                    ___latbits 0002                                  __pcstackBANK0 0020  
                     __size_of_TMR2_Initialize 0012                              __size_of___xxtofl 00AD  
                   __end_of_EUSART_Receive_ISR 077A                     __size_of_EUSART_Initialize 0042  
             _EUSART_RxDefaultInterruptHandler 00C1                                      __pnvBANK1 00BB  
                 __end_of_EUSART_RxDataHandler 0FA0                               ___lwdiv@dividend 0073  
                       _PIN_MANAGER_Initialize 07D9                                       ?___fldiv 0026  
                                     ?___flmul 0040                                       ?___fltol 005A  
                                   ?__Umul8_16 0071                                       ?___lwdiv 0071  
                                     ?___lwmod 0020                                ?_ADC_Initialize 0070  
                                 _eusartRxHead 007C                                   _eusartTxHead 006F  
                                 _eusartRxTail 006D                                   _eusartTxTail 006E  
                            ??_PWM1_Initialize 0071                   ??_INTERRUPT_InterruptManager 0071  
                      _eusartTxBufferRemaining 00C7                                       _BAUD1CON 019F  
                             ___lwdiv@quotient 0076                                 __size_of_putch 0006  
                               _eusartRxBuffer 00A8                                 _eusartTxBuffer 00B0  
       EUSART_SetErrorHandler@interruptHandler 0071                                      clear_ram0 0F31  
                                _TMR2_CallBack 0F51                                       _PIE1bits 0091  
                            _eusartRxLastError 00BA            __size_of_INTERRUPT_InterruptManager 0038  
                                     _PIR1bits 0011                ??_EUSART_SetFramingErrorHandler 0073  
    __end_of_EUSART_DefaultOverrunErrorHandler 0EFD     __size_of_EUSART_DefaultOverrunErrorHandler 0004  
          ??_EUSART_DefaultOverrunErrorHandler 0070             ?_EUSART_DefaultOverrunErrorHandler 0070  
            _EUSART_DefaultOverrunErrorHandler 0EF9                                       _TMR2_ISR 0F01  
                                   _ADCON0bits 009D                                     printf@flag 002D  
                                    main@delay 0066                                     printf@prec 002E  
               ??_TMR2_DefaultInterruptHandler 0070              __size_of_TMR2_SetInterruptHandler 0006  
                    ?_TMR2_SetInterruptHandler 0071                              ??_TMR2_Initialize 0073  
                               ?_TMR2_CallBack 0070                              _ADC_GetConversion 0FA0  
                      ??_OSCILLATOR_Initialize 0071                                    ??__Umul8_16 0073  
                          _EUSART_ErrorHandler 00BB                             ?_ADC_GetConversion 0071  
                             __size_of___fldiv 01B4                               __size_of___flmul 0257  
                             __size_of___fltol 0075                    ?_EUSART_DefaultErrorHandler 0070  
                             __size_of___lwdiv 003C                               __size_of___lwmod 0035  
                          ??_ADC_GetConversion 0073                                       ___xxtofl 051E  
                              ___lwdiv@divisor 0071                           _EUSART_RxDataHandler 0F86  
                              ___lwdiv@counter 0078                                       __ptext10 02A7  
                                     __ptext11 0F70                                       __ptext20 0F19  
                                     __ptext12 0EFD                                       __ptext21 0F13  
                                     __ptext13 0F5E                                       __ptext30 0FBA  
                                     __ptext22 0F0D                                       __ptext14 0F25  
                                     __ptext31 0741                                       __ptext23 0F07  
                                     __ptext15 0F48                                       __ptext32 0EF9  
                                     __ptext24 0F3F                                       __ptext16 07D9  
                                     __ptext33 0002                                       __ptext25 0FA0  
                                     __ptext17 0F37                                       __ptext34 0EF5  
                                     __ptext18 06C3                                       __ptext35 0F86  
                                     __ptext27 0F01                                       __ptext19 0F1F  
                                     __ptext28 0F51                                       __ptext29 0003  
                                __size_of_main 0083                      __end_of_ADC_GetConversion 0FBA  
                      ?_EUSART_SetErrorHandler 0071                                     _RC1STAbits 019D  
EUSART_SetOverrunErrorHandler@interruptHandler 0071                                       int$flags 007E  
           __end_of_INTERRUPT_InterruptManager 003C                     _INTERRUPT_InterruptManager 0004  
        __end_of_EUSART_SetFramingErrorHandler 0F13         __size_of_EUSART_SetFramingErrorHandler 0006  
                _EUSART_SetFramingErrorHandler 0F0D                                      printf@val 002F  
                                   _INTCONbits 000B                          ?_EUSART_RxDataHandler 0070  
                      __size_of_WDT_Initialize 0004                                       intlevel1 0000  
                              ??_TMR2_CallBack 0070                               ___lwmod@dividend 0022  
                      ?_PIN_MANAGER_Initialize 0070                 __end_of_EUSART_SetErrorHandler 0F0D  
                              _PWM1_Initialize 0F48                               ??_ADC_Initialize 0071  
         __end_of_EUSART_SetRxInterruptHandler 0F1F          __size_of_EUSART_SetRxInterruptHandler 0006  
                 _EUSART_SetRxInterruptHandler 0F19                                       printf@ap 002C  
                           _EUSART_Receive_ISR 0741  EUSART_SetFramingErrorHandler@interruptHandler 0071  
                                __pstringtext1 1000                                  __pstringtext2 100A  
                                __pstringtext3 0000                         __Umul8_16@multiplicand 0071  
                          ?_EUSART_Receive_ISR 0070                                ___lwmod@divisor 0020  
                              ___lwmod@counter 007A                                     _TX1STAbits 019E  
                           EUSART_Write@txData 0072                   __size_of_EUSART_Transmit_ISR 0023  
               __end_of_PIN_MANAGER_Initialize 0800                           ??_EUSART_Receive_ISR 0071  
                         __Umul8_16@multiplier 0079                          _TMR2_InterruptHandler 00C5  
                   __size_of_ADC_GetConversion 001A                              __Umul8_16@product 0075  
