

Microchip MPLAB XC8 Assembler V2.31 build 20201012212115 
                                                                                               Wed Feb 03 17:21:12 2021

Microchip MPLAB XC8 C Compiler v2.31 (Free license) build 20201012212115 Og1 
     1                           	processor	16F1705
     2                           	pagewidth 120
     3                           	opt	flic
     4                           	psect	nvBANK0,global,class=BANK0,space=1,delta=1,noexec
     5                           	psect	stringtext1,global,class=STRCODE,delta=2,noexec
     6                           	psect	stringtext2,global,class=STRCODE,delta=2,noexec
     7                           	psect	cinit,global,class=CODE,merge=1,delta=2
     8                           	psect	bssBANK0,global,class=BANK0,space=1,delta=1,noexec
     9                           	psect	clrtext,global,class=CODE,delta=2
    10                           	psect	cstackCOMMON,global,class=COMMON,space=1,delta=1,noexec
    11                           	psect	cstackBANK0,global,class=BANK0,space=1,delta=1,noexec
    12                           	psect	maintext,global,class=CODE,merge=1,split=1,delta=2
    13                           	psect	text1,local,class=CODE,merge=1,delta=2,group=3
    14                           	psect	text2,local,class=CODE,merge=1,delta=2,group=1
    15                           	psect	text3,local,class=CODE,merge=1,delta=2,group=1
    16                           	psect	text4,local,class=CODE,merge=1,delta=2,group=3
    17                           	psect	text5,local,class=CODE,merge=1,delta=2
    18                           	psect	text6,local,class=CODE,merge=1,delta=2
    19                           	psect	text7,local,class=CODE,merge=1,delta=2
    20                           	psect	text8,local,class=CODE,merge=1,delta=2
    21                           	psect	text9,local,class=CODE,merge=1,delta=2
    22                           	psect	text10,local,class=CODE,merge=1,delta=2
    23                           	psect	text11,local,class=CODE,merge=1,delta=2
    24                           	psect	text12,local,class=CODE,merge=1,delta=2
    25                           	psect	text13,local,class=CODE,merge=1,delta=2
    26                           	psect	text14,local,class=CODE,merge=1,delta=2
    27                           	psect	text15,local,class=CODE,merge=1,delta=2
    28                           	psect	text16,local,class=CODE,merge=1,delta=2
    29                           	psect	text17,local,class=CODE,merge=1,delta=2
    30                           	psect	config,global,abs,ovrld,class=CONFIG,space=4,delta=2,noexec
    31                           	dabs	1,0x7E,2
    32  0000                     
    33                           ; Version 2.20
    34                           ; Generated 12/02/2020 GMT
    35                           ; 
    36                           ; Copyright © 2020, Microchip Technology Inc. and its subsidiaries ("Microchip")
    37                           ; All rights reserved.
    38                           ; 
    39                           ; This software is developed by Microchip Technology Inc. and its subsidiaries ("Microch
      +                          ip").
    40                           ; 
    41                           ; Redistribution and use in source and binary forms, with or without modification, are
    42                           ; permitted provided that the following conditions are met:
    43                           ; 
    44                           ;     1. Redistributions of source code must retain the above copyright notice, this lis
      +                          t of
    45                           ;        conditions and the following disclaimer.
    46                           ; 
    47                           ;     2. Redistributions in binary form must reproduce the above copyright notice, this 
      +                          list
    48                           ;        of conditions and the following disclaimer in the documentation and/or other
    49                           ;        materials provided with the distribution.
    50                           ; 
    51                           ;     3. Microchip's name may not be used to endorse or promote products derived from th
      +                          is
    52                           ;        software without specific prior written permission.
    53                           ; 
    54                           ; THIS SOFTWARE IS PROVIDED BY MICROCHIP "AS IS" AND ANY EXPRESS OR IMPLIED WARRANTIES,
    55                           ; INCLUDING, BUT NOT LIMITED TO, THE IMPLIED WARRANTIES OF MERCHANTABILITY AND FITNESS F
      +                          OR
    56                           ; PURPOSE ARE DISCLAIMED.  IN NO EVENT SHALL MICROCHIP BE LIABLE FOR ANY DIRECT, INDIREC
      +                          T,
    57                           ; INCIDENTAL, SPECIAL, EXEMPLARY, OR CONSEQUENTIAL DAMAGES (INCLUDING BUT NOT LIMITED TO
    58                           ; PROCUREMENT OF SUBSTITUTE GOODS OR SERVICES; LOSS OF USE, DATA OR PROFITS; OR BUSINESS
    59                           ; INTERRUPTION) HOWSOEVER CAUSED AND ON ANY THEORY OF LIABILITY, WHETHER IN CONTRACT, ST
      +                          RICT
    60                           ; LIABILITY, OR TORT (INCLUDING NEGLIGENCE OR OTHERWISE) ARISING IN ANY WAY OUT OF THE U
      +                          SE OF
    61                           ; THIS SOFTWARE, EVEN IF ADVISED OF THE POSSIBILITY OF SUCH DAMAGE.
    62                           ; 
    63                           ; 
    64                           ; Code-generator required, PIC16F1705 Definitions
    65                           ; 
    66                           ; SFR Addresses
    67  0000                     	;# 
    68  0001                     	;# 
    69  0002                     	;# 
    70  0003                     	;# 
    71  0004                     	;# 
    72  0005                     	;# 
    73  0006                     	;# 
    74  0007                     	;# 
    75  0008                     	;# 
    76  0009                     	;# 
    77  000A                     	;# 
    78  000B                     	;# 
    79  000C                     	;# 
    80  000E                     	;# 
    81  0011                     	;# 
    82  0012                     	;# 
    83  0013                     	;# 
    84  0015                     	;# 
    85  0016                     	;# 
    86  0016                     	;# 
    87  0017                     	;# 
    88  0018                     	;# 
    89  0019                     	;# 
    90  001A                     	;# 
    91  001B                     	;# 
    92  001C                     	;# 
    93  008C                     	;# 
    94  008E                     	;# 
    95  0091                     	;# 
    96  0092                     	;# 
    97  0093                     	;# 
    98  0095                     	;# 
    99  0096                     	;# 
   100  0097                     	;# 
   101  0098                     	;# 
   102  0099                     	;# 
   103  009A                     	;# 
   104  009B                     	;# 
   105  009B                     	;# 
   106  009C                     	;# 
   107  009D                     	;# 
   108  009E                     	;# 
   109  009F                     	;# 
   110  010C                     	;# 
   111  010E                     	;# 
   112  0111                     	;# 
   113  0112                     	;# 
   114  0113                     	;# 
   115  0114                     	;# 
   116  0115                     	;# 
   117  0116                     	;# 
   118  0117                     	;# 
   119  0118                     	;# 
   120  0119                     	;# 
   121  011C                     	;# 
   122  018C                     	;# 
   123  018E                     	;# 
   124  0191                     	;# 
   125  0191                     	;# 
   126  0192                     	;# 
   127  0193                     	;# 
   128  0193                     	;# 
   129  0194                     	;# 
   130  0195                     	;# 
   131  0196                     	;# 
   132  0197                     	;# 
   133  0199                     	;# 
   134  0199                     	;# 
   135  0199                     	;# 
   136  019A                     	;# 
   137  019A                     	;# 
   138  019A                     	;# 
   139  019B                     	;# 
   140  019B                     	;# 
   141  019B                     	;# 
   142  019B                     	;# 
   143  019B                     	;# 
   144  019C                     	;# 
   145  019C                     	;# 
   146  019C                     	;# 
   147  019D                     	;# 
   148  019D                     	;# 
   149  019D                     	;# 
   150  019E                     	;# 
   151  019E                     	;# 
   152  019E                     	;# 
   153  019F                     	;# 
   154  019F                     	;# 
   155  019F                     	;# 
   156  019F                     	;# 
   157  019F                     	;# 
   158  020C                     	;# 
   159  020E                     	;# 
   160  0211                     	;# 
   161  0211                     	;# 
   162  0212                     	;# 
   163  0212                     	;# 
   164  0213                     	;# 
   165  0213                     	;# 
   166  0214                     	;# 
   167  0214                     	;# 
   168  0215                     	;# 
   169  0215                     	;# 
   170  0215                     	;# 
   171  0215                     	;# 
   172  0216                     	;# 
   173  0216                     	;# 
   174  0217                     	;# 
   175  0217                     	;# 
   176  028C                     	;# 
   177  028E                     	;# 
   178  0291                     	;# 
   179  0291                     	;# 
   180  0292                     	;# 
   181  0293                     	;# 
   182  0293                     	;# 
   183  0298                     	;# 
   184  0298                     	;# 
   185  0299                     	;# 
   186  029A                     	;# 
   187  029A                     	;# 
   188  029E                     	;# 
   189  030C                     	;# 
   190  030E                     	;# 
   191  038C                     	;# 
   192  038E                     	;# 
   193  0391                     	;# 
   194  0392                     	;# 
   195  0393                     	;# 
   196  0397                     	;# 
   197  0398                     	;# 
   198  0399                     	;# 
   199  0415                     	;# 
   200  0416                     	;# 
   201  0417                     	;# 
   202  041C                     	;# 
   203  041D                     	;# 
   204  041E                     	;# 
   205  0511                     	;# 
   206  0515                     	;# 
   207  0617                     	;# 
   208  0618                     	;# 
   209  0619                     	;# 
   210  0619                     	;# 
   211  061A                     	;# 
   212  061B                     	;# 
   213  061C                     	;# 
   214  061C                     	;# 
   215  0691                     	;# 
   216  0692                     	;# 
   217  0693                     	;# 
   218  0694                     	;# 
   219  0695                     	;# 
   220  0696                     	;# 
   221  0697                     	;# 
   222  0698                     	;# 
   223  0699                     	;# 
   224  069A                     	;# 
   225  069B                     	;# 
   226  069C                     	;# 
   227  069D                     	;# 
   228  069E                     	;# 
   229  069F                     	;# 
   230  0E0F                     	;# 
   231  0E10                     	;# 
   232  0E11                     	;# 
   233  0E12                     	;# 
   234  0E13                     	;# 
   235  0E14                     	;# 
   236  0E15                     	;# 
   237  0E17                     	;# 
   238  0E20                     	;# 
   239  0E21                     	;# 
   240  0E22                     	;# 
   241  0E24                     	;# 
   242  0E25                     	;# 
   243  0E28                     	;# 
   244  0E29                     	;# 
   245  0E2A                     	;# 
   246  0E2B                     	;# 
   247  0E90                     	;# 
   248  0E91                     	;# 
   249  0E92                     	;# 
   250  0E94                     	;# 
   251  0E95                     	;# 
   252  0EA0                     	;# 
   253  0EA1                     	;# 
   254  0EA2                     	;# 
   255  0EA3                     	;# 
   256  0EA4                     	;# 
   257  0EA5                     	;# 
   258  0F0F                     	;# 
   259  0F10                     	;# 
   260  0F11                     	;# 
   261  0F12                     	;# 
   262  0F13                     	;# 
   263  0F14                     	;# 
   264  0F15                     	;# 
   265  0F16                     	;# 
   266  0F17                     	;# 
   267  0F18                     	;# 
   268  0F19                     	;# 
   269  0F1A                     	;# 
   270  0F1B                     	;# 
   271  0F1C                     	;# 
   272  0F1D                     	;# 
   273  0F1E                     	;# 
   274  0F1F                     	;# 
   275  0F20                     	;# 
   276  0F21                     	;# 
   277  0F22                     	;# 
   278  0F23                     	;# 
   279  0F24                     	;# 
   280  0F25                     	;# 
   281  0F26                     	;# 
   282  0F27                     	;# 
   283  0F28                     	;# 
   284  0F29                     	;# 
   285  0F2A                     	;# 
   286  0F2B                     	;# 
   287  0F2C                     	;# 
   288  0F2D                     	;# 
   289  0F9E                     	;# 
   290  0FE4                     	;# 
   291  0FE5                     	;# 
   292  0FE6                     	;# 
   293  0FE7                     	;# 
   294  0FE8                     	;# 
   295  0FE9                     	;# 
   296  0FEA                     	;# 
   297  0FEB                     	;# 
   298  0FED                     	;# 
   299  0FEE                     	;# 
   300  0FEF                     	;# 
   301  0000                     	;# 
   302  0001                     	;# 
   303  0002                     	;# 
   304  0003                     	;# 
   305  0004                     	;# 
   306  0005                     	;# 
   307  0006                     	;# 
   308  0007                     	;# 
   309  0008                     	;# 
   310  0009                     	;# 
   311  000A                     	;# 
   312  000B                     	;# 
   313  000C                     	;# 
   314  000E                     	;# 
   315  0011                     	;# 
   316  0012                     	;# 
   317  0013                     	;# 
   318  0015                     	;# 
   319  0016                     	;# 
   320  0016                     	;# 
   321  0017                     	;# 
   322  0018                     	;# 
   323  0019                     	;# 
   324  001A                     	;# 
   325  001B                     	;# 
   326  001C                     	;# 
   327  008C                     	;# 
   328  008E                     	;# 
   329  0091                     	;# 
   330  0092                     	;# 
   331  0093                     	;# 
   332  0095                     	;# 
   333  0096                     	;# 
   334  0097                     	;# 
   335  0098                     	;# 
   336  0099                     	;# 
   337  009A                     	;# 
   338  009B                     	;# 
   339  009B                     	;# 
   340  009C                     	;# 
   341  009D                     	;# 
   342  009E                     	;# 
   343  009F                     	;# 
   344  010C                     	;# 
   345  010E                     	;# 
   346  0111                     	;# 
   347  0112                     	;# 
   348  0113                     	;# 
   349  0114                     	;# 
   350  0115                     	;# 
   351  0116                     	;# 
   352  0117                     	;# 
   353  0118                     	;# 
   354  0119                     	;# 
   355  011C                     	;# 
   356  018C                     	;# 
   357  018E                     	;# 
   358  0191                     	;# 
   359  0191                     	;# 
   360  0192                     	;# 
   361  0193                     	;# 
   362  0193                     	;# 
   363  0194                     	;# 
   364  0195                     	;# 
   365  0196                     	;# 
   366  0197                     	;# 
   367  0199                     	;# 
   368  0199                     	;# 
   369  0199                     	;# 
   370  019A                     	;# 
   371  019A                     	;# 
   372  019A                     	;# 
   373  019B                     	;# 
   374  019B                     	;# 
   375  019B                     	;# 
   376  019B                     	;# 
   377  019B                     	;# 
   378  019C                     	;# 
   379  019C                     	;# 
   380  019C                     	;# 
   381  019D                     	;# 
   382  019D                     	;# 
   383  019D                     	;# 
   384  019E                     	;# 
   385  019E                     	;# 
   386  019E                     	;# 
   387  019F                     	;# 
   388  019F                     	;# 
   389  019F                     	;# 
   390  019F                     	;# 
   391  019F                     	;# 
   392  020C                     	;# 
   393  020E                     	;# 
   394  0211                     	;# 
   395  0211                     	;# 
   396  0212                     	;# 
   397  0212                     	;# 
   398  0213                     	;# 
   399  0213                     	;# 
   400  0214                     	;# 
   401  0214                     	;# 
   402  0215                     	;# 
   403  0215                     	;# 
   404  0215                     	;# 
   405  0215                     	;# 
   406  0216                     	;# 
   407  0216                     	;# 
   408  0217                     	;# 
   409  0217                     	;# 
   410  028C                     	;# 
   411  028E                     	;# 
   412  0291                     	;# 
   413  0291                     	;# 
   414  0292                     	;# 
   415  0293                     	;# 
   416  0293                     	;# 
   417  0298                     	;# 
   418  0298                     	;# 
   419  0299                     	;# 
   420  029A                     	;# 
   421  029A                     	;# 
   422  029E                     	;# 
   423  030C                     	;# 
   424  030E                     	;# 
   425  038C                     	;# 
   426  038E                     	;# 
   427  0391                     	;# 
   428  0392                     	;# 
   429  0393                     	;# 
   430  0397                     	;# 
   431  0398                     	;# 
   432  0399                     	;# 
   433  0415                     	;# 
   434  0416                     	;# 
   435  0417                     	;# 
   436  041C                     	;# 
   437  041D                     	;# 
   438  041E                     	;# 
   439  0511                     	;# 
   440  0515                     	;# 
   441  0617                     	;# 
   442  0618                     	;# 
   443  0619                     	;# 
   444  0619                     	;# 
   445  061A                     	;# 
   446  061B                     	;# 
   447  061C                     	;# 
   448  061C                     	;# 
   449  0691                     	;# 
   450  0692                     	;# 
   451  0693                     	;# 
   452  0694                     	;# 
   453  0695                     	;# 
   454  0696                     	;# 
   455  0697                     	;# 
   456  0698                     	;# 
   457  0699                     	;# 
   458  069A                     	;# 
   459  069B                     	;# 
   460  069C                     	;# 
   461  069D                     	;# 
   462  069E                     	;# 
   463  069F                     	;# 
   464  0E0F                     	;# 
   465  0E10                     	;# 
   466  0E11                     	;# 
   467  0E12                     	;# 
   468  0E13                     	;# 
   469  0E14                     	;# 
   470  0E15                     	;# 
   471  0E17                     	;# 
   472  0E20                     	;# 
   473  0E21                     	;# 
   474  0E22                     	;# 
   475  0E24                     	;# 
   476  0E25                     	;# 
   477  0E28                     	;# 
   478  0E29                     	;# 
   479  0E2A                     	;# 
   480  0E2B                     	;# 
   481  0E90                     	;# 
   482  0E91                     	;# 
   483  0E92                     	;# 
   484  0E94                     	;# 
   485  0E95                     	;# 
   486  0EA0                     	;# 
   487  0EA1                     	;# 
   488  0EA2                     	;# 
   489  0EA3                     	;# 
   490  0EA4                     	;# 
   491  0EA5                     	;# 
   492  0F0F                     	;# 
   493  0F10                     	;# 
   494  0F11                     	;# 
   495  0F12                     	;# 
   496  0F13                     	;# 
   497  0F14                     	;# 
   498  0F15                     	;# 
   499  0F16                     	;# 
   500  0F17                     	;# 
   501  0F18                     	;# 
   502  0F19                     	;# 
   503  0F1A                     	;# 
   504  0F1B                     	;# 
   505  0F1C                     	;# 
   506  0F1D                     	;# 
   507  0F1E                     	;# 
   508  0F1F                     	;# 
   509  0F20                     	;# 
   510  0F21                     	;# 
   511  0F22                     	;# 
   512  0F23                     	;# 
   513  0F24                     	;# 
   514  0F25                     	;# 
   515  0F26                     	;# 
   516  0F27                     	;# 
   517  0F28                     	;# 
   518  0F29                     	;# 
   519  0F2A                     	;# 
   520  0F2B                     	;# 
   521  0F2C                     	;# 
   522  0F2D                     	;# 
   523  0F9E                     	;# 
   524  0FE4                     	;# 
   525  0FE5                     	;# 
   526  0FE6                     	;# 
   527  0FE7                     	;# 
   528  0FE8                     	;# 
   529  0FE9                     	;# 
   530  0FEA                     	;# 
   531  0FEB                     	;# 
   532  0FED                     	;# 
   533  0FEE                     	;# 
   534  0FEF                     	;# 
   535  0000                     	;# 
   536  0001                     	;# 
   537  0002                     	;# 
   538  0003                     	;# 
   539  0004                     	;# 
   540  0005                     	;# 
   541  0006                     	;# 
   542  0007                     	;# 
   543  0008                     	;# 
   544  0009                     	;# 
   545  000A                     	;# 
   546  000B                     	;# 
   547  000C                     	;# 
   548  000E                     	;# 
   549  0011                     	;# 
   550  0012                     	;# 
   551  0013                     	;# 
   552  0015                     	;# 
   553  0016                     	;# 
   554  0016                     	;# 
   555  0017                     	;# 
   556  0018                     	;# 
   557  0019                     	;# 
   558  001A                     	;# 
   559  001B                     	;# 
   560  001C                     	;# 
   561  008C                     	;# 
   562  008E                     	;# 
   563  0091                     	;# 
   564  0092                     	;# 
   565  0093                     	;# 
   566  0095                     	;# 
   567  0096                     	;# 
   568  0097                     	;# 
   569  0098                     	;# 
   570  0099                     	;# 
   571  009A                     	;# 
   572  009B                     	;# 
   573  009B                     	;# 
   574  009C                     	;# 
   575  009D                     	;# 
   576  009E                     	;# 
   577  009F                     	;# 
   578  010C                     	;# 
   579  010E                     	;# 
   580  0111                     	;# 
   581  0112                     	;# 
   582  0113                     	;# 
   583  0114                     	;# 
   584  0115                     	;# 
   585  0116                     	;# 
   586  0117                     	;# 
   587  0118                     	;# 
   588  0119                     	;# 
   589  011C                     	;# 
   590  018C                     	;# 
   591  018E                     	;# 
   592  0191                     	;# 
   593  0191                     	;# 
   594  0192                     	;# 
   595  0193                     	;# 
   596  0193                     	;# 
   597  0194                     	;# 
   598  0195                     	;# 
   599  0196                     	;# 
   600  0197                     	;# 
   601  0199                     	;# 
   602  0199                     	;# 
   603  0199                     	;# 
   604  019A                     	;# 
   605  019A                     	;# 
   606  019A                     	;# 
   607  019B                     	;# 
   608  019B                     	;# 
   609  019B                     	;# 
   610  019B                     	;# 
   611  019B                     	;# 
   612  019C                     	;# 
   613  019C                     	;# 
   614  019C                     	;# 
   615  019D                     	;# 
   616  019D                     	;# 
   617  019D                     	;# 
   618  019E                     	;# 
   619  019E                     	;# 
   620  019E                     	;# 
   621  019F                     	;# 
   622  019F                     	;# 
   623  019F                     	;# 
   624  019F                     	;# 
   625  019F                     	;# 
   626  020C                     	;# 
   627  020E                     	;# 
   628  0211                     	;# 
   629  0211                     	;# 
   630  0212                     	;# 
   631  0212                     	;# 
   632  0213                     	;# 
   633  0213                     	;# 
   634  0214                     	;# 
   635  0214                     	;# 
   636  0215                     	;# 
   637  0215                     	;# 
   638  0215                     	;# 
   639  0215                     	;# 
   640  0216                     	;# 
   641  0216                     	;# 
   642  0217                     	;# 
   643  0217                     	;# 
   644  028C                     	;# 
   645  028E                     	;# 
   646  0291                     	;# 
   647  0291                     	;# 
   648  0292                     	;# 
   649  0293                     	;# 
   650  0293                     	;# 
   651  0298                     	;# 
   652  0298                     	;# 
   653  0299                     	;# 
   654  029A                     	;# 
   655  029A                     	;# 
   656  029E                     	;# 
   657  030C                     	;# 
   658  030E                     	;# 
   659  038C                     	;# 
   660  038E                     	;# 
   661  0391                     	;# 
   662  0392                     	;# 
   663  0393                     	;# 
   664  0397                     	;# 
   665  0398                     	;# 
   666  0399                     	;# 
   667  0415                     	;# 
   668  0416                     	;# 
   669  0417                     	;# 
   670  041C                     	;# 
   671  041D                     	;# 
   672  041E                     	;# 
   673  0511                     	;# 
   674  0515                     	;# 
   675  0617                     	;# 
   676  0618                     	;# 
   677  0619                     	;# 
   678  0619                     	;# 
   679  061A                     	;# 
   680  061B                     	;# 
   681  061C                     	;# 
   682  061C                     	;# 
   683  0691                     	;# 
   684  0692                     	;# 
   685  0693                     	;# 
   686  0694                     	;# 
   687  0695                     	;# 
   688  0696                     	;# 
   689  0697                     	;# 
   690  0698                     	;# 
   691  0699                     	;# 
   692  069A                     	;# 
   693  069B                     	;# 
   694  069C                     	;# 
   695  069D                     	;# 
   696  069E                     	;# 
   697  069F                     	;# 
   698  0E0F                     	;# 
   699  0E10                     	;# 
   700  0E11                     	;# 
   701  0E12                     	;# 
   702  0E13                     	;# 
   703  0E14                     	;# 
   704  0E15                     	;# 
   705  0E17                     	;# 
   706  0E20                     	;# 
   707  0E21                     	;# 
   708  0E22                     	;# 
   709  0E24                     	;# 
   710  0E25                     	;# 
   711  0E28                     	;# 
   712  0E29                     	;# 
   713  0E2A                     	;# 
   714  0E2B                     	;# 
   715  0E90                     	;# 
   716  0E91                     	;# 
   717  0E92                     	;# 
   718  0E94                     	;# 
   719  0E95                     	;# 
   720  0EA0                     	;# 
   721  0EA1                     	;# 
   722  0EA2                     	;# 
   723  0EA3                     	;# 
   724  0EA4                     	;# 
   725  0EA5                     	;# 
   726  0F0F                     	;# 
   727  0F10                     	;# 
   728  0F11                     	;# 
   729  0F12                     	;# 
   730  0F13                     	;# 
   731  0F14                     	;# 
   732  0F15                     	;# 
   733  0F16                     	;# 
   734  0F17                     	;# 
   735  0F18                     	;# 
   736  0F19                     	;# 
   737  0F1A                     	;# 
   738  0F1B                     	;# 
   739  0F1C                     	;# 
   740  0F1D                     	;# 
   741  0F1E                     	;# 
   742  0F1F                     	;# 
   743  0F20                     	;# 
   744  0F21                     	;# 
   745  0F22                     	;# 
   746  0F23                     	;# 
   747  0F24                     	;# 
   748  0F25                     	;# 
   749  0F26                     	;# 
   750  0F27                     	;# 
   751  0F28                     	;# 
   752  0F29                     	;# 
   753  0F2A                     	;# 
   754  0F2B                     	;# 
   755  0F2C                     	;# 
   756  0F2D                     	;# 
   757  0F9E                     	;# 
   758  0FE4                     	;# 
   759  0FE5                     	;# 
   760  0FE6                     	;# 
   761  0FE7                     	;# 
   762  0FE8                     	;# 
   763  0FE9                     	;# 
   764  0FEA                     	;# 
   765  0FEB                     	;# 
   766  0FED                     	;# 
   767  0FEE                     	;# 
   768  0FEF                     	;# 
   769  0000                     	;# 
   770  0001                     	;# 
   771  0002                     	;# 
   772  0003                     	;# 
   773  0004                     	;# 
   774  0005                     	;# 
   775  0006                     	;# 
   776  0007                     	;# 
   777  0008                     	;# 
   778  0009                     	;# 
   779  000A                     	;# 
   780  000B                     	;# 
   781  000C                     	;# 
   782  000E                     	;# 
   783  0011                     	;# 
   784  0012                     	;# 
   785  0013                     	;# 
   786  0015                     	;# 
   787  0016                     	;# 
   788  0016                     	;# 
   789  0017                     	;# 
   790  0018                     	;# 
   791  0019                     	;# 
   792  001A                     	;# 
   793  001B                     	;# 
   794  001C                     	;# 
   795  008C                     	;# 
   796  008E                     	;# 
   797  0091                     	;# 
   798  0092                     	;# 
   799  0093                     	;# 
   800  0095                     	;# 
   801  0096                     	;# 
   802  0097                     	;# 
   803  0098                     	;# 
   804  0099                     	;# 
   805  009A                     	;# 
   806  009B                     	;# 
   807  009B                     	;# 
   808  009C                     	;# 
   809  009D                     	;# 
   810  009E                     	;# 
   811  009F                     	;# 
   812  010C                     	;# 
   813  010E                     	;# 
   814  0111                     	;# 
   815  0112                     	;# 
   816  0113                     	;# 
   817  0114                     	;# 
   818  0115                     	;# 
   819  0116                     	;# 
   820  0117                     	;# 
   821  0118                     	;# 
   822  0119                     	;# 
   823  011C                     	;# 
   824  018C                     	;# 
   825  018E                     	;# 
   826  0191                     	;# 
   827  0191                     	;# 
   828  0192                     	;# 
   829  0193                     	;# 
   830  0193                     	;# 
   831  0194                     	;# 
   832  0195                     	;# 
   833  0196                     	;# 
   834  0197                     	;# 
   835  0199                     	;# 
   836  0199                     	;# 
   837  0199                     	;# 
   838  019A                     	;# 
   839  019A                     	;# 
   840  019A                     	;# 
   841  019B                     	;# 
   842  019B                     	;# 
   843  019B                     	;# 
   844  019B                     	;# 
   845  019B                     	;# 
   846  019C                     	;# 
   847  019C                     	;# 
   848  019C                     	;# 
   849  019D                     	;# 
   850  019D                     	;# 
   851  019D                     	;# 
   852  019E                     	;# 
   853  019E                     	;# 
   854  019E                     	;# 
   855  019F                     	;# 
   856  019F                     	;# 
   857  019F                     	;# 
   858  019F                     	;# 
   859  019F                     	;# 
   860  020C                     	;# 
   861  020E                     	;# 
   862  0211                     	;# 
   863  0211                     	;# 
   864  0212                     	;# 
   865  0212                     	;# 
   866  0213                     	;# 
   867  0213                     	;# 
   868  0214                     	;# 
   869  0214                     	;# 
   870  0215                     	;# 
   871  0215                     	;# 
   872  0215                     	;# 
   873  0215                     	;# 
   874  0216                     	;# 
   875  0216                     	;# 
   876  0217                     	;# 
   877  0217                     	;# 
   878  028C                     	;# 
   879  028E                     	;# 
   880  0291                     	;# 
   881  0291                     	;# 
   882  0292                     	;# 
   883  0293                     	;# 
   884  0293                     	;# 
   885  0298                     	;# 
   886  0298                     	;# 
   887  0299                     	;# 
   888  029A                     	;# 
   889  029A                     	;# 
   890  029E                     	;# 
   891  030C                     	;# 
   892  030E                     	;# 
   893  038C                     	;# 
   894  038E                     	;# 
   895  0391                     	;# 
   896  0392                     	;# 
   897  0393                     	;# 
   898  0397                     	;# 
   899  0398                     	;# 
   900  0399                     	;# 
   901  0415                     	;# 
   902  0416                     	;# 
   903  0417                     	;# 
   904  041C                     	;# 
   905  041D                     	;# 
   906  041E                     	;# 
   907  0511                     	;# 
   908  0515                     	;# 
   909  0617                     	;# 
   910  0618                     	;# 
   911  0619                     	;# 
   912  0619                     	;# 
   913  061A                     	;# 
   914  061B                     	;# 
   915  061C                     	;# 
   916  061C                     	;# 
   917  0691                     	;# 
   918  0692                     	;# 
   919  0693                     	;# 
   920  0694                     	;# 
   921  0695                     	;# 
   922  0696                     	;# 
   923  0697                     	;# 
   924  0698                     	;# 
   925  0699                     	;# 
   926  069A                     	;# 
   927  069B                     	;# 
   928  069C                     	;# 
   929  069D                     	;# 
   930  069E                     	;# 
   931  069F                     	;# 
   932  0E0F                     	;# 
   933  0E10                     	;# 
   934  0E11                     	;# 
   935  0E12                     	;# 
   936  0E13                     	;# 
   937  0E14                     	;# 
   938  0E15                     	;# 
   939  0E17                     	;# 
   940  0E20                     	;# 
   941  0E21                     	;# 
   942  0E22                     	;# 
   943  0E24                     	;# 
   944  0E25                     	;# 
   945  0E28                     	;# 
   946  0E29                     	;# 
   947  0E2A                     	;# 
   948  0E2B                     	;# 
   949  0E90                     	;# 
   950  0E91                     	;# 
   951  0E92                     	;# 
   952  0E94                     	;# 
   953  0E95                     	;# 
   954  0EA0                     	;# 
   955  0EA1                     	;# 
   956  0EA2                     	;# 
   957  0EA3                     	;# 
   958  0EA4                     	;# 
   959  0EA5                     	;# 
   960  0F0F                     	;# 
   961  0F10                     	;# 
   962  0F11                     	;# 
   963  0F12                     	;# 
   964  0F13                     	;# 
   965  0F14                     	;# 
   966  0F15                     	;# 
   967  0F16                     	;# 
   968  0F17                     	;# 
   969  0F18                     	;# 
   970  0F19                     	;# 
   971  0F1A                     	;# 
   972  0F1B                     	;# 
   973  0F1C                     	;# 
   974  0F1D                     	;# 
   975  0F1E                     	;# 
   976  0F1F                     	;# 
   977  0F20                     	;# 
   978  0F21                     	;# 
   979  0F22                     	;# 
   980  0F23                     	;# 
   981  0F24                     	;# 
   982  0F25                     	;# 
   983  0F26                     	;# 
   984  0F27                     	;# 
   985  0F28                     	;# 
   986  0F29                     	;# 
   987  0F2A                     	;# 
   988  0F2B                     	;# 
   989  0F2C                     	;# 
   990  0F2D                     	;# 
   991  0F9E                     	;# 
   992  0FE4                     	;# 
   993  0FE5                     	;# 
   994  0FE6                     	;# 
   995  0FE7                     	;# 
   996  0FE8                     	;# 
   997  0FE9                     	;# 
   998  0FEA                     	;# 
   999  0FEB                     	;# 
  1000  0FED                     	;# 
  1001  0FEE                     	;# 
  1002  0FEF                     	;# 
  1003  0000                     	;# 
  1004  0001                     	;# 
  1005  0002                     	;# 
  1006  0003                     	;# 
  1007  0004                     	;# 
  1008  0005                     	;# 
  1009  0006                     	;# 
  1010  0007                     	;# 
  1011  0008                     	;# 
  1012  0009                     	;# 
  1013  000A                     	;# 
  1014  000B                     	;# 
  1015  000C                     	;# 
  1016  000E                     	;# 
  1017  0011                     	;# 
  1018  0012                     	;# 
  1019  0013                     	;# 
  1020  0015                     	;# 
  1021  0016                     	;# 
  1022  0016                     	;# 
  1023  0017                     	;# 
  1024  0018                     	;# 
  1025  0019                     	;# 
  1026  001A                     	;# 
  1027  001B                     	;# 
  1028  001C                     	;# 
  1029  008C                     	;# 
  1030  008E                     	;# 
  1031  0091                     	;# 
  1032  0092                     	;# 
  1033  0093                     	;# 
  1034  0095                     	;# 
  1035  0096                     	;# 
  1036  0097                     	;# 
  1037  0098                     	;# 
  1038  0099                     	;# 
  1039  009A                     	;# 
  1040  009B                     	;# 
  1041  009B                     	;# 
  1042  009C                     	;# 
  1043  009D                     	;# 
  1044  009E                     	;# 
  1045  009F                     	;# 
  1046  010C                     	;# 
  1047  010E                     	;# 
  1048  0111                     	;# 
  1049  0112                     	;# 
  1050  0113                     	;# 
  1051  0114                     	;# 
  1052  0115                     	;# 
  1053  0116                     	;# 
  1054  0117                     	;# 
  1055  0118                     	;# 
  1056  0119                     	;# 
  1057  011C                     	;# 
  1058  018C                     	;# 
  1059  018E                     	;# 
  1060  0191                     	;# 
  1061  0191                     	;# 
  1062  0192                     	;# 
  1063  0193                     	;# 
  1064  0193                     	;# 
  1065  0194                     	;# 
  1066  0195                     	;# 
  1067  0196                     	;# 
  1068  0197                     	;# 
  1069  0199                     	;# 
  1070  0199                     	;# 
  1071  0199                     	;# 
  1072  019A                     	;# 
  1073  019A                     	;# 
  1074  019A                     	;# 
  1075  019B                     	;# 
  1076  019B                     	;# 
  1077  019B                     	;# 
  1078  019B                     	;# 
  1079  019B                     	;# 
  1080  019C                     	;# 
  1081  019C                     	;# 
  1082  019C                     	;# 
  1083  019D                     	;# 
  1084  019D                     	;# 
  1085  019D                     	;# 
  1086  019E                     	;# 
  1087  019E                     	;# 
  1088  019E                     	;# 
  1089  019F                     	;# 
  1090  019F                     	;# 
  1091  019F                     	;# 
  1092  019F                     	;# 
  1093  019F                     	;# 
  1094  020C                     	;# 
  1095  020E                     	;# 
  1096  0211                     	;# 
  1097  0211                     	;# 
  1098  0212                     	;# 
  1099  0212                     	;# 
  1100  0213                     	;# 
  1101  0213                     	;# 
  1102  0214                     	;# 
  1103  0214                     	;# 
  1104  0215                     	;# 
  1105  0215                     	;# 
  1106  0215                     	;# 
  1107  0215                     	;# 
  1108  0216                     	;# 
  1109  0216                     	;# 
  1110  0217                     	;# 
  1111  0217                     	;# 
  1112  028C                     	;# 
  1113  028E                     	;# 
  1114  0291                     	;# 
  1115  0291                     	;# 
  1116  0292                     	;# 
  1117  0293                     	;# 
  1118  0293                     	;# 
  1119  0298                     	;# 
  1120  0298                     	;# 
  1121  0299                     	;# 
  1122  029A                     	;# 
  1123  029A                     	;# 
  1124  029E                     	;# 
  1125  030C                     	;# 
  1126  030E                     	;# 
  1127  038C                     	;# 
  1128  038E                     	;# 
  1129  0391                     	;# 
  1130  0392                     	;# 
  1131  0393                     	;# 
  1132  0397                     	;# 
  1133  0398                     	;# 
  1134  0399                     	;# 
  1135  0415                     	;# 
  1136  0416                     	;# 
  1137  0417                     	;# 
  1138  041C                     	;# 
  1139  041D                     	;# 
  1140  041E                     	;# 
  1141  0511                     	;# 
  1142  0515                     	;# 
  1143  0617                     	;# 
  1144  0618                     	;# 
  1145  0619                     	;# 
  1146  0619                     	;# 
  1147  061A                     	;# 
  1148  061B                     	;# 
  1149  061C                     	;# 
  1150  061C                     	;# 
  1151  0691                     	;# 
  1152  0692                     	;# 
  1153  0693                     	;# 
  1154  0694                     	;# 
  1155  0695                     	;# 
  1156  0696                     	;# 
  1157  0697                     	;# 
  1158  0698                     	;# 
  1159  0699                     	;# 
  1160  069A                     	;# 
  1161  069B                     	;# 
  1162  069C                     	;# 
  1163  069D                     	;# 
  1164  069E                     	;# 
  1165  069F                     	;# 
  1166  0E0F                     	;# 
  1167  0E10                     	;# 
  1168  0E11                     	;# 
  1169  0E12                     	;# 
  1170  0E13                     	;# 
  1171  0E14                     	;# 
  1172  0E15                     	;# 
  1173  0E17                     	;# 
  1174  0E20                     	;# 
  1175  0E21                     	;# 
  1176  0E22                     	;# 
  1177  0E24                     	;# 
  1178  0E25                     	;# 
  1179  0E28                     	;# 
  1180  0E29                     	;# 
  1181  0E2A                     	;# 
  1182  0E2B                     	;# 
  1183  0E90                     	;# 
  1184  0E91                     	;# 
  1185  0E92                     	;# 
  1186  0E94                     	;# 
  1187  0E95                     	;# 
  1188  0EA0                     	;# 
  1189  0EA1                     	;# 
  1190  0EA2                     	;# 
  1191  0EA3                     	;# 
  1192  0EA4                     	;# 
  1193  0EA5                     	;# 
  1194  0F0F                     	;# 
  1195  0F10                     	;# 
  1196  0F11                     	;# 
  1197  0F12                     	;# 
  1198  0F13                     	;# 
  1199  0F14                     	;# 
  1200  0F15                     	;# 
  1201  0F16                     	;# 
  1202  0F17                     	;# 
  1203  0F18                     	;# 
  1204  0F19                     	;# 
  1205  0F1A                     	;# 
  1206  0F1B                     	;# 
  1207  0F1C                     	;# 
  1208  0F1D                     	;# 
  1209  0F1E                     	;# 
  1210  0F1F                     	;# 
  1211  0F20                     	;# 
  1212  0F21                     	;# 
  1213  0F22                     	;# 
  1214  0F23                     	;# 
  1215  0F24                     	;# 
  1216  0F25                     	;# 
  1217  0F26                     	;# 
  1218  0F27                     	;# 
  1219  0F28                     	;# 
  1220  0F29                     	;# 
  1221  0F2A                     	;# 
  1222  0F2B                     	;# 
  1223  0F2C                     	;# 
  1224  0F2D                     	;# 
  1225  0F9E                     	;# 
  1226  0FE4                     	;# 
  1227  0FE5                     	;# 
  1228  0FE6                     	;# 
  1229  0FE7                     	;# 
  1230  0FE8                     	;# 
  1231  0FE9                     	;# 
  1232  0FEA                     	;# 
  1233  0FEB                     	;# 
  1234  0FED                     	;# 
  1235  0FEE                     	;# 
  1236  0FEF                     	;# 
  1237  0000                     	;# 
  1238  0001                     	;# 
  1239  0002                     	;# 
  1240  0003                     	;# 
  1241  0004                     	;# 
  1242  0005                     	;# 
  1243  0006                     	;# 
  1244  0007                     	;# 
  1245  0008                     	;# 
  1246  0009                     	;# 
  1247  000A                     	;# 
  1248  000B                     	;# 
  1249  000C                     	;# 
  1250  000E                     	;# 
  1251  0011                     	;# 
  1252  0012                     	;# 
  1253  0013                     	;# 
  1254  0015                     	;# 
  1255  0016                     	;# 
  1256  0016                     	;# 
  1257  0017                     	;# 
  1258  0018                     	;# 
  1259  0019                     	;# 
  1260  001A                     	;# 
  1261  001B                     	;# 
  1262  001C                     	;# 
  1263  008C                     	;# 
  1264  008E                     	;# 
  1265  0091                     	;# 
  1266  0092                     	;# 
  1267  0093                     	;# 
  1268  0095                     	;# 
  1269  0096                     	;# 
  1270  0097                     	;# 
  1271  0098                     	;# 
  1272  0099                     	;# 
  1273  009A                     	;# 
  1274  009B                     	;# 
  1275  009B                     	;# 
  1276  009C                     	;# 
  1277  009D                     	;# 
  1278  009E                     	;# 
  1279  009F                     	;# 
  1280  010C                     	;# 
  1281  010E                     	;# 
  1282  0111                     	;# 
  1283  0112                     	;# 
  1284  0113                     	;# 
  1285  0114                     	;# 
  1286  0115                     	;# 
  1287  0116                     	;# 
  1288  0117                     	;# 
  1289  0118                     	;# 
  1290  0119                     	;# 
  1291  011C                     	;# 
  1292  018C                     	;# 
  1293  018E                     	;# 
  1294  0191                     	;# 
  1295  0191                     	;# 
  1296  0192                     	;# 
  1297  0193                     	;# 
  1298  0193                     	;# 
  1299  0194                     	;# 
  1300  0195                     	;# 
  1301  0196                     	;# 
  1302  0197                     	;# 
  1303  0199                     	;# 
  1304  0199                     	;# 
  1305  0199                     	;# 
  1306  019A                     	;# 
  1307  019A                     	;# 
  1308  019A                     	;# 
  1309  019B                     	;# 
  1310  019B                     	;# 
  1311  019B                     	;# 
  1312  019B                     	;# 
  1313  019B                     	;# 
  1314  019C                     	;# 
  1315  019C                     	;# 
  1316  019C                     	;# 
  1317  019D                     	;# 
  1318  019D                     	;# 
  1319  019D                     	;# 
  1320  019E                     	;# 
  1321  019E                     	;# 
  1322  019E                     	;# 
  1323  019F                     	;# 
  1324  019F                     	;# 
  1325  019F                     	;# 
  1326  019F                     	;# 
  1327  019F                     	;# 
  1328  020C                     	;# 
  1329  020E                     	;# 
  1330  0211                     	;# 
  1331  0211                     	;# 
  1332  0212                     	;# 
  1333  0212                     	;# 
  1334  0213                     	;# 
  1335  0213                     	;# 
  1336  0214                     	;# 
  1337  0214                     	;# 
  1338  0215                     	;# 
  1339  0215                     	;# 
  1340  0215                     	;# 
  1341  0215                     	;# 
  1342  0216                     	;# 
  1343  0216                     	;# 
  1344  0217                     	;# 
  1345  0217                     	;# 
  1346  028C                     	;# 
  1347  028E                     	;# 
  1348  0291                     	;# 
  1349  0291                     	;# 
  1350  0292                     	;# 
  1351  0293                     	;# 
  1352  0293                     	;# 
  1353  0298                     	;# 
  1354  0298                     	;# 
  1355  0299                     	;# 
  1356  029A                     	;# 
  1357  029A                     	;# 
  1358  029E                     	;# 
  1359  030C                     	;# 
  1360  030E                     	;# 
  1361  038C                     	;# 
  1362  038E                     	;# 
  1363  0391                     	;# 
  1364  0392                     	;# 
  1365  0393                     	;# 
  1366  0397                     	;# 
  1367  0398                     	;# 
  1368  0399                     	;# 
  1369  0415                     	;# 
  1370  0416                     	;# 
  1371  0417                     	;# 
  1372  041C                     	;# 
  1373  041D                     	;# 
  1374  041E                     	;# 
  1375  0511                     	;# 
  1376  0515                     	;# 
  1377  0617                     	;# 
  1378  0618                     	;# 
  1379  0619                     	;# 
  1380  0619                     	;# 
  1381  061A                     	;# 
  1382  061B                     	;# 
  1383  061C                     	;# 
  1384  061C                     	;# 
  1385  0691                     	;# 
  1386  0692                     	;# 
  1387  0693                     	;# 
  1388  0694                     	;# 
  1389  0695                     	;# 
  1390  0696                     	;# 
  1391  0697                     	;# 
  1392  0698                     	;# 
  1393  0699                     	;# 
  1394  069A                     	;# 
  1395  069B                     	;# 
  1396  069C                     	;# 
  1397  069D                     	;# 
  1398  069E                     	;# 
  1399  069F                     	;# 
  1400  0E0F                     	;# 
  1401  0E10                     	;# 
  1402  0E11                     	;# 
  1403  0E12                     	;# 
  1404  0E13                     	;# 
  1405  0E14                     	;# 
  1406  0E15                     	;# 
  1407  0E17                     	;# 
  1408  0E20                     	;# 
  1409  0E21                     	;# 
  1410  0E22                     	;# 
  1411  0E24                     	;# 
  1412  0E25                     	;# 
  1413  0E28                     	;# 
  1414  0E29                     	;# 
  1415  0E2A                     	;# 
  1416  0E2B                     	;# 
  1417  0E90                     	;# 
  1418  0E91                     	;# 
  1419  0E92                     	;# 
  1420  0E94                     	;# 
  1421  0E95                     	;# 
  1422  0EA0                     	;# 
  1423  0EA1                     	;# 
  1424  0EA2                     	;# 
  1425  0EA3                     	;# 
  1426  0EA4                     	;# 
  1427  0EA5                     	;# 
  1428  0F0F                     	;# 
  1429  0F10                     	;# 
  1430  0F11                     	;# 
  1431  0F12                     	;# 
  1432  0F13                     	;# 
  1433  0F14                     	;# 
  1434  0F15                     	;# 
  1435  0F16                     	;# 
  1436  0F17                     	;# 
  1437  0F18                     	;# 
  1438  0F19                     	;# 
  1439  0F1A                     	;# 
  1440  0F1B                     	;# 
  1441  0F1C                     	;# 
  1442  0F1D                     	;# 
  1443  0F1E                     	;# 
  1444  0F1F                     	;# 
  1445  0F20                     	;# 
  1446  0F21                     	;# 
  1447  0F22                     	;# 
  1448  0F23                     	;# 
  1449  0F24                     	;# 
  1450  0F25                     	;# 
  1451  0F26                     	;# 
  1452  0F27                     	;# 
  1453  0F28                     	;# 
  1454  0F29                     	;# 
  1455  0F2A                     	;# 
  1456  0F2B                     	;# 
  1457  0F2C                     	;# 
  1458  0F2D                     	;# 
  1459  0F9E                     	;# 
  1460  0FE4                     	;# 
  1461  0FE5                     	;# 
  1462  0FE6                     	;# 
  1463  0FE7                     	;# 
  1464  0FE8                     	;# 
  1465  0FE9                     	;# 
  1466  0FEA                     	;# 
  1467  0FEB                     	;# 
  1468  0FED                     	;# 
  1469  0FEE                     	;# 
  1470  0FEF                     	;# 
  1471  0000                     	;# 
  1472  0001                     	;# 
  1473  0002                     	;# 
  1474  0003                     	;# 
  1475  0004                     	;# 
  1476  0005                     	;# 
  1477  0006                     	;# 
  1478  0007                     	;# 
  1479  0008                     	;# 
  1480  0009                     	;# 
  1481  000A                     	;# 
  1482  000B                     	;# 
  1483  000C                     	;# 
  1484  000E                     	;# 
  1485  0011                     	;# 
  1486  0012                     	;# 
  1487  0013                     	;# 
  1488  0015                     	;# 
  1489  0016                     	;# 
  1490  0016                     	;# 
  1491  0017                     	;# 
  1492  0018                     	;# 
  1493  0019                     	;# 
  1494  001A                     	;# 
  1495  001B                     	;# 
  1496  001C                     	;# 
  1497  008C                     	;# 
  1498  008E                     	;# 
  1499  0091                     	;# 
  1500  0092                     	;# 
  1501  0093                     	;# 
  1502  0095                     	;# 
  1503  0096                     	;# 
  1504  0097                     	;# 
  1505  0098                     	;# 
  1506  0099                     	;# 
  1507  009A                     	;# 
  1508  009B                     	;# 
  1509  009B                     	;# 
  1510  009C                     	;# 
  1511  009D                     	;# 
  1512  009E                     	;# 
  1513  009F                     	;# 
  1514  010C                     	;# 
  1515  010E                     	;# 
  1516  0111                     	;# 
  1517  0112                     	;# 
  1518  0113                     	;# 
  1519  0114                     	;# 
  1520  0115                     	;# 
  1521  0116                     	;# 
  1522  0117                     	;# 
  1523  0118                     	;# 
  1524  0119                     	;# 
  1525  011C                     	;# 
  1526  018C                     	;# 
  1527  018E                     	;# 
  1528  0191                     	;# 
  1529  0191                     	;# 
  1530  0192                     	;# 
  1531  0193                     	;# 
  1532  0193                     	;# 
  1533  0194                     	;# 
  1534  0195                     	;# 
  1535  0196                     	;# 
  1536  0197                     	;# 
  1537  0199                     	;# 
  1538  0199                     	;# 
  1539  0199                     	;# 
  1540  019A                     	;# 
  1541  019A                     	;# 
  1542  019A                     	;# 
  1543  019B                     	;# 
  1544  019B                     	;# 
  1545  019B                     	;# 
  1546  019B                     	;# 
  1547  019B                     	;# 
  1548  019C                     	;# 
  1549  019C                     	;# 
  1550  019C                     	;# 
  1551  019D                     	;# 
  1552  019D                     	;# 
  1553  019D                     	;# 
  1554  019E                     	;# 
  1555  019E                     	;# 
  1556  019E                     	;# 
  1557  019F                     	;# 
  1558  019F                     	;# 
  1559  019F                     	;# 
  1560  019F                     	;# 
  1561  019F                     	;# 
  1562  020C                     	;# 
  1563  020E                     	;# 
  1564  0211                     	;# 
  1565  0211                     	;# 
  1566  0212                     	;# 
  1567  0212                     	;# 
  1568  0213                     	;# 
  1569  0213                     	;# 
  1570  0214                     	;# 
  1571  0214                     	;# 
  1572  0215                     	;# 
  1573  0215                     	;# 
  1574  0215                     	;# 
  1575  0215                     	;# 
  1576  0216                     	;# 
  1577  0216                     	;# 
  1578  0217                     	;# 
  1579  0217                     	;# 
  1580  028C                     	;# 
  1581  028E                     	;# 
  1582  0291                     	;# 
  1583  0291                     	;# 
  1584  0292                     	;# 
  1585  0293                     	;# 
  1586  0293                     	;# 
  1587  0298                     	;# 
  1588  0298                     	;# 
  1589  0299                     	;# 
  1590  029A                     	;# 
  1591  029A                     	;# 
  1592  029E                     	;# 
  1593  030C                     	;# 
  1594  030E                     	;# 
  1595  038C                     	;# 
  1596  038E                     	;# 
  1597  0391                     	;# 
  1598  0392                     	;# 
  1599  0393                     	;# 
  1600  0397                     	;# 
  1601  0398                     	;# 
  1602  0399                     	;# 
  1603  0415                     	;# 
  1604  0416                     	;# 
  1605  0417                     	;# 
  1606  041C                     	;# 
  1607  041D                     	;# 
  1608  041E                     	;# 
  1609  0511                     	;# 
  1610  0515                     	;# 
  1611  0617                     	;# 
  1612  0618                     	;# 
  1613  0619                     	;# 
  1614  0619                     	;# 
  1615  061A                     	;# 
  1616  061B                     	;# 
  1617  061C                     	;# 
  1618  061C                     	;# 
  1619  0691                     	;# 
  1620  0692                     	;# 
  1621  0693                     	;# 
  1622  0694                     	;# 
  1623  0695                     	;# 
  1624  0696                     	;# 
  1625  0697                     	;# 
  1626  0698                     	;# 
  1627  0699                     	;# 
  1628  069A                     	;# 
  1629  069B                     	;# 
  1630  069C                     	;# 
  1631  069D                     	;# 
  1632  069E                     	;# 
  1633  069F                     	;# 
  1634  0E0F                     	;# 
  1635  0E10                     	;# 
  1636  0E11                     	;# 
  1637  0E12                     	;# 
  1638  0E13                     	;# 
  1639  0E14                     	;# 
  1640  0E15                     	;# 
  1641  0E17                     	;# 
  1642  0E20                     	;# 
  1643  0E21                     	;# 
  1644  0E22                     	;# 
  1645  0E24                     	;# 
  1646  0E25                     	;# 
  1647  0E28                     	;# 
  1648  0E29                     	;# 
  1649  0E2A                     	;# 
  1650  0E2B                     	;# 
  1651  0E90                     	;# 
  1652  0E91                     	;# 
  1653  0E92                     	;# 
  1654  0E94                     	;# 
  1655  0E95                     	;# 
  1656  0EA0                     	;# 
  1657  0EA1                     	;# 
  1658  0EA2                     	;# 
  1659  0EA3                     	;# 
  1660  0EA4                     	;# 
  1661  0EA5                     	;# 
  1662  0F0F                     	;# 
  1663  0F10                     	;# 
  1664  0F11                     	;# 
  1665  0F12                     	;# 
  1666  0F13                     	;# 
  1667  0F14                     	;# 
  1668  0F15                     	;# 
  1669  0F16                     	;# 
  1670  0F17                     	;# 
  1671  0F18                     	;# 
  1672  0F19                     	;# 
  1673  0F1A                     	;# 
  1674  0F1B                     	;# 
  1675  0F1C                     	;# 
  1676  0F1D                     	;# 
  1677  0F1E                     	;# 
  1678  0F1F                     	;# 
  1679  0F20                     	;# 
  1680  0F21                     	;# 
  1681  0F22                     	;# 
  1682  0F23                     	;# 
  1683  0F24                     	;# 
  1684  0F25                     	;# 
  1685  0F26                     	;# 
  1686  0F27                     	;# 
  1687  0F28                     	;# 
  1688  0F29                     	;# 
  1689  0F2A                     	;# 
  1690  0F2B                     	;# 
  1691  0F2C                     	;# 
  1692  0F2D                     	;# 
  1693  0F9E                     	;# 
  1694  0FE4                     	;# 
  1695  0FE5                     	;# 
  1696  0FE6                     	;# 
  1697  0FE7                     	;# 
  1698  0FE8                     	;# 
  1699  0FE9                     	;# 
  1700  0FEA                     	;# 
  1701  0FEB                     	;# 
  1702  0FED                     	;# 
  1703  0FEE                     	;# 
  1704  0FEF                     	;# 
  1705                           
  1706 ;; Function _EUSART_DefaultFramingErrorHandler is unused but had its address taken
  1707  0000                     
  1708 ;; Function _EUSART_DefaultOverrunErrorHandler is unused but had its address taken
  1709  0000                     
  1710 ;; Function _EUSART_DefaultErrorHandler is unused but had its address taken
  1711  0000                     
  1712                           	psect	nvBANK0
  1713  005D                     __pnvBANK0:
  1714  005D                     _EUSART_ErrorHandler:
  1715  005D                     	ds	2
  1716  005F                     _EUSART_OverrunErrorHandler:
  1717  005F                     	ds	2
  1718  0061                     _EUSART_FramingErrorHandler:
  1719  0061                     	ds	2
  1720  001C                     _T2CONbits	set	28
  1721  001C                     _T2CON	set	28
  1722  0011                     _PIR1bits	set	17
  1723  001A                     _TMR2	set	26
  1724  001B                     _PR2	set	27
  1725  009D                     _ADCON0bits	set	157
  1726  009D                     _ADCON0	set	157
  1727  009C                     _ADRESH	set	156
  1728  009B                     _ADRESL	set	155
  1729  009F                     _ADCON2	set	159
  1730  009E                     _ADCON1	set	158
  1731  0097                     _WDTCON	set	151
  1732  0098                     _OSCTUNE	set	152
  1733  009A                     _OSCSTAT	set	154
  1734  0099                     _OSCCON	set	153
  1735  0095                     _OPTION_REGbits	set	149
  1736  008E                     _TRISC	set	142
  1737  008C                     _TRISA	set	140
  1738  0116                     _BORCON	set	278
  1739  010E                     _LATC	set	270
  1740  010C                     _LATA	set	268
  1741  019A                     _TX1REG	set	410
  1742  0199                     _RC1REG	set	409
  1743  019D                     _RC1STAbits	set	413
  1744  019E                     _TX1STAbits	set	414
  1745  019C                     _SP1BRGH	set	412
  1746  019B                     _SP1BRGL	set	411
  1747  019E                     _TX1STA	set	414
  1748  019D                     _RC1STA	set	413
  1749  019F                     _BAUD1CON	set	415
  1750  019D                     _RCSTAbits	set	413
  1751  019E                     _TXSTAbits	set	414
  1752  018C                     _ANSELA	set	396
  1753  018E                     _ANSELC	set	398
  1754  020E                     _WPUC	set	526
  1755  020C                     _WPUA	set	524
  1756  029E                     _CCPTMRSbits	set	670
  1757  0292                     _CCPR1H	set	658
  1758  0291                     _CCPR1L	set	657
  1759  0293                     _CCP1CON	set	659
  1760  028E                     _ODCONC	set	654
  1761  028C                     _ODCONA	set	652
  1762  030E                     _SLRCONC	set	782
  1763  030C                     _SLRCONA	set	780
  1764  038E                     _INLVLC	set	910
  1765  038C                     _INLVLA	set	908
  1766  0E24                     _RXPPS	set	3620
  1767  0EA4                     _RC4PPS	set	3748
  1768                           
  1769                           	psect	stringtext1
  1770  0800                     __pstringtext1:
  1771  0800                     STR_1:
  1772  0800  3448               	retlw	72	;'H'
  1773  0801  3465               	retlw	101	;'e'
  1774  0802  346C               	retlw	108	;'l'
  1775  0803  346C               	retlw	108	;'l'
  1776  0804  346F               	retlw	111	;'o'
  1777  0805  3420               	retlw	32	;' '
  1778  0806  3457               	retlw	87	;'W'
  1779  0807  346F               	retlw	111	;'o'
  1780  0808  3472               	retlw	114	;'r'
  1781  0809  346C               	retlw	108	;'l'
  1782  080A  3464               	retlw	100	;'d'
  1783  080B  3421               	retlw	33	;'!'
  1784  080C  340A               	retlw	10
  1785  080D  3400               	retlw	0
  1786                           
  1787                           	psect	stringtext2
  1788  0000                     __pstringtext2:
  1789                           
  1790                           	psect	cinit
  1791  07F5                     start_initialization:	
  1792                           ; #config settings
  1793                           
  1794  07F5                     __initialization:
  1795                           
  1796                           ; Clear objects allocated to BANK0
  1797  07F5  3020               	movlw	low __pbssBANK0
  1798  07F6  0084               	movwf	4
  1799  07F7  3000               	movlw	high __pbssBANK0
  1800  07F8  0085               	movwf	5
  1801  07F9  302B               	movlw	43
  1802  07FA  3186  2662  3187   	fcall	clear_ram0
  1803  07FD                     end_of_initialization:	
  1804                           ;End of C runtime variable initialization code
  1805                           
  1806  07FD                     __end_of__initialization:
  1807  07FD  0020               	movlb	0
  1808  07FE  3186  2E94         	ljmp	_main	;jump to C main() function
  1809                           
  1810                           	psect	bssBANK0
  1811  0020                     __pbssBANK0:
  1812  0020                     _dbuf:
  1813  0020                     	ds	32
  1814  0040                     _nout:
  1815  0040                     	ds	2
  1816  0042                     _width:
  1817  0042                     	ds	2
  1818  0044                     _prec:
  1819  0044                     	ds	2
  1820  0046                     _flags:
  1821  0046                     	ds	2
  1822  0048                     _ADC_InterruptHandler:
  1823  0048                     	ds	2
  1824  004A                     _eusartRxLastError:
  1825  004A                     	ds	1
  1826                           
  1827                           	psect	clrtext
  1828  0662                     clear_ram0:	
  1829                           ;	Called with FSR0 containing the base address, and
  1830                           ;	WREG with the size to clear
  1831                           
  1832  0662  0064               	clrwdt	;clear the watchdog before getting into this loop
  1833  0663                     clrloop0:
  1834  0663  0180               	clrf	0	;clear RAM location pointed to by FSR
  1835  0664  3101               	addfsr 0,1
  1836  0665  0B89               	decfsz	9,f	;Have we reached the end of clearing yet?
  1837  0666  2E63               	goto	clrloop0	;have we reached the end yet?
  1838  0667  3400               	retlw	0	;all done for this memory range, return
  1839                           
  1840                           	psect	cstackCOMMON
  1841  0070                     __pcstackCOMMON:
  1842  0070                     ?_OSCILLATOR_Initialize:
  1843  0070                     ??_OSCILLATOR_Initialize:	
  1844                           ; 1 bytes @ 0x0
  1845                           
  1846  0070                     ?_WDT_Initialize:	
  1847                           ; 1 bytes @ 0x0
  1848                           
  1849  0070                     ??_WDT_Initialize:	
  1850                           ; 1 bytes @ 0x0
  1851                           
  1852  0070                     ?_ADC_Initialize:	
  1853                           ; 1 bytes @ 0x0
  1854                           
  1855  0070                     ??_ADC_Initialize:	
  1856                           ; 1 bytes @ 0x0
  1857                           
  1858  0070                     ?_EUSART_Initialize:	
  1859                           ; 1 bytes @ 0x0
  1860                           
  1861  0070                     ?_EUSART_SetFramingErrorHandler:	
  1862                           ; 1 bytes @ 0x0
  1863                           
  1864  0070                     ?_EUSART_SetOverrunErrorHandler:	
  1865                           ; 1 bytes @ 0x0
  1866                           
  1867  0070                     ?_EUSART_SetErrorHandler:	
  1868                           ; 1 bytes @ 0x0
  1869                           
  1870  0070                     ?_PIN_MANAGER_Initialize:	
  1871                           ; 1 bytes @ 0x0
  1872                           
  1873  0070                     ??_PIN_MANAGER_Initialize:	
  1874                           ; 1 bytes @ 0x0
  1875                           
  1876  0070                     ?_PWM1_Initialize:	
  1877                           ; 1 bytes @ 0x0
  1878                           
  1879  0070                     ??_PWM1_Initialize:	
  1880                           ; 1 bytes @ 0x0
  1881                           
  1882  0070                     ?_TMR2_Initialize:	
  1883                           ; 1 bytes @ 0x0
  1884                           
  1885  0070                     ??_TMR2_Initialize:	
  1886                           ; 1 bytes @ 0x0
  1887                           
  1888  0070                     ?_SYSTEM_Initialize:	
  1889                           ; 1 bytes @ 0x0
  1890                           
  1891  0070                     ?_main:	
  1892                           ; 1 bytes @ 0x0
  1893                           
  1894  0070                     ?_EUSART_Write:	
  1895                           ; 1 bytes @ 0x0
  1896                           
  1897  0070                     ??_EUSART_Write:	
  1898                           ; 1 bytes @ 0x0
  1899                           
  1900  0070                     ?_putch:	
  1901                           ; 1 bytes @ 0x0
  1902                           
  1903  0070                     EUSART_Write@txData:	
  1904                           ; 1 bytes @ 0x0
  1905                           
  1906  0070                     EUSART_SetFramingErrorHandler@interruptHandler:	
  1907                           ; 1 bytes @ 0x0
  1908                           
  1909  0070                     EUSART_SetOverrunErrorHandler@interruptHandler:	
  1910                           ; 2 bytes @ 0x0
  1911                           
  1912  0070                     EUSART_SetErrorHandler@interruptHandler:	
  1913                           ; 2 bytes @ 0x0
  1914                           
  1915                           
  1916                           ; 2 bytes @ 0x0
  1917  0070                     	ds	1
  1918  0071                     ??_putch:
  1919  0071                     putch@txData:	
  1920                           ; 1 bytes @ 0x1
  1921                           
  1922                           
  1923                           ; 1 bytes @ 0x1
  1924  0071                     	ds	1
  1925  0072                     ??_EUSART_Initialize:
  1926  0072                     ??_EUSART_SetFramingErrorHandler:	
  1927                           ; 1 bytes @ 0x2
  1928                           
  1929  0072                     ??_EUSART_SetOverrunErrorHandler:	
  1930                           ; 1 bytes @ 0x2
  1931                           
  1932  0072                     ??_EUSART_SetErrorHandler:	
  1933                           ; 1 bytes @ 0x2
  1934                           
  1935  0072                     ??_SYSTEM_Initialize:	
  1936                           ; 1 bytes @ 0x2
  1937                           
  1938  0072                     ?_fputc:	
  1939                           ; 1 bytes @ 0x2
  1940                           
  1941  0072                     fputc@c:	
  1942                           ; 2 bytes @ 0x2
  1943                           
  1944                           
  1945                           ; 2 bytes @ 0x2
  1946  0072                     	ds	2
  1947  0074                     fputc@fp:
  1948                           
  1949                           ; 1 bytes @ 0x4
  1950  0074                     	ds	1
  1951  0075                     ??_fputc:
  1952                           
  1953                           ; 1 bytes @ 0x5
  1954  0075                     	ds	5
  1955  007A                     ?_vfpfcnvrt:
  1956  007A                     vfpfcnvrt@fmt:	
  1957                           ; 2 bytes @ 0xA
  1958                           
  1959                           
  1960                           ; 1 bytes @ 0xA
  1961  007A                     	ds	1
  1962  007B                     vfpfcnvrt@ap:
  1963                           
  1964                           ; 1 bytes @ 0xB
  1965  007B                     	ds	1
  1966  007C                     vfpfcnvrt@fp:
  1967                           
  1968                           ; 1 bytes @ 0xC
  1969  007C                     	ds	1
  1970  007D                     ??_printf:
  1971                           
  1972                           ; 1 bytes @ 0xD
  1973  007D                     	ds	1
  1974  007E                     ??_main:
  1975                           
  1976                           	psect	cstackBANK0
  1977  004B                     __pcstackBANK0:	
  1978                           ; 1 bytes @ 0xE
  1979                           
  1980  004B                     ??_vfpfcnvrt:
  1981                           
  1982                           ; 1 bytes @ 0x0
  1983  004B                     	ds	5
  1984  0050                     ?_vfprintf:
  1985  0050                     vfprintf@fmt:	
  1986                           ; 2 bytes @ 0x5
  1987                           
  1988                           
  1989                           ; 2 bytes @ 0x5
  1990  0050                     	ds	2
  1991  0052                     vfprintf@ap:
  1992                           
  1993                           ; 1 bytes @ 0x7
  1994  0052                     	ds	1
  1995  0053                     ??_vfprintf:
  1996                           
  1997                           ; 1 bytes @ 0x8
  1998  0053                     	ds	2
  1999  0055                     vfprintf@fp:
  2000                           
  2001                           ; 1 bytes @ 0xA
  2002  0055                     	ds	1
  2003  0056                     vfprintf@cfmt:
  2004                           
  2005                           ; 2 bytes @ 0xB
  2006  0056                     	ds	2
  2007  0058                     ?_printf:
  2008  0058                     printf@fmt:	
  2009                           ; 2 bytes @ 0xD
  2010                           
  2011                           
  2012                           ; 2 bytes @ 0xD
  2013  0058                     	ds	4
  2014  005C                     printf@ap:
  2015                           
  2016                           ; 1 bytes @ 0x11
  2017  005C                     	ds	1
  2018                           
  2019                           	psect	maintext
  2020  0694                     __pmaintext:	
  2021 ;;
  2022 ;;Main: autosize = 0, tempsize = 0, incstack = 0, save=0
  2023 ;;
  2024 ;; *************** function _main *****************
  2025 ;; Defined at:
  2026 ;;		line 50 in file "main.c"
  2027 ;; Parameters:    Size  Location     Type
  2028 ;;		None
  2029 ;; Auto vars:     Size  Location     Type
  2030 ;;		None
  2031 ;; Return value:  Size  Location     Type
  2032 ;;                  1    wreg      void 
  2033 ;; Registers used:
  2034 ;;		wreg, fsr0l, fsr0h, fsr1l, fsr1h, status,2, status,0, pclath, cstack
  2035 ;; Tracked objects:
  2036 ;;		On entry : B1F/0
  2037 ;;		On exit  : 0/0
  2038 ;;		Unchanged: 0/0
  2039 ;; Data sizes:     COMMON   BANK0   BANK1   BANK2   BANK3   BANK4   BANK5   BANK6   BANK7   BANK8   BANK9  BANK10  BANK1
      +1  BANK12
  2040 ;;      Params:         0       0       0       0       0       0       0       0       0       0       0       0       
      +0       0
  2041 ;;      Locals:         0       0       0       0       0       0       0       0       0       0       0       0       
      +0       0
  2042 ;;      Temps:          0       0       0       0       0       0       0       0       0       0       0       0       
      +0       0
  2043 ;;      Totals:         0       0       0       0       0       0       0       0       0       0       0       0       
      +0       0
  2044 ;;Total ram usage:        0 bytes
  2045 ;; Hardware stack levels required when called:    6
  2046 ;; This function calls:
  2047 ;;		_SYSTEM_Initialize
  2048 ;;		_printf
  2049 ;; This function is called by:
  2050 ;;		Startup code after reset
  2051 ;; This function uses a non-reentrant model
  2052 ;;
  2053                           
  2054                           
  2055                           ;psect for function _main
  2056  0694                     _main:
  2057  0694                     l1213:	
  2058                           ;incstack = 0
  2059                           ; Regs used in _main: [wreg-fsr1h+status,2+status,0+pclath+cstack]
  2060                           
  2061                           
  2062                           ;main.c: 52:     TXSTAbits.TXEN = 1;
  2063  0694  0023               	movlb	3	; select bank3
  2064  0695  169E               	bsf	30,5	;volatile
  2065                           
  2066                           ;main.c: 53:     RCSTAbits.SPEN = 1;
  2067  0696  179D               	bsf	29,7	;volatile
  2068  0697                     l1215:
  2069                           
  2070                           ;main.c: 56:     SYSTEM_Initialize();
  2071  0697  3186  26B7  3186   	fcall	_SYSTEM_Initialize
  2072  069A                     l1217:
  2073                           
  2074                           ;main.c: 74:     printf("Hello World!\n");
  2075  069A  3000               	movlw	low (STR_1| (0+32768))
  2076  069B  0020               	movlb	0	; select bank0
  2077  069C  00D8               	movwf	printf@fmt
  2078  069D  3088               	movlw	high (STR_1| (0+32768))
  2079  069E  00D9               	movwf	printf@fmt+1
  2080  069F  3186  26A5  3186   	fcall	_printf
  2081  06A2                     l172:	
  2082                           ;main.c: 76:     while (1)
  2083                           
  2084  06A2                     l173:	
  2085                           ;main.c: 77:     {;main.c: 79:     }
  2086                           
  2087  06A2  2EA2               	goto	l172
  2088  06A3  3180  2802         	ljmp	start
  2089  06A5                     __end_of_main:
  2090                           
  2091                           	psect	text1
  2092  06A5                     __ptext1:	
  2093 ;; *************** function _printf *****************
  2094 ;; Defined at:
  2095 ;;		line 5 in file "C:\Program Files\Microchip\xc8\v2.31\pic\sources\c99\common\printf.c"
  2096 ;; Parameters:    Size  Location     Type
  2097 ;;  fmt             2   13[BANK0 ] PTR const unsigned char 
  2098 ;;		 -> STR_1(14), 
  2099 ;; Auto vars:     Size  Location     Type
  2100 ;;  ret             2    0        int 
  2101 ;;  ap              1   17[BANK0 ] PTR void [1]
  2102 ;;		 -> ?_printf(2), 
  2103 ;; Return value:  Size  Location     Type
  2104 ;;                  2   13[BANK0 ] int 
  2105 ;; Registers used:
  2106 ;;		wreg, fsr0l, fsr0h, fsr1l, fsr1h, status,2, status,0, pclath, cstack
  2107 ;; Tracked objects:
  2108 ;;		On entry : 0/0
  2109 ;;		On exit  : 0/0
  2110 ;;		Unchanged: 0/0
  2111 ;; Data sizes:     COMMON   BANK0   BANK1   BANK2   BANK3   BANK4   BANK5   BANK6   BANK7   BANK8   BANK9  BANK10  BANK1
      +1  BANK12
  2112 ;;      Params:         0       2       0       0       0       0       0       0       0       0       0       0       
      +0       0
  2113 ;;      Locals:         0       3       0       0       0       0       0       0       0       0       0       0       
      +0       0
  2114 ;;      Temps:          1       0       0       0       0       0       0       0       0       0       0       0       
      +0       0
  2115 ;;      Totals:         1       5       0       0       0       0       0       0       0       0       0       0       
      +0       0
  2116 ;;Total ram usage:        6 bytes
  2117 ;; Hardware stack levels used:    1
  2118 ;; Hardware stack levels required when called:    5
  2119 ;; This function calls:
  2120 ;;		_vfprintf
  2121 ;; This function is called by:
  2122 ;;		_main
  2123 ;; This function uses a non-reentrant model
  2124 ;;
  2125                           
  2126                           
  2127                           ;psect for function _printf
  2128  06A5                     _printf:
  2129  06A5                     l1195:	
  2130                           ;incstack = 0
  2131                           ; Regs used in _printf: [wreg-fsr1h+status,2+status,0+pclath+cstack]
  2132                           
  2133  06A5  305A               	movlw	(low ((?_printf| 0+2)))& (0+255)
  2134  06A6  00FD               	movwf	??_printf
  2135  06A7  087D               	movf	??_printf,w
  2136  06A8  0020               	movlb	0	; select bank0
  2137  06A9  00DC               	movwf	printf@ap
  2138  06AA                     l1197:
  2139  06AA  0859               	movf	printf@fmt+1,w
  2140  06AB  00D1               	movwf	vfprintf@fmt+1
  2141  06AC  0858               	movf	printf@fmt,w
  2142  06AD  00D0               	movwf	vfprintf@fmt
  2143  06AE  305C               	movlw	(low (printf@ap| 0))& (0+255)
  2144  06AF  00FD               	movwf	??_printf
  2145  06B0  087D               	movf	??_printf,w
  2146  06B1  00D2               	movwf	vfprintf@ap
  2147  06B2  3000               	movlw	0
  2148  06B3  3187  2714  3186   	fcall	_vfprintf
  2149  06B6                     l800:
  2150  06B6  0008               	return
  2151  06B7                     __end_of_printf:
  2152                           
  2153                           	psect	text2
  2154  0714                     __ptext2:	
  2155 ;; *************** function _vfprintf *****************
  2156 ;; Defined at:
  2157 ;;		line 1390 in file "C:\Program Files\Microchip\xc8\v2.31\pic\sources\c99\common\doprnt.c"
  2158 ;; Parameters:    Size  Location     Type
  2159 ;;  fp              1    wreg     PTR struct _IO_FILE
  2160 ;;		 -> NULL(0), 
  2161 ;;  fmt             2    5[BANK0 ] PTR const unsigned char 
  2162 ;;		 -> STR_1(14), 
  2163 ;;  ap              1    7[BANK0 ] PTR PTR void 
  2164 ;;		 -> printf@ap(1), 
  2165 ;; Auto vars:     Size  Location     Type
  2166 ;;  fp              1   10[BANK0 ] PTR struct _IO_FILE
  2167 ;;		 -> NULL(0), 
  2168 ;;  cfmt            2   11[BANK0 ] PTR unsigned char 
  2169 ;;		 -> STR_1(14), 
  2170 ;; Return value:  Size  Location     Type
  2171 ;;                  2    5[BANK0 ] int 
  2172 ;; Registers used:
  2173 ;;		wreg, fsr0l, fsr0h, fsr1l, fsr1h, status,2, status,0, pclath, cstack
  2174 ;; Tracked objects:
  2175 ;;		On entry : 0/0
  2176 ;;		On exit  : 0/0
  2177 ;;		Unchanged: 0/0
  2178 ;; Data sizes:     COMMON   BANK0   BANK1   BANK2   BANK3   BANK4   BANK5   BANK6   BANK7   BANK8   BANK9  BANK10  BANK1
      +1  BANK12
  2179 ;;      Params:         0       3       0       0       0       0       0       0       0       0       0       0       
      +0       0
  2180 ;;      Locals:         0       3       0       0       0       0       0       0       0       0       0       0       
      +0       0
  2181 ;;      Temps:          0       2       0       0       0       0       0       0       0       0       0       0       
      +0       0
  2182 ;;      Totals:         0       8       0       0       0       0       0       0       0       0       0       0       
      +0       0
  2183 ;;Total ram usage:        8 bytes
  2184 ;; Hardware stack levels used:    1
  2185 ;; Hardware stack levels required when called:    4
  2186 ;; This function calls:
  2187 ;;		_vfpfcnvrt
  2188 ;; This function is called by:
  2189 ;;		_printf
  2190 ;; This function uses a non-reentrant model
  2191 ;;
  2192                           
  2193                           
  2194                           ;psect for function _vfprintf
  2195  0714                     _vfprintf:
  2196                           
  2197                           ;incstack = 0
  2198                           ; Regs used in _vfprintf: [wreg-fsr1h+status,2+status,0+pclath+cstack]
  2199                           ;vfprintf@fp stored from wreg
  2200  0714  0020               	movlb	0	; select bank0
  2201  0715  00D5               	movwf	vfprintf@fp
  2202  0716                     l1181:
  2203                           
  2204                           ;C:\Program Files\Microchip\xc8\v2.31\pic\sources\c99\common\doprnt.c: 1390: int vfprint
      +                          f(FILE *fp, const char *fmt, va_list ap);C:\Program Files\Microchip\xc8\v2.31\pic\source
      +                          s\c99\common\doprnt.c: 1391: {;C:\Program Files\Microchip\xc8\v2.31\pic\sources\c99\comm
      +                          on\doprnt.c: 1393:     char *cfmt;;C:\Program Files\Microchip\xc8\v2.31\pic\sources\c99\
      +                          common\doprnt.c: 1395:     cfmt = (char *)fmt;
  2205  0716  0851               	movf	vfprintf@fmt+1,w
  2206  0717  00D7               	movwf	vfprintf@cfmt+1
  2207  0718  0850               	movf	vfprintf@fmt,w
  2208  0719  00D6               	movwf	vfprintf@cfmt
  2209  071A                     l1183:
  2210                           
  2211                           ;C:\Program Files\Microchip\xc8\v2.31\pic\sources\c99\common\doprnt.c: 1396:     nout = 
      +                          0;
  2212  071A  01C0               	clrf	_nout
  2213  071B  01C1               	clrf	_nout+1
  2214                           
  2215                           ;C:\Program Files\Microchip\xc8\v2.31\pic\sources\c99\common\doprnt.c: 1397:     while (
      +                          *cfmt) {
  2216  071C  2F2E               	goto	l1187
  2217  071D                     l1185:
  2218                           
  2219                           ;C:\Program Files\Microchip\xc8\v2.31\pic\sources\c99\common\doprnt.c: 1398:         nou
      +                          t += vfpfcnvrt(fp, &cfmt, ap);
  2220  071D  3056               	movlw	(low (vfprintf@cfmt| 0))& (0+255)
  2221  071E  00D3               	movwf	??_vfprintf
  2222  071F  0853               	movf	??_vfprintf,w
  2223  0720  00FA               	movwf	vfpfcnvrt@fmt
  2224  0721  0852               	movf	vfprintf@ap,w
  2225  0722  00D4               	movwf	??_vfprintf+1
  2226  0723  0854               	movf	??_vfprintf+1,w
  2227  0724  00FB               	movwf	vfpfcnvrt@ap
  2228  0725  0855               	movf	vfprintf@fp,w
  2229  0726  3187  277B  3187   	fcall	_vfpfcnvrt
  2230  0729  087A               	movf	?_vfpfcnvrt,w
  2231  072A  0020               	movlb	0	; select bank0
  2232  072B  07C0               	addwf	_nout,f
  2233  072C  087B               	movf	?_vfpfcnvrt+1,w
  2234  072D  3DC1               	addwfc	_nout+1,f
  2235  072E                     l1187:
  2236                           
  2237                           ;C:\Program Files\Microchip\xc8\v2.31\pic\sources\c99\common\doprnt.c: 1397:     while (
      +                          *cfmt) {
  2238  072E  0856               	movf	vfprintf@cfmt,w
  2239  072F  0084               	movwf	4
  2240  0730  0857               	movf	vfprintf@cfmt+1,w
  2241  0731  0085               	movwf	5
  2242  0732  0012               	moviw fsr0++
  2243  0733  1D03               	btfss	3,2
  2244  0734  2F36               	goto	u231
  2245  0735  2F37               	goto	u230
  2246  0736                     u231:
  2247  0736  2F1D               	goto	l1185
  2248  0737                     u230:
  2249  0737                     l1189:
  2250                           
  2251                           ;C:\Program Files\Microchip\xc8\v2.31\pic\sources\c99\common\doprnt.c: 1400:     return 
      +                          nout;
  2252  0737  0841               	movf	_nout+1,w
  2253  0738  00D1               	movwf	?_vfprintf+1
  2254  0739  0840               	movf	_nout,w
  2255  073A  00D0               	movwf	?_vfprintf
  2256  073B                     l839:
  2257  073B  0008               	return
  2258  073C                     __end_of_vfprintf:
  2259                           
  2260                           	psect	text3
  2261  077B                     __ptext3:	
  2262 ;; *************** function _vfpfcnvrt *****************
  2263 ;; Defined at:
  2264 ;;		line 692 in file "C:\Program Files\Microchip\xc8\v2.31\pic\sources\c99\common\doprnt.c"
  2265 ;; Parameters:    Size  Location     Type
  2266 ;;  fp              1    wreg     PTR struct _IO_FILE
  2267 ;;		 -> NULL(0), 
  2268 ;;  fmt             1   10[COMMON] PTR PTR unsigned char 
  2269 ;;		 -> vfprintf@cfmt(2), 
  2270 ;;  ap              1   11[COMMON] PTR PTR void 
  2271 ;;		 -> printf@ap(1), 
  2272 ;; Auto vars:     Size  Location     Type
  2273 ;;  fp              1   12[COMMON] PTR struct _IO_FILE
  2274 ;;		 -> NULL(0), 
  2275 ;;  llu             8    0        unsigned long long 
  2276 ;;  ll              8    0        long long 
  2277 ;;  f               4    0        long long 
  2278 ;;  ct              3    0        unsigned char [3]
  2279 ;;  vp              2    0        PTR void 
  2280 ;;  i               2    0        int 
  2281 ;;  done            2    0        int 
  2282 ;;  cp              2    0        PTR unsigned char 
  2283 ;;  c               1    0        unsigned char 
  2284 ;; Return value:  Size  Location     Type
  2285 ;;                  2   10[COMMON] int 
  2286 ;; Registers used:
  2287 ;;		wreg, fsr0l, fsr0h, fsr1l, fsr1h, status,2, status,0, pclath, cstack
  2288 ;; Tracked objects:
  2289 ;;		On entry : 0/0
  2290 ;;		On exit  : 0/0
  2291 ;;		Unchanged: 0/0
  2292 ;; Data sizes:     COMMON   BANK0   BANK1   BANK2   BANK3   BANK4   BANK5   BANK6   BANK7   BANK8   BANK9  BANK10  BANK1
      +1  BANK12
  2293 ;;      Params:         2       0       0       0       0       0       0       0       0       0       0       0       
      +0       0
  2294 ;;      Locals:         1       0       0       0       0       0       0       0       0       0       0       0       
      +0       0
  2295 ;;      Temps:          0       5       0       0       0       0       0       0       0       0       0       0       
      +0       0
  2296 ;;      Totals:         3       5       0       0       0       0       0       0       0       0       0       0       
      +0       0
  2297 ;;Total ram usage:        8 bytes
  2298 ;; Hardware stack levels used:    1
  2299 ;; Hardware stack levels required when called:    3
  2300 ;; This function calls:
  2301 ;;		_fputc
  2302 ;; This function is called by:
  2303 ;;		_vfprintf
  2304 ;; This function uses a non-reentrant model
  2305 ;;
  2306                           
  2307                           
  2308                           ;psect for function _vfpfcnvrt
  2309  077B                     _vfpfcnvrt:
  2310                           
  2311                           ;incstack = 0
  2312                           ; Regs used in _vfpfcnvrt: [wreg-fsr1h+status,2+status,0+pclath+cstack]
  2313                           ;vfpfcnvrt@fp stored from wreg
  2314  077B  00FC               	movwf	vfpfcnvrt@fp
  2315  077C                     l1137:
  2316                           
  2317                           ;C:\Program Files\Microchip\xc8\v2.31\pic\sources\c99\common\doprnt.c: 692: static int v
      +                          fpfcnvrt(FILE *fp, char *fmt[], va_list ap);C:\Program Files\Microchip\xc8\v2.31\pic\sou
      +                          rces\c99\common\doprnt.c: 693: {;C:\Program Files\Microchip\xc8\v2.31\pic\sources\c99\co
      +                          mmon\doprnt.c: 694:     char c, *cp, ct[3];;C:\Program Files\Microchip\xc8\v2.31\pic\sou
      +                          rces\c99\common\doprnt.c: 695:     int done, i;;C:\Program Files\Microchip\xc8\v2.31\pic
      +                          \sources\c99\common\doprnt.c: 696:     long long ll;;C:\Program Files\Microchip\xc8\v2.3
      +                          1\pic\sources\c99\common\doprnt.c: 697:     unsigned long long llu;
  2318  077C  087A               	movf	vfpfcnvrt@fmt,w
  2319  077D  0086               	movwf	6
  2320  077E  0187               	clrf	7
  2321  077F  3F40               	moviw [0]fsr1
  2322  0780  0020               	movlb	0	; select bank0
  2323  0781  00CB               	movwf	??_vfpfcnvrt
  2324  0782  3F41               	moviw [1]fsr1
  2325  0783  00CC               	movwf	??_vfpfcnvrt+1
  2326  0784  084B               	movf	??_vfpfcnvrt,w
  2327  0785  0084               	movwf	4
  2328  0786  084C               	movf	??_vfpfcnvrt+1,w
  2329  0787  0085               	movwf	5
  2330  0788  0012               	moviw fsr0++
  2331  0789  3A25               	xorlw	37
  2332  078A  1D03               	btfss	3,2
  2333  078B  2F8D               	goto	u211
  2334  078C  2F8E               	goto	u210
  2335  078D                     u211:
  2336  078D  2FD2               	goto	l1161
  2337  078E                     u210:
  2338  078E                     l1139:
  2339                           
  2340                           ;C:\Program Files\Microchip\xc8\v2.31\pic\sources\c99\common\doprnt.c: 703:         ++*f
      +                          mt;
  2341  078E  087A               	movf	vfpfcnvrt@fmt,w
  2342  078F  0086               	movwf	6
  2343  0790  0187               	clrf	7
  2344  0791  3001               	movlw	1
  2345  0792  0781               	addwf	1,f
  2346  0793  3141               	addfsr 1,1
  2347  0794  1803               	skipnc
  2348  0795  0A81               	incf	1,f
  2349  0796                     l1141:
  2350                           
  2351                           ;C:\Program Files\Microchip\xc8\v2.31\pic\sources\c99\common\doprnt.c: 705:         flag
      +                          s = width = 0;
  2352  0796  01C2               	clrf	_width
  2353  0797  01C3               	clrf	_width+1
  2354  0798  01C6               	clrf	_flags
  2355  0799  01C7               	clrf	_flags+1
  2356  079A                     l1143:
  2357                           
  2358                           ;C:\Program Files\Microchip\xc8\v2.31\pic\sources\c99\common\doprnt.c: 706:         prec
      +                           = -1;
  2359  079A  30FF               	movlw	255
  2360  079B  00C4               	movwf	_prec
  2361  079C  30FF               	movlw	255
  2362  079D  00C5               	movwf	_prec+1
  2363  079E                     l1145:
  2364                           
  2365                           ;C:\Program Files\Microchip\xc8\v2.31\pic\sources\c99\common\doprnt.c: 1372:         if 
      +                          ((*fmt)[0] == '%') {
  2366  079E  087A               	movf	vfpfcnvrt@fmt,w
  2367  079F  0086               	movwf	6
  2368  07A0  0187               	clrf	7
  2369  07A1  3F40               	moviw [0]fsr1
  2370  07A2  00CB               	movwf	??_vfpfcnvrt
  2371  07A3  3F41               	moviw [1]fsr1
  2372  07A4  00CC               	movwf	??_vfpfcnvrt+1
  2373  07A5  084B               	movf	??_vfpfcnvrt,w
  2374  07A6  0084               	movwf	4
  2375  07A7  084C               	movf	??_vfpfcnvrt+1,w
  2376  07A8  0085               	movwf	5
  2377  07A9  0012               	moviw fsr0++
  2378  07AA  3A25               	xorlw	37
  2379  07AB  1D03               	btfss	3,2
  2380  07AC  2FAE               	goto	u221
  2381  07AD  2FAF               	goto	u220
  2382  07AE                     u221:
  2383  07AE  2FC7               	goto	l1155
  2384  07AF                     u220:
  2385  07AF                     l1147:
  2386                           
  2387                           ;C:\Program Files\Microchip\xc8\v2.31\pic\sources\c99\common\doprnt.c: 1373:            
      +                           ++*fmt;
  2388  07AF  087A               	movf	vfpfcnvrt@fmt,w
  2389  07B0  0086               	movwf	6
  2390  07B1  0187               	clrf	7
  2391  07B2  3001               	movlw	1
  2392  07B3  0781               	addwf	1,f
  2393  07B4  3141               	addfsr 1,1
  2394  07B5  1803               	skipnc
  2395  07B6  0A81               	incf	1,f
  2396  07B7                     l1149:
  2397                           
  2398                           ;C:\Program Files\Microchip\xc8\v2.31\pic\sources\c99\common\doprnt.c: 1374:            
      +                           fputc((int)'%', fp);
  2399  07B7  3025               	movlw	37
  2400  07B8  00F2               	movwf	fputc@c
  2401  07B9  3000               	movlw	0
  2402  07BA  00F3               	movwf	fputc@c+1
  2403  07BB  087C               	movf	vfpfcnvrt@fp,w
  2404  07BC  00CB               	movwf	??_vfpfcnvrt
  2405  07BD  084B               	movf	??_vfpfcnvrt,w
  2406  07BE  00F4               	movwf	fputc@fp
  2407  07BF  3187  273C  3187   	fcall	_fputc
  2408  07C2                     l1151:
  2409                           
  2410                           ;C:\Program Files\Microchip\xc8\v2.31\pic\sources\c99\common\doprnt.c: 1375:            
      +                           return 1;
  2411  07C2  3001               	movlw	1
  2412  07C3  00FA               	movwf	?_vfpfcnvrt
  2413  07C4  3000               	movlw	0
  2414  07C5  00FB               	movwf	?_vfpfcnvrt+1
  2415  07C6  2FF4               	goto	l833
  2416  07C7                     l1155:
  2417                           
  2418                           ;C:\Program Files\Microchip\xc8\v2.31\pic\sources\c99\common\doprnt.c: 1379:         ++*
      +                          fmt;
  2419  07C7  087A               	movf	vfpfcnvrt@fmt,w
  2420  07C8  0086               	movwf	6
  2421  07C9  0187               	clrf	7
  2422  07CA  3001               	movlw	1
  2423  07CB  0781               	addwf	1,f
  2424  07CC  3141               	addfsr 1,1
  2425  07CD  1803               	skipnc
  2426  07CE  0A81               	incf	1,f
  2427  07CF                     l1157:
  2428                           
  2429                           ;C:\Program Files\Microchip\xc8\v2.31\pic\sources\c99\common\doprnt.c: 1380:         ret
      +                          urn 0;
  2430  07CF  01FA               	clrf	?_vfpfcnvrt
  2431  07D0  01FB               	clrf	?_vfpfcnvrt+1
  2432  07D1  2FF4               	goto	l833
  2433  07D2                     l1161:
  2434                           
  2435                           ;C:\Program Files\Microchip\xc8\v2.31\pic\sources\c99\common\doprnt.c: 1384:     fputc((
      +                          int)(*fmt)[0], fp);
  2436  07D2  087A               	movf	vfpfcnvrt@fmt,w
  2437  07D3  0086               	movwf	6
  2438  07D4  0187               	clrf	7
  2439  07D5  3F40               	moviw [0]fsr1
  2440  07D6  00CB               	movwf	??_vfpfcnvrt
  2441  07D7  3F41               	moviw [1]fsr1
  2442  07D8  00CC               	movwf	??_vfpfcnvrt+1
  2443  07D9  084B               	movf	??_vfpfcnvrt,w
  2444  07DA  0084               	movwf	4
  2445  07DB  084C               	movf	??_vfpfcnvrt+1,w
  2446  07DC  0085               	movwf	5
  2447  07DD  0800               	movf	0,w	;code access
  2448  07DE  00CD               	movwf	??_vfpfcnvrt+2
  2449  07DF  01CE               	clrf	??_vfpfcnvrt+3
  2450  07E0  084D               	movf	??_vfpfcnvrt+2,w
  2451  07E1  00F2               	movwf	fputc@c
  2452  07E2  084E               	movf	??_vfpfcnvrt+3,w
  2453  07E3  00F3               	movwf	fputc@c+1
  2454  07E4  087C               	movf	vfpfcnvrt@fp,w
  2455  07E5  00CF               	movwf	??_vfpfcnvrt+4
  2456  07E6  084F               	movf	??_vfpfcnvrt+4,w
  2457  07E7  00F4               	movwf	fputc@fp
  2458  07E8  3187  273C  3187   	fcall	_fputc
  2459  07EB                     l1163:
  2460                           
  2461                           ;C:\Program Files\Microchip\xc8\v2.31\pic\sources\c99\common\doprnt.c: 1385:     ++*fmt;
  2462  07EB  087A               	movf	vfpfcnvrt@fmt,w
  2463  07EC  0086               	movwf	6
  2464  07ED  0187               	clrf	7
  2465  07EE  3001               	movlw	1
  2466  07EF  0781               	addwf	1,f
  2467  07F0  3141               	addfsr 1,1
  2468  07F1  1803               	skipnc
  2469  07F2  0A81               	incf	1,f
  2470  07F3  2FC2               	goto	l1151
  2471  07F4                     l833:
  2472  07F4  0008               	return
  2473  07F5                     __end_of_vfpfcnvrt:
  2474                           
  2475                           	psect	text4
  2476  073C                     __ptext4:	
  2477 ;; *************** function _fputc *****************
  2478 ;; Defined at:
  2479 ;;		line 8 in file "C:\Program Files\Microchip\xc8\v2.31\pic\sources\c99\common\nf_fputc.c"
  2480 ;; Parameters:    Size  Location     Type
  2481 ;;  c               2    2[COMMON] int 
  2482 ;;  fp              1    4[COMMON] PTR struct _IO_FILE
  2483 ;;		 -> NULL(0), 
  2484 ;; Auto vars:     Size  Location     Type
  2485 ;;		None
  2486 ;; Return value:  Size  Location     Type
  2487 ;;                  2    2[COMMON] int 
  2488 ;; Registers used:
  2489 ;;		wreg, fsr1l, fsr1h, status,2, status,0, pclath, cstack
  2490 ;; Tracked objects:
  2491 ;;		On entry : 0/0
  2492 ;;		On exit  : 0/0
  2493 ;;		Unchanged: 0/0
  2494 ;; Data sizes:     COMMON   BANK0   BANK1   BANK2   BANK3   BANK4   BANK5   BANK6   BANK7   BANK8   BANK9  BANK10  BANK1
      +1  BANK12
  2495 ;;      Params:         3       0       0       0       0       0       0       0       0       0       0       0       
      +0       0
  2496 ;;      Locals:         0       0       0       0       0       0       0       0       0       0       0       0       
      +0       0
  2497 ;;      Temps:          5       0       0       0       0       0       0       0       0       0       0       0       
      +0       0
  2498 ;;      Totals:         8       0       0       0       0       0       0       0       0       0       0       0       
      +0       0
  2499 ;;Total ram usage:        8 bytes
  2500 ;; Hardware stack levels used:    1
  2501 ;; Hardware stack levels required when called:    2
  2502 ;; This function calls:
  2503 ;;		_putch
  2504 ;; This function is called by:
  2505 ;;		_vfpfcnvrt
  2506 ;; This function uses a non-reentrant model
  2507 ;;
  2508                           
  2509                           
  2510                           ;psect for function _fputc
  2511  073C                     _fputc:
  2512  073C                     l1117:	
  2513                           ;incstack = 0
  2514                           ; Regs used in _fputc: [wreg+fsr1l+fsr1h+status,2+status,0+pclath+cstack]
  2515                           
  2516  073C  0874               	movf	fputc@fp,w
  2517  073D  1903               	btfsc	3,2
  2518  073E  2F40               	goto	u171
  2519  073F  2F41               	goto	u170
  2520  0740                     u171:
  2521  0740  2F46               	goto	l1121
  2522  0741                     u170:
  2523  0741                     l1119:
  2524  0741  0874               	movf	fputc@fp,w
  2525  0742  1D03               	btfss	3,2
  2526  0743  2F45               	goto	u181
  2527  0744  2F46               	goto	u180
  2528  0745                     u181:
  2529  0745  2F4B               	goto	l1123
  2530  0746                     u180:
  2531  0746                     l1121:
  2532  0746  0872               	movf	fputc@c,w
  2533  0747  3186  265C  3187   	fcall	_putch
  2534  074A  2F7A               	goto	l851
  2535  074B                     l1123:
  2536  074B  0874               	movf	fputc@fp,w
  2537  074C  3E03               	addlw	3
  2538  074D  0086               	movwf	6
  2539  074E  0187               	clrf	7
  2540  074F  0016               	moviw fsr1++
  2541  0750  0401               	iorwf	1,w
  2542  0751  1903               	btfsc	3,2
  2543  0752  2F54               	goto	u191
  2544  0753  2F55               	goto	u190
  2545  0754                     u191:
  2546  0754  2F72               	goto	l1127
  2547  0755                     u190:
  2548  0755                     l1125:
  2549  0755  0874               	movf	fputc@fp,w
  2550  0756  3E03               	addlw	3
  2551  0757  0086               	movwf	6
  2552  0758  0187               	clrf	7
  2553  0759  3F40               	moviw [0]fsr1
  2554  075A  00F5               	movwf	??_fputc
  2555  075B  3F41               	moviw [1]fsr1
  2556  075C  00F6               	movwf	??_fputc+1
  2557  075D  0A74               	incf	fputc@fp,w
  2558  075E  0086               	movwf	6
  2559  075F  0187               	clrf	7
  2560  0760  3F40               	moviw [0]fsr1
  2561  0761  00F7               	movwf	??_fputc+2
  2562  0762  3F41               	moviw [1]fsr1
  2563  0763  00F8               	movwf	??_fputc+3
  2564  0764  0878               	movf	??_fputc+3,w
  2565  0765  3A80               	xorlw	128
  2566  0766  00F9               	movwf	??_fputc+4
  2567  0767  0876               	movf	??_fputc+1,w
  2568  0768  3A80               	xorlw	128
  2569  0769  0279               	subwf	??_fputc+4,w
  2570  076A  1D03               	skipz
  2571  076B  2F6E               	goto	u205
  2572  076C  0875               	movf	??_fputc,w
  2573  076D  0277               	subwf	??_fputc+2,w
  2574  076E                     u205:
  2575  076E  1803               	skipnc
  2576  076F  2F71               	goto	u201
  2577  0770  2F72               	goto	u200
  2578  0771                     u201:
  2579  0771  2F7A               	goto	l851
  2580  0772                     u200:
  2581  0772                     l1127:
  2582  0772  0A74               	incf	fputc@fp,w
  2583  0773  0086               	movwf	6
  2584  0774  0187               	clrf	7
  2585  0775  3001               	movlw	1
  2586  0776  0781               	addwf	1,f
  2587  0777  3141               	addfsr 1,1
  2588  0778  1803               	skipnc
  2589  0779  0A81               	incf	1,f
  2590  077A                     l851:
  2591  077A  0008               	return
  2592  077B                     __end_of_fputc:
  2593                           
  2594                           	psect	text5
  2595  065C                     __ptext5:	
  2596 ;; *************** function _putch *****************
  2597 ;; Defined at:
  2598 ;;		line 146 in file "mcc_generated_files/eusart.c"
  2599 ;; Parameters:    Size  Location     Type
  2600 ;;  txData          1    wreg     unsigned char 
  2601 ;; Auto vars:     Size  Location     Type
  2602 ;;  txData          1    1[COMMON] unsigned char 
  2603 ;; Return value:  Size  Location     Type
  2604 ;;                  1    wreg      void 
  2605 ;; Registers used:
  2606 ;;		wreg, status,2, status,0, pclath, cstack
  2607 ;; Tracked objects:
  2608 ;;		On entry : 0/0
  2609 ;;		On exit  : 0/0
  2610 ;;		Unchanged: 0/0
  2611 ;; Data sizes:     COMMON   BANK0   BANK1   BANK2   BANK3   BANK4   BANK5   BANK6   BANK7   BANK8   BANK9  BANK10  BANK1
      +1  BANK12
  2612 ;;      Params:         0       0       0       0       0       0       0       0       0       0       0       0       
      +0       0
  2613 ;;      Locals:         1       0       0       0       0       0       0       0       0       0       0       0       
      +0       0
  2614 ;;      Temps:          0       0       0       0       0       0       0       0       0       0       0       0       
      +0       0
  2615 ;;      Totals:         1       0       0       0       0       0       0       0       0       0       0       0       
      +0       0
  2616 ;;Total ram usage:        1 bytes
  2617 ;; Hardware stack levels used:    1
  2618 ;; Hardware stack levels required when called:    1
  2619 ;; This function calls:
  2620 ;;		_EUSART_Write
  2621 ;; This function is called by:
  2622 ;;		_fputc
  2623 ;; This function uses a non-reentrant model
  2624 ;;
  2625                           
  2626                           
  2627                           ;psect for function _putch
  2628  065C                     _putch:
  2629                           
  2630                           ;incstack = 0
  2631                           ; Regs used in _putch: [wreg+status,2+status,0+pclath+cstack]
  2632                           ;putch@txData stored from wreg
  2633  065C  00F1               	movwf	putch@txData
  2634  065D                     l1115:
  2635                           
  2636                           ;mcc_generated_files/eusart.c: 146: void putch(char txData);mcc_generated_files/eusart.c
      +                          : 147: {;mcc_generated_files/eusart.c: 148:     EUSART_Write(txData);
  2637  065D  0871               	movf	putch@txData,w
  2638  065E  3186  268A  3186   	fcall	_EUSART_Write
  2639  0661                     l251:
  2640  0661  0008               	return
  2641  0662                     __end_of_putch:
  2642                           
  2643                           	psect	text6
  2644  068A                     __ptext6:	
  2645 ;; *************** function _EUSART_Write *****************
  2646 ;; Defined at:
  2647 ;;		line 132 in file "mcc_generated_files/eusart.c"
  2648 ;; Parameters:    Size  Location     Type
  2649 ;;  txData          1    wreg     unsigned char 
  2650 ;; Auto vars:     Size  Location     Type
  2651 ;;  txData          1    0[COMMON] unsigned char 
  2652 ;; Return value:  Size  Location     Type
  2653 ;;                  1    wreg      void 
  2654 ;; Registers used:
  2655 ;;		wreg
  2656 ;; Tracked objects:
  2657 ;;		On entry : 0/0
  2658 ;;		On exit  : 0/0
  2659 ;;		Unchanged: 0/0
  2660 ;; Data sizes:     COMMON   BANK0   BANK1   BANK2   BANK3   BANK4   BANK5   BANK6   BANK7   BANK8   BANK9  BANK10  BANK1
      +1  BANK12
  2661 ;;      Params:         0       0       0       0       0       0       0       0       0       0       0       0       
      +0       0
  2662 ;;      Locals:         1       0       0       0       0       0       0       0       0       0       0       0       
      +0       0
  2663 ;;      Temps:          0       0       0       0       0       0       0       0       0       0       0       0       
      +0       0
  2664 ;;      Totals:         1       0       0       0       0       0       0       0       0       0       0       0       
      +0       0
  2665 ;;Total ram usage:        1 bytes
  2666 ;; Hardware stack levels used:    1
  2667 ;; This function calls:
  2668 ;;		Nothing
  2669 ;; This function is called by:
  2670 ;;		_putch
  2671 ;; This function uses a non-reentrant model
  2672 ;;
  2673                           
  2674                           
  2675                           ;psect for function _EUSART_Write
  2676  068A                     _EUSART_Write:
  2677                           
  2678                           ;incstack = 0
  2679                           ; Regs used in _EUSART_Write: [wreg]
  2680                           ;EUSART_Write@txData stored from wreg
  2681  068A  00F0               	movwf	EUSART_Write@txData
  2682  068B                     l1111:
  2683  068B                     l242:	
  2684                           ;mcc_generated_files/eusart.c: 135:     {;mcc_generated_files/eusart.c: 136:     }
  2685                           
  2686                           
  2687                           ;mcc_generated_files/eusart.c: 134:     while(0 == PIR1bits.TXIF)
  2688  068B  0020               	movlb	0	; select bank0
  2689  068C  1E11               	btfss	17,4	;volatile
  2690  068D  2E8F               	goto	u161
  2691  068E  2E90               	goto	u160
  2692  068F                     u161:
  2693  068F  2E8B               	goto	l242
  2694  0690                     u160:
  2695  0690                     l1113:
  2696                           
  2697                           ;mcc_generated_files/eusart.c: 138:     TX1REG = txData;
  2698  0690  0870               	movf	EUSART_Write@txData,w
  2699  0691  0023               	movlb	3	; select bank3
  2700  0692  009A               	movwf	26	;volatile
  2701  0693                     l245:
  2702  0693  0008               	return
  2703  0694                     __end_of_EUSART_Write:
  2704                           
  2705                           	psect	text7
  2706  06B7                     __ptext7:	
  2707 ;; *************** function _SYSTEM_Initialize *****************
  2708 ;; Defined at:
  2709 ;;		line 50 in file "mcc_generated_files/mcc.c"
  2710 ;; Parameters:    Size  Location     Type
  2711 ;;		None
  2712 ;; Auto vars:     Size  Location     Type
  2713 ;;		None
  2714 ;; Return value:  Size  Location     Type
  2715 ;;                  1    wreg      void 
  2716 ;; Registers used:
  2717 ;;		wreg, status,2, status,0, pclath, cstack
  2718 ;; Tracked objects:
  2719 ;;		On entry : 0/0
  2720 ;;		On exit  : 0/0
  2721 ;;		Unchanged: 0/0
  2722 ;; Data sizes:     COMMON   BANK0   BANK1   BANK2   BANK3   BANK4   BANK5   BANK6   BANK7   BANK8   BANK9  BANK10  BANK1
      +1  BANK12
  2723 ;;      Params:         0       0       0       0       0       0       0       0       0       0       0       0       
      +0       0
  2724 ;;      Locals:         0       0       0       0       0       0       0       0       0       0       0       0       
      +0       0
  2725 ;;      Temps:          0       0       0       0       0       0       0       0       0       0       0       0       
      +0       0
  2726 ;;      Totals:         0       0       0       0       0       0       0       0       0       0       0       0       
      +0       0
  2727 ;;Total ram usage:        0 bytes
  2728 ;; Hardware stack levels used:    1
  2729 ;; Hardware stack levels required when called:    2
  2730 ;; This function calls:
  2731 ;;		_ADC_Initialize
  2732 ;;		_EUSART_Initialize
  2733 ;;		_OSCILLATOR_Initialize
  2734 ;;		_PIN_MANAGER_Initialize
  2735 ;;		_PWM1_Initialize
  2736 ;;		_TMR2_Initialize
  2737 ;;		_WDT_Initialize
  2738 ;; This function is called by:
  2739 ;;		_main
  2740 ;; This function uses a non-reentrant model
  2741 ;;
  2742                           
  2743                           
  2744                           ;psect for function _SYSTEM_Initialize
  2745  06B7                     _SYSTEM_Initialize:
  2746  06B7                     l1193:	
  2747                           ;incstack = 0
  2748                           ; Regs used in _SYSTEM_Initialize: [wreg+status,2+status,0+pclath+cstack]
  2749                           
  2750                           
  2751                           ;mcc_generated_files/mcc.c: 53:     PIN_MANAGER_Initialize();
  2752  06B7  3186  26EF  3186   	fcall	_PIN_MANAGER_Initialize
  2753                           
  2754                           ;mcc_generated_files/mcc.c: 54:     OSCILLATOR_Initialize();
  2755  06BA  3186  2668  3186   	fcall	_OSCILLATOR_Initialize
  2756                           
  2757                           ;mcc_generated_files/mcc.c: 55:     WDT_Initialize();
  2758  06BD  3186  2646  3186   	fcall	_WDT_Initialize
  2759                           
  2760                           ;mcc_generated_files/mcc.c: 56:     PWM1_Initialize();
  2761  06C0  3186  2681  3186   	fcall	_PWM1_Initialize
  2762                           
  2763                           ;mcc_generated_files/mcc.c: 57:     ADC_Initialize();
  2764  06C3  3186  2678  3186   	fcall	_ADC_Initialize
  2765                           
  2766                           ;mcc_generated_files/mcc.c: 58:     TMR2_Initialize();
  2767  06C6  3186  2670  3186   	fcall	_TMR2_Initialize
  2768                           
  2769                           ;mcc_generated_files/mcc.c: 59:     EUSART_Initialize();
  2770  06C9  3186  26CD  3186   	fcall	_EUSART_Initialize
  2771  06CC                     l113:
  2772  06CC  0008               	return
  2773  06CD                     __end_of_SYSTEM_Initialize:
  2774                           
  2775                           	psect	text8
  2776  0646                     __ptext8:	
  2777 ;; *************** function _WDT_Initialize *****************
  2778 ;; Defined at:
  2779 ;;		line 74 in file "mcc_generated_files/mcc.c"
  2780 ;; Parameters:    Size  Location     Type
  2781 ;;		None
  2782 ;; Auto vars:     Size  Location     Type
  2783 ;;		None
  2784 ;; Return value:  Size  Location     Type
  2785 ;;                  1    wreg      void 
  2786 ;; Registers used:
  2787 ;;		wreg
  2788 ;; Tracked objects:
  2789 ;;		On entry : 0/0
  2790 ;;		On exit  : 0/0
  2791 ;;		Unchanged: 0/0
  2792 ;; Data sizes:     COMMON   BANK0   BANK1   BANK2   BANK3   BANK4   BANK5   BANK6   BANK7   BANK8   BANK9  BANK10  BANK1
      +1  BANK12
  2793 ;;      Params:         0       0       0       0       0       0       0       0       0       0       0       0       
      +0       0
  2794 ;;      Locals:         0       0       0       0       0       0       0       0       0       0       0       0       
      +0       0
  2795 ;;      Temps:          0       0       0       0       0       0       0       0       0       0       0       0       
      +0       0
  2796 ;;      Totals:         0       0       0       0       0       0       0       0       0       0       0       0       
      +0       0
  2797 ;;Total ram usage:        0 bytes
  2798 ;; Hardware stack levels used:    1
  2799 ;; This function calls:
  2800 ;;		Nothing
  2801 ;; This function is called by:
  2802 ;;		_SYSTEM_Initialize
  2803 ;; This function uses a non-reentrant model
  2804 ;;
  2805                           
  2806                           
  2807                           ;psect for function _WDT_Initialize
  2808  0646                     _WDT_Initialize:
  2809  0646                     l977:	
  2810                           ;incstack = 0
  2811                           ; Regs used in _WDT_Initialize: [wreg]
  2812                           
  2813                           
  2814                           ;mcc_generated_files/mcc.c: 77:     WDTCON = 0x16;
  2815  0646  3016               	movlw	22
  2816  0647  0021               	movlb	1	; select bank1
  2817  0648  0097               	movwf	23	;volatile
  2818  0649                     l119:
  2819  0649  0008               	return
  2820  064A                     __end_of_WDT_Initialize:
  2821                           
  2822                           	psect	text9
  2823  0670                     __ptext9:	
  2824 ;; *************** function _TMR2_Initialize *****************
  2825 ;; Defined at:
  2826 ;;		line 62 in file "mcc_generated_files/tmr2.c"
  2827 ;; Parameters:    Size  Location     Type
  2828 ;;		None
  2829 ;; Auto vars:     Size  Location     Type
  2830 ;;		None
  2831 ;; Return value:  Size  Location     Type
  2832 ;;                  1    wreg      void 
  2833 ;; Registers used:
  2834 ;;		wreg, status,2
  2835 ;; Tracked objects:
  2836 ;;		On entry : 0/0
  2837 ;;		On exit  : 0/0
  2838 ;;		Unchanged: 0/0
  2839 ;; Data sizes:     COMMON   BANK0   BANK1   BANK2   BANK3   BANK4   BANK5   BANK6   BANK7   BANK8   BANK9  BANK10  BANK1
      +1  BANK12
  2840 ;;      Params:         0       0       0       0       0       0       0       0       0       0       0       0       
      +0       0
  2841 ;;      Locals:         0       0       0       0       0       0       0       0       0       0       0       0       
      +0       0
  2842 ;;      Temps:          0       0       0       0       0       0       0       0       0       0       0       0       
      +0       0
  2843 ;;      Totals:         0       0       0       0       0       0       0       0       0       0       0       0       
      +0       0
  2844 ;;Total ram usage:        0 bytes
  2845 ;; Hardware stack levels used:    1
  2846 ;; This function calls:
  2847 ;;		Nothing
  2848 ;; This function is called by:
  2849 ;;		_SYSTEM_Initialize
  2850 ;; This function uses a non-reentrant model
  2851 ;;
  2852                           
  2853                           
  2854                           ;psect for function _TMR2_Initialize
  2855  0670                     _TMR2_Initialize:
  2856  0670                     l961:	
  2857                           ;incstack = 0
  2858                           ; Regs used in _TMR2_Initialize: [wreg+status,2]
  2859                           
  2860                           
  2861                           ;mcc_generated_files/tmr2.c: 67:     PR2 = 0x7C;
  2862  0670  307C               	movlw	124
  2863  0671  0020               	movlb	0	; select bank0
  2864  0672  009B               	movwf	27	;volatile
  2865  0673                     l963:
  2866                           
  2867                           ;mcc_generated_files/tmr2.c: 70:     TMR2 = 0x00;
  2868  0673  019A               	clrf	26	;volatile
  2869  0674                     l965:
  2870                           
  2871                           ;mcc_generated_files/tmr2.c: 73:     PIR1bits.TMR2IF = 0;
  2872  0674  1091               	bcf	17,1	;volatile
  2873  0675                     l967:
  2874                           
  2875                           ;mcc_generated_files/tmr2.c: 76:     T2CON = 0x7C;
  2876  0675  307C               	movlw	124
  2877  0676  009C               	movwf	28	;volatile
  2878  0677                     l67:
  2879  0677  0008               	return
  2880  0678                     __end_of_TMR2_Initialize:
  2881                           
  2882                           	psect	text10
  2883  0681                     __ptext10:	
  2884 ;; *************** function _PWM1_Initialize *****************
  2885 ;; Defined at:
  2886 ;;		line 64 in file "mcc_generated_files/pwm1.c"
  2887 ;; Parameters:    Size  Location     Type
  2888 ;;		None
  2889 ;; Auto vars:     Size  Location     Type
  2890 ;;		None
  2891 ;; Return value:  Size  Location     Type
  2892 ;;                  1    wreg      void 
  2893 ;; Registers used:
  2894 ;;		wreg, status,2, status,0
  2895 ;; Tracked objects:
  2896 ;;		On entry : 0/0
  2897 ;;		On exit  : 0/0
  2898 ;;		Unchanged: 0/0
  2899 ;; Data sizes:     COMMON   BANK0   BANK1   BANK2   BANK3   BANK4   BANK5   BANK6   BANK7   BANK8   BANK9  BANK10  BANK1
      +1  BANK12
  2900 ;;      Params:         0       0       0       0       0       0       0       0       0       0       0       0       
      +0       0
  2901 ;;      Locals:         0       0       0       0       0       0       0       0       0       0       0       0       
      +0       0
  2902 ;;      Temps:          0       0       0       0       0       0       0       0       0       0       0       0       
      +0       0
  2903 ;;      Totals:         0       0       0       0       0       0       0       0       0       0       0       0       
      +0       0
  2904 ;;Total ram usage:        0 bytes
  2905 ;; Hardware stack levels used:    1
  2906 ;; This function calls:
  2907 ;;		Nothing
  2908 ;; This function is called by:
  2909 ;;		_SYSTEM_Initialize
  2910 ;; This function uses a non-reentrant model
  2911 ;;
  2912                           
  2913                           
  2914                           ;psect for function _PWM1_Initialize
  2915  0681                     _PWM1_Initialize:
  2916  0681                     l955:	
  2917                           ;incstack = 0
  2918                           ; Regs used in _PWM1_Initialize: [wreg+status,2+status,0]
  2919                           
  2920                           
  2921                           ;mcc_generated_files/pwm1.c: 69:  CCP1CON = 0x1C;
  2922  0681  301C               	movlw	28
  2923  0682  0025               	movlb	5	; select bank5
  2924  0683  0093               	movwf	19	;volatile
  2925                           
  2926                           ;mcc_generated_files/pwm1.c: 72:  CCPR1L = 0x3E;
  2927  0684  303E               	movlw	62
  2928  0685  0091               	movwf	17	;volatile
  2929  0686                     l957:
  2930                           
  2931                           ;mcc_generated_files/pwm1.c: 75:  CCPR1H = 0x00;
  2932  0686  0192               	clrf	18	;volatile
  2933  0687                     l959:
  2934                           
  2935                           ;mcc_generated_files/pwm1.c: 78:  CCPTMRSbits.C1TSEL = 0x0;
  2936  0687  30FC               	movlw	-4
  2937  0688  059E               	andwf	30,f	;volatile
  2938  0689                     l51:
  2939  0689  0008               	return
  2940  068A                     __end_of_PWM1_Initialize:
  2941                           
  2942                           	psect	text11
  2943  06EF                     __ptext11:	
  2944 ;; *************** function _PIN_MANAGER_Initialize *****************
  2945 ;; Defined at:
  2946 ;;		line 55 in file "mcc_generated_files/pin_manager.c"
  2947 ;; Parameters:    Size  Location     Type
  2948 ;;		None
  2949 ;; Auto vars:     Size  Location     Type
  2950 ;;		None
  2951 ;; Return value:  Size  Location     Type
  2952 ;;                  1    wreg      void 
  2953 ;; Registers used:
  2954 ;;		wreg, status,2
  2955 ;; Tracked objects:
  2956 ;;		On entry : 0/0
  2957 ;;		On exit  : 0/0
  2958 ;;		Unchanged: 0/0
  2959 ;; Data sizes:     COMMON   BANK0   BANK1   BANK2   BANK3   BANK4   BANK5   BANK6   BANK7   BANK8   BANK9  BANK10  BANK1
      +1  BANK12
  2960 ;;      Params:         0       0       0       0       0       0       0       0       0       0       0       0       
      +0       0
  2961 ;;      Locals:         0       0       0       0       0       0       0       0       0       0       0       0       
      +0       0
  2962 ;;      Temps:          0       0       0       0       0       0       0       0       0       0       0       0       
      +0       0
  2963 ;;      Totals:         0       0       0       0       0       0       0       0       0       0       0       0       
      +0       0
  2964 ;;Total ram usage:        0 bytes
  2965 ;; Hardware stack levels used:    1
  2966 ;; This function calls:
  2967 ;;		Nothing
  2968 ;; This function is called by:
  2969 ;;		_SYSTEM_Initialize
  2970 ;; This function uses a non-reentrant model
  2971 ;;
  2972                           
  2973                           
  2974                           ;psect for function _PIN_MANAGER_Initialize
  2975  06EF                     _PIN_MANAGER_Initialize:
  2976  06EF                     l925:	
  2977                           ;incstack = 0
  2978                           ; Regs used in _PIN_MANAGER_Initialize: [wreg+status,2]
  2979                           
  2980                           
  2981                           ;mcc_generated_files/pin_manager.c: 60:     LATA = 0x00;
  2982  06EF  0022               	movlb	2	; select bank2
  2983  06F0  018C               	clrf	12	;volatile
  2984                           
  2985                           ;mcc_generated_files/pin_manager.c: 61:     LATC = 0x00;
  2986  06F1  018E               	clrf	14	;volatile
  2987  06F2                     l927:
  2988                           
  2989                           ;mcc_generated_files/pin_manager.c: 66:     TRISA = 0x03;
  2990  06F2  3003               	movlw	3
  2991  06F3  0021               	movlb	1	; select bank1
  2992  06F4  008C               	movwf	12	;volatile
  2993  06F5                     l929:
  2994                           
  2995                           ;mcc_generated_files/pin_manager.c: 67:     TRISC = 0x20;
  2996  06F5  3020               	movlw	32
  2997  06F6  008E               	movwf	14	;volatile
  2998                           
  2999                           ;mcc_generated_files/pin_manager.c: 72:     ANSELC = 0x00;
  3000  06F7  0023               	movlb	3	; select bank3
  3001  06F8  018E               	clrf	14	;volatile
  3002  06F9                     l931:
  3003                           
  3004                           ;mcc_generated_files/pin_manager.c: 73:     ANSELA = 0x03;
  3005  06F9  3003               	movlw	3
  3006  06FA  008C               	movwf	12	;volatile
  3007  06FB                     l933:
  3008                           
  3009                           ;mcc_generated_files/pin_manager.c: 78:     WPUA = 0x00;
  3010  06FB  0024               	movlb	4	; select bank4
  3011  06FC  018C               	clrf	12	;volatile
  3012  06FD                     l935:
  3013                           
  3014                           ;mcc_generated_files/pin_manager.c: 79:     WPUC = 0x00;
  3015  06FD  018E               	clrf	14	;volatile
  3016  06FE                     l937:
  3017                           
  3018                           ;mcc_generated_files/pin_manager.c: 80:     OPTION_REGbits.nWPUEN = 1;
  3019  06FE  0021               	movlb	1	; select bank1
  3020  06FF  1795               	bsf	21,7	;volatile
  3021  0700                     l939:
  3022                           
  3023                           ;mcc_generated_files/pin_manager.c: 85:     ODCONA = 0x00;
  3024  0700  0025               	movlb	5	; select bank5
  3025  0701  018C               	clrf	12	;volatile
  3026  0702                     l941:
  3027                           
  3028                           ;mcc_generated_files/pin_manager.c: 86:     ODCONC = 0x00;
  3029  0702  018E               	clrf	14	;volatile
  3030  0703                     l943:
  3031                           
  3032                           ;mcc_generated_files/pin_manager.c: 91:     SLRCONA = 0x37;
  3033  0703  3037               	movlw	55
  3034  0704  0026               	movlb	6	; select bank6
  3035  0705  008C               	movwf	12	;volatile
  3036  0706                     l945:
  3037                           
  3038                           ;mcc_generated_files/pin_manager.c: 92:     SLRCONC = 0x3F;
  3039  0706  303F               	movlw	63
  3040  0707  008E               	movwf	14	;volatile
  3041  0708                     l947:
  3042                           
  3043                           ;mcc_generated_files/pin_manager.c: 97:     INLVLA = 0x3F;
  3044  0708  303F               	movlw	63
  3045  0709  0027               	movlb	7	; select bank7
  3046  070A  008C               	movwf	12	;volatile
  3047  070B                     l949:
  3048                           
  3049                           ;mcc_generated_files/pin_manager.c: 98:     INLVLC = 0x3F;
  3050  070B  303F               	movlw	63
  3051  070C  008E               	movwf	14	;volatile
  3052  070D                     l951:
  3053                           
  3054                           ;mcc_generated_files/pin_manager.c: 107:     RXPPS = 0x15;
  3055  070D  3015               	movlw	21
  3056  070E  003C               	movlb	28	; select bank28
  3057  070F  00A4               	movwf	36	;volatile
  3058  0710                     l953:
  3059                           
  3060                           ;mcc_generated_files/pin_manager.c: 108:     RC4PPS = 0x14;
  3061  0710  3014               	movlw	20
  3062  0711  003D               	movlb	29	; select bank29
  3063  0712  00A4               	movwf	36	;volatile
  3064  0713                     l37:
  3065  0713  0008               	return
  3066  0714                     __end_of_PIN_MANAGER_Initialize:
  3067                           
  3068                           	psect	text12
  3069  0668                     __ptext12:	
  3070 ;; *************** function _OSCILLATOR_Initialize *****************
  3071 ;; Defined at:
  3072 ;;		line 62 in file "mcc_generated_files/mcc.c"
  3073 ;; Parameters:    Size  Location     Type
  3074 ;;		None
  3075 ;; Auto vars:     Size  Location     Type
  3076 ;;		None
  3077 ;; Return value:  Size  Location     Type
  3078 ;;                  1    wreg      void 
  3079 ;; Registers used:
  3080 ;;		wreg, status,2
  3081 ;; Tracked objects:
  3082 ;;		On entry : 0/0
  3083 ;;		On exit  : 0/0
  3084 ;;		Unchanged: 0/0
  3085 ;; Data sizes:     COMMON   BANK0   BANK1   BANK2   BANK3   BANK4   BANK5   BANK6   BANK7   BANK8   BANK9  BANK10  BANK1
      +1  BANK12
  3086 ;;      Params:         0       0       0       0       0       0       0       0       0       0       0       0       
      +0       0
  3087 ;;      Locals:         0       0       0       0       0       0       0       0       0       0       0       0       
      +0       0
  3088 ;;      Temps:          0       0       0       0       0       0       0       0       0       0       0       0       
      +0       0
  3089 ;;      Totals:         0       0       0       0       0       0       0       0       0       0       0       0       
      +0       0
  3090 ;;Total ram usage:        0 bytes
  3091 ;; Hardware stack levels used:    1
  3092 ;; This function calls:
  3093 ;;		Nothing
  3094 ;; This function is called by:
  3095 ;;		_SYSTEM_Initialize
  3096 ;; This function uses a non-reentrant model
  3097 ;;
  3098                           
  3099                           
  3100                           ;psect for function _OSCILLATOR_Initialize
  3101  0668                     _OSCILLATOR_Initialize:
  3102  0668                     l969:	
  3103                           ;incstack = 0
  3104                           ; Regs used in _OSCILLATOR_Initialize: [wreg+status,2]
  3105                           
  3106                           
  3107                           ;mcc_generated_files/mcc.c: 65:     OSCCON = 0x70;
  3108  0668  3070               	movlw	112
  3109  0669  0021               	movlb	1	; select bank1
  3110  066A  0099               	movwf	25	;volatile
  3111  066B                     l971:
  3112                           
  3113                           ;mcc_generated_files/mcc.c: 67:     OSCSTAT = 0x00;
  3114  066B  019A               	clrf	26	;volatile
  3115  066C                     l973:
  3116                           
  3117                           ;mcc_generated_files/mcc.c: 69:     OSCTUNE = 0x00;
  3118  066C  0198               	clrf	24	;volatile
  3119  066D                     l975:
  3120                           
  3121                           ;mcc_generated_files/mcc.c: 71:     BORCON = 0x00;
  3122  066D  0022               	movlb	2	; select bank2
  3123  066E  0196               	clrf	22	;volatile
  3124  066F                     l116:
  3125  066F  0008               	return
  3126  0670                     __end_of_OSCILLATOR_Initialize:
  3127                           
  3128                           	psect	text13
  3129  06CD                     __ptext13:	
  3130 ;; *************** function _EUSART_Initialize *****************
  3131 ;; Defined at:
  3132 ;;		line 66 in file "mcc_generated_files/eusart.c"
  3133 ;; Parameters:    Size  Location     Type
  3134 ;;		None
  3135 ;; Auto vars:     Size  Location     Type
  3136 ;;		None
  3137 ;; Return value:  Size  Location     Type
  3138 ;;                  1    wreg      void 
  3139 ;; Registers used:
  3140 ;;		wreg, status,2, status,0, pclath, cstack
  3141 ;; Tracked objects:
  3142 ;;		On entry : 0/0
  3143 ;;		On exit  : 0/0
  3144 ;;		Unchanged: 0/0
  3145 ;; Data sizes:     COMMON   BANK0   BANK1   BANK2   BANK3   BANK4   BANK5   BANK6   BANK7   BANK8   BANK9  BANK10  BANK1
      +1  BANK12
  3146 ;;      Params:         0       0       0       0       0       0       0       0       0       0       0       0       
      +0       0
  3147 ;;      Locals:         0       0       0       0       0       0       0       0       0       0       0       0       
      +0       0
  3148 ;;      Temps:          0       0       0       0       0       0       0       0       0       0       0       0       
      +0       0
  3149 ;;      Totals:         0       0       0       0       0       0       0       0       0       0       0       0       
      +0       0
  3150 ;;Total ram usage:        0 bytes
  3151 ;; Hardware stack levels used:    1
  3152 ;; Hardware stack levels required when called:    1
  3153 ;; This function calls:
  3154 ;;		_EUSART_SetErrorHandler
  3155 ;;		_EUSART_SetFramingErrorHandler
  3156 ;;		_EUSART_SetOverrunErrorHandler
  3157 ;; This function is called by:
  3158 ;;		_SYSTEM_Initialize
  3159 ;; This function uses a non-reentrant model
  3160 ;;
  3161                           
  3162                           
  3163                           ;psect for function _EUSART_Initialize
  3164  06CD                     _EUSART_Initialize:
  3165  06CD                     l1169:	
  3166                           ;incstack = 0
  3167                           ; Regs used in _EUSART_Initialize: [wreg+status,2+status,0+pclath+cstack]
  3168                           
  3169                           
  3170                           ;mcc_generated_files/eusart.c: 71:     BAUD1CON = 0x08;
  3171  06CD  3008               	movlw	8
  3172  06CE  0023               	movlb	3	; select bank3
  3173  06CF  009F               	movwf	31	;volatile
  3174                           
  3175                           ;mcc_generated_files/eusart.c: 74:     RC1STA = 0x90;
  3176  06D0  3090               	movlw	144
  3177  06D1  009D               	movwf	29	;volatile
  3178                           
  3179                           ;mcc_generated_files/eusart.c: 77:     TX1STA = 0x24;
  3180  06D2  3024               	movlw	36
  3181  06D3  009E               	movwf	30	;volatile
  3182                           
  3183                           ;mcc_generated_files/eusart.c: 80:     SP1BRGL = 0xCF;
  3184  06D4  30CF               	movlw	207
  3185  06D5  009B               	movwf	27	;volatile
  3186  06D6                     l1171:
  3187                           
  3188                           ;mcc_generated_files/eusart.c: 83:     SP1BRGH = 0x00;
  3189  06D6  019C               	clrf	28	;volatile
  3190  06D7                     l1173:
  3191                           
  3192                           ;mcc_generated_files/eusart.c: 86:     EUSART_SetFramingErrorHandler(EUSART_DefaultFrami
      +                          ngErrorHandler);
  3193  06D7  3000               	movlw	0
  3194  06D8  00F0               	movwf	EUSART_SetFramingErrorHandler@interruptHandler
  3195  06D9  3000               	movlw	0
  3196  06DA  00F1               	movwf	EUSART_SetFramingErrorHandler@interruptHandler+1
  3197  06DB  3186  2650  3186   	fcall	_EUSART_SetFramingErrorHandler
  3198  06DE                     l1175:
  3199                           
  3200                           ;mcc_generated_files/eusart.c: 87:     EUSART_SetOverrunErrorHandler(EUSART_DefaultOverr
      +                          unErrorHandler);
  3201  06DE  3000               	movlw	0
  3202  06DF  00F0               	movwf	EUSART_SetOverrunErrorHandler@interruptHandler
  3203  06E0  3000               	movlw	0
  3204  06E1  00F1               	movwf	EUSART_SetOverrunErrorHandler@interruptHandler+1
  3205  06E2  3186  2656  3186   	fcall	_EUSART_SetOverrunErrorHandler
  3206  06E5                     l1177:
  3207                           
  3208                           ;mcc_generated_files/eusart.c: 88:     EUSART_SetErrorHandler(EUSART_DefaultErrorHandler
      +                          );
  3209  06E5  3000               	movlw	0
  3210  06E6  00F0               	movwf	EUSART_SetErrorHandler@interruptHandler
  3211  06E7  3000               	movlw	0
  3212  06E8  00F1               	movwf	EUSART_SetErrorHandler@interruptHandler+1
  3213  06E9  3186  264A  3186   	fcall	_EUSART_SetErrorHandler
  3214  06EC                     l1179:
  3215                           
  3216                           ;mcc_generated_files/eusart.c: 90:     eusartRxLastError.status = 0;
  3217  06EC  0020               	movlb	0	; select bank0
  3218  06ED  01CA               	clrf	_eusartRxLastError	;volatile
  3219  06EE                     l218:
  3220  06EE  0008               	return
  3221  06EF                     __end_of_EUSART_Initialize:
  3222                           
  3223                           	psect	text14
  3224  0656                     __ptext14:	
  3225 ;; *************** function _EUSART_SetOverrunErrorHandler *****************
  3226 ;; Defined at:
  3227 ;;		line 170 in file "mcc_generated_files/eusart.c"
  3228 ;; Parameters:    Size  Location     Type
  3229 ;;  interruptHan    2    0[COMMON] PTR FTN()void 
  3230 ;;		 -> EUSART_DefaultOverrunErrorHandler(1), 
  3231 ;; Auto vars:     Size  Location     Type
  3232 ;;		None
  3233 ;; Return value:  Size  Location     Type
  3234 ;;                  1    wreg      void 
  3235 ;; Registers used:
  3236 ;;		wreg
  3237 ;; Tracked objects:
  3238 ;;		On entry : 0/0
  3239 ;;		On exit  : 0/0
  3240 ;;		Unchanged: 0/0
  3241 ;; Data sizes:     COMMON   BANK0   BANK1   BANK2   BANK3   BANK4   BANK5   BANK6   BANK7   BANK8   BANK9  BANK10  BANK1
      +1  BANK12
  3242 ;;      Params:         2       0       0       0       0       0       0       0       0       0       0       0       
      +0       0
  3243 ;;      Locals:         0       0       0       0       0       0       0       0       0       0       0       0       
      +0       0
  3244 ;;      Temps:          0       0       0       0       0       0       0       0       0       0       0       0       
      +0       0
  3245 ;;      Totals:         2       0       0       0       0       0       0       0       0       0       0       0       
      +0       0
  3246 ;;Total ram usage:        2 bytes
  3247 ;; Hardware stack levels used:    1
  3248 ;; This function calls:
  3249 ;;		Nothing
  3250 ;; This function is called by:
  3251 ;;		_EUSART_Initialize
  3252 ;; This function uses a non-reentrant model
  3253 ;;
  3254                           
  3255                           
  3256                           ;psect for function _EUSART_SetOverrunErrorHandler
  3257  0656                     _EUSART_SetOverrunErrorHandler:
  3258  0656                     l1133:	
  3259                           ;incstack = 0
  3260                           ; Regs used in _EUSART_SetOverrunErrorHandler: [wreg]
  3261                           
  3262                           
  3263                           ;mcc_generated_files/eusart.c: 171:     EUSART_OverrunErrorHandler = interruptHandler;
  3264  0656  0871               	movf	EUSART_SetOverrunErrorHandler@interruptHandler+1,w
  3265  0657  0020               	movlb	0	; select bank0
  3266  0658  00E0               	movwf	_EUSART_OverrunErrorHandler+1
  3267  0659  0870               	movf	EUSART_SetOverrunErrorHandler@interruptHandler,w
  3268  065A  00DF               	movwf	_EUSART_OverrunErrorHandler
  3269  065B                     l266:
  3270  065B  0008               	return
  3271  065C                     __end_of_EUSART_SetOverrunErrorHandler:
  3272                           
  3273                           	psect	text15
  3274  0650                     __ptext15:	
  3275 ;; *************** function _EUSART_SetFramingErrorHandler *****************
  3276 ;; Defined at:
  3277 ;;		line 166 in file "mcc_generated_files/eusart.c"
  3278 ;; Parameters:    Size  Location     Type
  3279 ;;  interruptHan    2    0[COMMON] PTR FTN()void 
  3280 ;;		 -> EUSART_DefaultFramingErrorHandler(1), 
  3281 ;; Auto vars:     Size  Location     Type
  3282 ;;		None
  3283 ;; Return value:  Size  Location     Type
  3284 ;;                  1    wreg      void 
  3285 ;; Registers used:
  3286 ;;		wreg
  3287 ;; Tracked objects:
  3288 ;;		On entry : 0/0
  3289 ;;		On exit  : 0/0
  3290 ;;		Unchanged: 0/0
  3291 ;; Data sizes:     COMMON   BANK0   BANK1   BANK2   BANK3   BANK4   BANK5   BANK6   BANK7   BANK8   BANK9  BANK10  BANK1
      +1  BANK12
  3292 ;;      Params:         2       0       0       0       0       0       0       0       0       0       0       0       
      +0       0
  3293 ;;      Locals:         0       0       0       0       0       0       0       0       0       0       0       0       
      +0       0
  3294 ;;      Temps:          0       0       0       0       0       0       0       0       0       0       0       0       
      +0       0
  3295 ;;      Totals:         2       0       0       0       0       0       0       0       0       0       0       0       
      +0       0
  3296 ;;Total ram usage:        2 bytes
  3297 ;; Hardware stack levels used:    1
  3298 ;; This function calls:
  3299 ;;		Nothing
  3300 ;; This function is called by:
  3301 ;;		_EUSART_Initialize
  3302 ;; This function uses a non-reentrant model
  3303 ;;
  3304                           
  3305                           
  3306                           ;psect for function _EUSART_SetFramingErrorHandler
  3307  0650                     _EUSART_SetFramingErrorHandler:
  3308  0650                     l1131:	
  3309                           ;incstack = 0
  3310                           ; Regs used in _EUSART_SetFramingErrorHandler: [wreg]
  3311                           
  3312                           
  3313                           ;mcc_generated_files/eusart.c: 167:     EUSART_FramingErrorHandler = interruptHandler;
  3314  0650  0871               	movf	EUSART_SetFramingErrorHandler@interruptHandler+1,w
  3315  0651  0020               	movlb	0	; select bank0
  3316  0652  00E2               	movwf	_EUSART_FramingErrorHandler+1
  3317  0653  0870               	movf	EUSART_SetFramingErrorHandler@interruptHandler,w
  3318  0654  00E1               	movwf	_EUSART_FramingErrorHandler
  3319  0655                     l263:
  3320  0655  0008               	return
  3321  0656                     __end_of_EUSART_SetFramingErrorHandler:
  3322                           
  3323                           	psect	text16
  3324  064A                     __ptext16:	
  3325 ;; *************** function _EUSART_SetErrorHandler *****************
  3326 ;; Defined at:
  3327 ;;		line 174 in file "mcc_generated_files/eusart.c"
  3328 ;; Parameters:    Size  Location     Type
  3329 ;;  interruptHan    2    0[COMMON] PTR FTN()void 
  3330 ;;		 -> EUSART_DefaultErrorHandler(1), 
  3331 ;; Auto vars:     Size  Location     Type
  3332 ;;		None
  3333 ;; Return value:  Size  Location     Type
  3334 ;;                  1    wreg      void 
  3335 ;; Registers used:
  3336 ;;		wreg
  3337 ;; Tracked objects:
  3338 ;;		On entry : 0/0
  3339 ;;		On exit  : 0/0
  3340 ;;		Unchanged: 0/0
  3341 ;; Data sizes:     COMMON   BANK0   BANK1   BANK2   BANK3   BANK4   BANK5   BANK6   BANK7   BANK8   BANK9  BANK10  BANK1
      +1  BANK12
  3342 ;;      Params:         2       0       0       0       0       0       0       0       0       0       0       0       
      +0       0
  3343 ;;      Locals:         0       0       0       0       0       0       0       0       0       0       0       0       
      +0       0
  3344 ;;      Temps:          0       0       0       0       0       0       0       0       0       0       0       0       
      +0       0
  3345 ;;      Totals:         2       0       0       0       0       0       0       0       0       0       0       0       
      +0       0
  3346 ;;Total ram usage:        2 bytes
  3347 ;; Hardware stack levels used:    1
  3348 ;; This function calls:
  3349 ;;		Nothing
  3350 ;; This function is called by:
  3351 ;;		_EUSART_Initialize
  3352 ;; This function uses a non-reentrant model
  3353 ;;
  3354                           
  3355                           
  3356                           ;psect for function _EUSART_SetErrorHandler
  3357  064A                     _EUSART_SetErrorHandler:
  3358  064A                     l1135:	
  3359                           ;incstack = 0
  3360                           ; Regs used in _EUSART_SetErrorHandler: [wreg]
  3361                           
  3362                           
  3363                           ;mcc_generated_files/eusart.c: 175:     EUSART_ErrorHandler = interruptHandler;
  3364  064A  0871               	movf	EUSART_SetErrorHandler@interruptHandler+1,w
  3365  064B  0020               	movlb	0	; select bank0
  3366  064C  00DE               	movwf	_EUSART_ErrorHandler+1
  3367  064D  0870               	movf	EUSART_SetErrorHandler@interruptHandler,w
  3368  064E  00DD               	movwf	_EUSART_ErrorHandler
  3369  064F                     l269:
  3370  064F  0008               	return
  3371  0650                     __end_of_EUSART_SetErrorHandler:
  3372                           
  3373                           	psect	text17
  3374  0678                     __ptext17:	
  3375 ;; *************** function _ADC_Initialize *****************
  3376 ;; Defined at:
  3377 ;;		line 67 in file "mcc_generated_files/adc.c"
  3378 ;; Parameters:    Size  Location     Type
  3379 ;;		None
  3380 ;; Auto vars:     Size  Location     Type
  3381 ;;		None
  3382 ;; Return value:  Size  Location     Type
  3383 ;;                  1    wreg      void 
  3384 ;; Registers used:
  3385 ;;		wreg, status,2
  3386 ;; Tracked objects:
  3387 ;;		On entry : 0/0
  3388 ;;		On exit  : 0/0
  3389 ;;		Unchanged: 0/0
  3390 ;; Data sizes:     COMMON   BANK0   BANK1   BANK2   BANK3   BANK4   BANK5   BANK6   BANK7   BANK8   BANK9  BANK10  BANK1
      +1  BANK12
  3391 ;;      Params:         0       0       0       0       0       0       0       0       0       0       0       0       
      +0       0
  3392 ;;      Locals:         0       0       0       0       0       0       0       0       0       0       0       0       
      +0       0
  3393 ;;      Temps:          0       0       0       0       0       0       0       0       0       0       0       0       
      +0       0
  3394 ;;      Totals:         0       0       0       0       0       0       0       0       0       0       0       0       
      +0       0
  3395 ;;Total ram usage:        0 bytes
  3396 ;; Hardware stack levels used:    1
  3397 ;; This function calls:
  3398 ;;		Nothing
  3399 ;; This function is called by:
  3400 ;;		_SYSTEM_Initialize
  3401 ;; This function uses a non-reentrant model
  3402 ;;
  3403                           
  3404                           
  3405                           ;psect for function _ADC_Initialize
  3406  0678                     _ADC_Initialize:
  3407  0678                     l979:	
  3408                           ;incstack = 0
  3409                           ; Regs used in _ADC_Initialize: [wreg+status,2]
  3410                           
  3411                           
  3412                           ;mcc_generated_files/adc.c: 72:     ADCON1 = 0x12;
  3413  0678  3012               	movlw	18
  3414  0679  0021               	movlb	1	; select bank1
  3415  067A  009E               	movwf	30	;volatile
  3416  067B                     l981:
  3417                           
  3418                           ;mcc_generated_files/adc.c: 75:     ADCON2 = 0x00;
  3419  067B  019F               	clrf	31	;volatile
  3420  067C                     l983:
  3421                           
  3422                           ;mcc_generated_files/adc.c: 78:     ADRESL = 0x00;
  3423  067C  019B               	clrf	27	;volatile
  3424  067D                     l985:
  3425                           
  3426                           ;mcc_generated_files/adc.c: 81:     ADRESH = 0x00;
  3427  067D  019C               	clrf	28	;volatile
  3428  067E                     l987:
  3429                           
  3430                           ;mcc_generated_files/adc.c: 84:     ADCON0 = 0x01;
  3431  067E  3001               	movlw	1
  3432  067F  009D               	movwf	29	;volatile
  3433  0680                     l138:
  3434  0680  0008               	return
  3435  0681                     __end_of_ADC_Initialize:
  3436  007E                     btemp	set	126	;btemp
  3437  007E                     wtemp0	set	126
  3438                           
  3439                           	psect	config
  3440                           
  3441                           ;Config register CONFIG1 @ 0x8007
  3442                           ;	Oscillator Selection Bits
  3443                           ;	FOSC = INTOSC, INTOSC oscillator: I/O function on CLKIN pin
  3444                           ;	Watchdog Timer Enable
  3445                           ;	WDTE = OFF, WDT disabled
  3446                           ;	Power-up Timer Enable
  3447                           ;	PWRTE = OFF, PWRT disabled
  3448                           ;	MCLR Pin Function Select
  3449                           ;	MCLRE = ON, MCLR/VPP pin function is MCLR
  3450                           ;	Flash Program Memory Code Protection
  3451                           ;	CP = OFF, Program memory code protection is disabled
  3452                           ;	Brown-out Reset Enable
  3453                           ;	BOREN = OFF, Brown-out Reset disabled
  3454                           ;	Clock Out Enable
  3455                           ;	CLKOUTEN = OFF, CLKOUT function is disabled. I/O or oscillator function on the CLKOUT 
      +                          pin
  3456                           ;	Internal/External Switchover Mode
  3457                           ;	IESO = ON, Internal/External Switchover Mode is enabled
  3458                           ;	Fail-Safe Clock Monitor Enable
  3459                           ;	FCMEN = ON, Fail-Safe Clock Monitor is enabled
  3460  8007                     	org	32775
  3461  8007  39E4               	dw	14820
  3462                           
  3463                           ;Config register CONFIG2 @ 0x8008
  3464                           ;	Flash Memory Self-Write Protection
  3465                           ;	WRT = OFF, Write protection off
  3466                           ;	Peripheral Pin Select one-way control
  3467                           ;	PPS1WAY = ON, The PPSLOCK bit cannot be cleared once it is set by software
  3468                           ;	Zero-cross detect disable
  3469                           ;	ZCDDIS = ON, Zero-cross detect circuit is disabled at POR
  3470                           ;	Phase Lock Loop enable
  3471                           ;	PLLEN = OFF, 4x PLL is enabled when software sets the SPLLEN bit
  3472                           ;	Stack Overflow/Underflow Reset Enable
  3473                           ;	STVREN = ON, Stack Overflow or Underflow will cause a Reset
  3474                           ;	Brown-out Reset Voltage Selection
  3475                           ;	BORV = LO, Brown-out Reset Voltage (Vbor), low trip point selected.
  3476                           ;	Low-Power Brown Out Reset
  3477                           ;	LPBOR = OFF, Low-Power BOR is disabled
  3478                           ;	Low-Voltage Programming Enable
  3479                           ;	LVP = OFF, High-voltage on MCLR/VPP must be used for programming
  3480  8008                     	org	32776
  3481  8008  1EFF               	dw	7935

Data Sizes:
    Strings     14
    Constant    0
    Data        0
    BSS         43
    Persistent  38
    Stack       0

Auto Spaces:
    Space          Size  Autos    Used
    COMMON           14     14      14
    BANK0            80     18      67
    BANK1            80      0       0
    BANK2            80      0       0
    BANK3            80      0       0
    BANK4            80      0       0
    BANK5            80      0       0
    BANK6            80      0       0
    BANK7            80      0       0
    BANK8            80      0       0
    BANK9            80      0       0
    BANK10           80      0       0
    BANK11           80      0       0
    BANK12           48      0       0

Pointer List with Targets:

    vfpfcnvrt@ap	PTR PTR void  size(1) Largest target is 1
		 -> printf@ap(BANK0[1]), 

    ADC_InterruptHandler	PTR FTN()void  size(2) Largest target is 1
		 -> Absolute function(), 

    S845_IO_FILE$buffer	PTR unsigned char  size(1) Largest target is 0

    fputc@fp.buffer	PTR unsigned char  size(1) Largest target is 0

    fputc@fp	PTR struct _IO_FILE size(1) Largest target is 0
		 -> NULL(NULL[0]), 

    vfprintf@ap	PTR PTR void  size(1) Largest target is 1
		 -> printf@ap(BANK0[1]), 

    vfprintf@fp	PTR struct _IO_FILE size(1) Largest target is 0
		 -> NULL(NULL[0]), 

    vfprintf@fmt	PTR const unsigned char  size(2) Largest target is 14
		 -> STR_1(CODE[14]), 

    vfprintf@cfmt	PTR unsigned char  size(2) Largest target is 14
		 -> STR_1(CODE[14]), 

    vfpfcnvrt@fp	PTR struct _IO_FILE size(1) Largest target is 0
		 -> NULL(NULL[0]), 

    vfpfcnvrt@fmt	PTR PTR unsigned char  size(1) Largest target is 2
		 -> vfprintf@cfmt(BANK0[2]), 

    printf@fmt	PTR const unsigned char  size(2) Largest target is 14
		 -> STR_1(CODE[14]), 

    printf@ap	PTR void [1] size(1) Largest target is 2
		 -> ?_printf(BANK0[2]), 

    EUSART_SetErrorHandler@interruptHandler	PTR FTN()void  size(2) Largest target is 1
		 -> EUSART_DefaultErrorHandler(), 

    EUSART_ErrorHandler	PTR FTN()void  size(2) Largest target is 1
		 -> Absolute function(), EUSART_DefaultErrorHandler(), 

    EUSART_SetOverrunErrorHandler@interruptHandler	PTR FTN()void  size(2) Largest target is 1
		 -> EUSART_DefaultOverrunErrorHandler(), 

    EUSART_OverrunErrorHandler	PTR FTN()void  size(2) Largest target is 1
		 -> Absolute function(), EUSART_DefaultOverrunErrorHandler(), 

    EUSART_SetFramingErrorHandler@interruptHandler	PTR FTN()void  size(2) Largest target is 1
		 -> EUSART_DefaultFramingErrorHandler(), 

    EUSART_FramingErrorHandler	PTR FTN()void  size(2) Largest target is 1
		 -> Absolute function(), EUSART_DefaultFramingErrorHandler(), 


Critical Paths under _main in COMMON

    _main->_printf
    _vfprintf->_vfpfcnvrt
    _vfpfcnvrt->_fputc
    _fputc->_putch
    _putch->_EUSART_Write
    _EUSART_Initialize->_EUSART_SetErrorHandler
    _EUSART_Initialize->_EUSART_SetFramingErrorHandler
    _EUSART_Initialize->_EUSART_SetOverrunErrorHandler

Critical Paths under _main in BANK0

    _main->_printf
    _printf->_vfprintf
    _vfprintf->_vfpfcnvrt

Critical Paths under _main in BANK1

    None.

Critical Paths under _main in BANK2

    None.

Critical Paths under _main in BANK3

    None.

Critical Paths under _main in BANK4

    None.

Critical Paths under _main in BANK5

    None.

Critical Paths under _main in BANK6

    None.

Critical Paths under _main in BANK7

    None.

Critical Paths under _main in BANK8

    None.

Critical Paths under _main in BANK9

    None.

Critical Paths under _main in BANK10

    None.

Critical Paths under _main in BANK11

    None.

Critical Paths under _main in BANK12

    None.

Call Graph Tables:

 ---------------------------------------------------------------------------------
 (Depth) Function   	        Calls       Base Space   Used Autos Params    Refs
 ---------------------------------------------------------------------------------
 (0) _main                                                 0     0      0    1906
                  _SYSTEM_Initialize
                             _printf
 ---------------------------------------------------------------------------------
 (1) _printf                                               6     4      2    1612
                                             13 COMMON     1     1      0
                                             13 BANK0      5     3      2
                           _vfprintf
 ---------------------------------------------------------------------------------
 (2) _vfprintf                                             8     5      3    1484
                                              5 BANK0      8     5      3
                          _vfpfcnvrt
 ---------------------------------------------------------------------------------
 (3) _vfpfcnvrt                                           40    38      2    1160
                                             10 COMMON     3     1      2
                                              0 BANK0      5     5      0
                              _fputc
 ---------------------------------------------------------------------------------
 (4) _fputc                                                8     5      3     760
                                              2 COMMON     8     5      3
                              _putch
 ---------------------------------------------------------------------------------
 (5) _putch                                                1     1      0      44
                                              1 COMMON     1     1      0
                       _EUSART_Write
 ---------------------------------------------------------------------------------
 (6) _EUSART_Write                                         1     1      0      22
                                              0 COMMON     1     1      0
 ---------------------------------------------------------------------------------
 (1) _SYSTEM_Initialize                                    0     0      0     294
                     _ADC_Initialize
                  _EUSART_Initialize
              _OSCILLATOR_Initialize
             _PIN_MANAGER_Initialize
                    _PWM1_Initialize
                    _TMR2_Initialize
                     _WDT_Initialize
 ---------------------------------------------------------------------------------
 (2) _WDT_Initialize                                       0     0      0       0
 ---------------------------------------------------------------------------------
 (2) _TMR2_Initialize                                      0     0      0       0
 ---------------------------------------------------------------------------------
 (2) _PWM1_Initialize                                      0     0      0       0
 ---------------------------------------------------------------------------------
 (2) _PIN_MANAGER_Initialize                               0     0      0       0
 ---------------------------------------------------------------------------------
 (2) _OSCILLATOR_Initialize                                0     0      0       0
 ---------------------------------------------------------------------------------
 (2) _EUSART_Initialize                                    0     0      0     294
             _EUSART_SetErrorHandler
      _EUSART_SetFramingErrorHandler
      _EUSART_SetOverrunErrorHandler
 ---------------------------------------------------------------------------------
 (3) _EUSART_SetOverrunErrorHandler                        2     0      2      98
                                              0 COMMON     2     0      2
 ---------------------------------------------------------------------------------
 (3) _EUSART_SetFramingErrorHandler                        2     0      2      98
                                              0 COMMON     2     0      2
 ---------------------------------------------------------------------------------
 (3) _EUSART_SetErrorHandler                               2     0      2      98
                                              0 COMMON     2     0      2
 ---------------------------------------------------------------------------------
 (2) _ADC_Initialize                                       0     0      0       0
 ---------------------------------------------------------------------------------
 Estimated maximum stack depth 6
 ---------------------------------------------------------------------------------

 Call Graph Graphs:

 _main (ROOT)
   _SYSTEM_Initialize
     _ADC_Initialize
     _EUSART_Initialize
       _EUSART_SetErrorHandler
       _EUSART_SetFramingErrorHandler
       _EUSART_SetOverrunErrorHandler
     _OSCILLATOR_Initialize
     _PIN_MANAGER_Initialize
     _PWM1_Initialize
     _TMR2_Initialize
     _WDT_Initialize
   _printf
     _vfprintf
       _vfpfcnvrt
         _fputc
           _putch
             _EUSART_Write

 Address spaces:
Name               Size   Autos  Total    Cost      Usage
BIGRAM             3F0      0       0       0        0.0%
NULL                 0      0       0       0        0.0%
CODE                 0      0       0       0        0.0%
BITCOMMON            E      0       0       1        0.0%
BITSFR0              0      0       0       1        0.0%
SFR0                 0      0       0       1        0.0%
COMMON               E      E       E       2      100.0%
BITSFR1              0      0       0       2        0.0%
SFR1                 0      0       0       2        0.0%
BITSFR2              0      0       0       3        0.0%
SFR2                 0      0       0       3        0.0%
STACK                0      0       0       3        0.0%
BITBANK0            50      0       0       4        0.0%
BITSFR3              0      0       0       4        0.0%
SFR3                 0      0       0       4        0.0%
BANK0               50     12      43       5       83.8%
BITSFR4              0      0       0       5        0.0%
SFR4                 0      0       0       5        0.0%
BITBANK1            50      0       0       6        0.0%
BITSFR5              0      0       0       6        0.0%
SFR5                 0      0       0       6        0.0%
BANK1               50      0       0       7        0.0%
BITSFR6              0      0       0       7        0.0%
SFR6                 0      0       0       7        0.0%
BITBANK2            50      0       0       8        0.0%
BITSFR7              0      0       0       8        0.0%
SFR7                 0      0       0       8        0.0%
BANK2               50      0       0       9        0.0%
BITSFR8              0      0       0       9        0.0%
SFR8                 0      0       0       9        0.0%
BITBANK3            50      0       0      10        0.0%
BITSFR9              0      0       0      10        0.0%
SFR9                 0      0       0      10        0.0%
BANK3               50      0       0      11        0.0%
BITSFR10             0      0       0      11        0.0%
SFR10                0      0       0      11        0.0%
BITBANK4            50      0       0      12        0.0%
BITSFR11             0      0       0      12        0.0%
SFR11                0      0       0      12        0.0%
BANK4               50      0       0      13        0.0%
BITSFR12             0      0       0      13        0.0%
SFR12                0      0       0      13        0.0%
BITBANK5            50      0       0      14        0.0%
BITSFR13             0      0       0      14        0.0%
SFR13                0      0       0      14        0.0%
BANK5               50      0       0      15        0.0%
BITSFR14             0      0       0      15        0.0%
SFR14                0      0       0      15        0.0%
BITBANK6            50      0       0      16        0.0%
BITSFR15             0      0       0      16        0.0%
SFR15                0      0       0      16        0.0%
BANK6               50      0       0      17        0.0%
BITSFR16             0      0       0      17        0.0%
SFR16                0      0       0      17        0.0%
BITBANK7            50      0       0      18        0.0%
BITSFR17             0      0       0      18        0.0%
SFR17                0      0       0      18        0.0%
BANK7               50      0       0      19        0.0%
BITSFR18             0      0       0      19        0.0%
SFR18                0      0       0      19        0.0%
BITSFR19             0      0       0      20        0.0%
SFR19                0      0       0      20        0.0%
ABS                  0      0      51      20        0.0%
BITBANK8            50      0       0      21        0.0%
BITSFR20             0      0       0      21        0.0%
SFR20                0      0       0      21        0.0%
BANK8               50      0       0      22        0.0%
BITSFR21             0      0       0      22        0.0%
SFR21                0      0       0      22        0.0%
BITBANK9            50      0       0      23        0.0%
BITSFR22             0      0       0      23        0.0%
SFR22                0      0       0      23        0.0%
BANK9               50      0       0      24        0.0%
BITSFR23             0      0       0      24        0.0%
SFR23                0      0       0      24        0.0%
BITBANK10           50      0       0      25        0.0%
BITSFR24             0      0       0      25        0.0%
SFR24                0      0       0      25        0.0%
BANK10              50      0       0      26        0.0%
BITSFR25             0      0       0      26        0.0%
SFR25                0      0       0      26        0.0%
BITBANK11           50      0       0      27        0.0%
BITSFR26             0      0       0      27        0.0%
SFR26                0      0       0      27        0.0%
BANK11              50      0       0      28        0.0%
BITSFR27             0      0       0      28        0.0%
SFR27                0      0       0      28        0.0%
BITBANK12           30      0       0      29        0.0%
BITSFR28             0      0       0      29        0.0%
SFR28                0      0       0      29        0.0%
BANK12              30      0       0      30        0.0%
BITSFR29             0      0       0      30        0.0%
SFR29                0      0       0      30        0.0%
BITSFR30             0      0       0      31        0.0%
SFR30                0      0       0      31        0.0%
DATA                 0      0      51      31        0.0%
BITSFR31             0      0       0      32        0.0%
SFR31                0      0       0      32        0.0%


Microchip Technology PIC Macro Assembler V2.31 build 20201012212115 
Symbol Table                                                                                   Wed Feb 03 17:21:12 2021

                                           l51 0689                                             l37 0713  
                                           l67 0677                                            l113 06CC  
                                          l116 066F                                            l119 0649  
                                          l138 0680                                            l218 06EE  
                                          l242 068B                                            l251 0661  
                                          l172 06A2                                            l245 0693  
                                          l173 06A2                                            l263 0655  
                                          l266 065B                                            l269 064F  
                                          l800 06B6                                            l833 07F4  
                                          l931 06F9                                            l851 077A  
                                          l941 0702                                            l933 06FB  
                                          l925 06EF                                            l951 070D  
                                          l943 0703                                            l935 06FD  
                                          l927 06F2                                            l839 073B  
                                          l953 0710                                            l945 0706  
                                          l937 06FE                                            l929 06F5  
                                          l961 0670                                            l971 066B  
                                          l947 0708                                            l939 0700  
                                          l955 0681                                            l963 0673  
                                          l981 067B                                            l973 066C  
                                          l949 070B                                            l957 0686  
                                          l965 0674                                            l983 067C  
                                          l975 066D                                            l959 0687  
                                          l967 0675                                            l985 067D  
                                          l969 0668                                            l977 0646  
                                          l987 067E                                            l979 0678  
                                          u200 0772                                            u201 0771  
                                          u210 078E                                            u211 078D  
                                          u220 07AF                                            u205 076E  
                                          u221 07AE                                            u230 0737  
                                          u231 0736                                            u160 0690  
                                          u161 068F                                            u170 0741  
                                          u171 0740                                            u180 0746  
                                          u181 0745                                            u190 0755  
                                          _PR2 001B                                            u191 0754  
               ?_EUSART_SetFramingErrorHandler 0070                                _TMR2_Initialize 0670  
                                          wreg 0009                                           l1111 068B  
                                         l1113 0690                                           l1121 0746  
                                         l1131 0650                                           l1115 065D  
                                         l1123 074B                                           l1133 0656  
                                         l1125 0755                                           l1117 073C  
                                         l1141 0796                                           l1213 0694  
                                         l1135 064A                                           l1127 0772  
                                         l1119 0741                                           l1151 07C2  
                                         l1143 079A                                           l1215 0697  
                                         l1145 079E                                           l1161 07D2  
                                         l1137 077C                                           l1217 069A  
                                         l1171 06D6                                           l1163 07EB  
                                         l1147 07AF                                           l1155 07C7  
                                         l1139 078E                                           l1173 06D7  
                                         l1157 07CF                                           l1149 07B7  
                                         l1181 0716                                           l1175 06DE  
                                         l1183 071A                                           l1177 06E5  
                                         l1169 06CD                                           l1193 06B7  
                                         l1185 071D                                           l1179 06EC  
                                         l1187 072E                                           l1195 06A5  
                                         l1189 0737                                           l1197 06AA  
                                         STR_1 0800                        __end_of_PWM1_Initialize 068A  
                                         _LATA 010C                                           _LATC 010E  
                                         _TMR2 001A                                           _WPUA 020C  
                                         _WPUC 020E                                           _dbuf 0020  
                                         _main 0694                                           _prec 0044  
                                         _nout 0040                                           fsr0h 0005  
                                         fsr1h 0007                                           indf0 0000  
                                         fsr0l 0004                                           indf1 0001  
                                         fsr1l 0006                                           btemp 007E  
                                         start 0002                                  ?_EUSART_Write 0070  
               __size_of_OSCILLATOR_Initialize 0008                  __end_of_OSCILLATOR_Initialize 0670  
                                        ?_main 0070                                          _T2CON 001C  
                                 vfpfcnvrt@fmt 007A                                          _TRISA 008C  
                                        _TRISC 008E                                          _RXPPS 0E24  
                                        _flags 0046                                 _WDT_Initialize 0646  
                                        _fputc 073C                                          _width 0042  
                                        _putch 065C                                          status 0003  
                                        wtemp0 007E                                __initialization 07F5  
                                 __end_of_main 06A5                                 ??_EUSART_Write 0070  
                      __end_of_TMR2_Initialize 0678                                         ??_main 007E  
                       __end_of_WDT_Initialize 064A              _EUSART_DefaultFramingErrorHandler 0000  
                                       _ADCON0 009D                                         _ADCON1 009E  
                                       _ADCON2 009F                     _EUSART_OverrunErrorHandler 005F  
                                       ?_fputc 0072                                         _ADRESH 009C  
                                       _ADRESL 009B                                         _CCPR1H 0292  
                                       _CCPR1L 0291                                         _ANSELA 018C  
                                       ?_putch 0070                                         _ANSELC 018E  
                                       _BORCON 0116                                         _RC1REG 0199  
                                       _RC1STA 019D                                         _RC4PPS 0EA4  
                             ?_PWM1_Initialize 0070                                         _ODCONA 028C  
                                       _ODCONC 028E                                         _INLVLA 038C  
                                       _INLVLC 038E                                         _OSCCON 0099  
                                       _TX1REG 019A                                         _WDTCON 0097  
                                       _TX1STA 019E                                   vfprintf@cfmt 0056  
                                       _printf 06A5                                         fputc@c 0072  
                              ?_WDT_Initialize 0070                               __end_of_vfprintf 073C  
                            _SYSTEM_Initialize 06B7                        __end_of__initialization 07FD  
                           ?_SYSTEM_Initialize 0070                                 __pcstackCOMMON 0070  
                          ??_SYSTEM_Initialize 0072                                  __end_of_fputc 077B  
                                __end_of_putch 0662                               ?_TMR2_Initialize 0070  
                               _OPTION_REGbits 0095                ??_EUSART_SetOverrunErrorHandler 0072  
                                      ??_fputc 0075                      __end_of_SYSTEM_Initialize 06CD  
                                      ??_putch 0071                                     __pbssBANK0 0020  
                         __end_of_EUSART_Write 0694                                     __pmaintext 0694  
                                      _CCP1CON 0293                                        ?_printf 0058  
                      __size_of_ADC_Initialize 0009                                        _SP1BRGH 019C  
                                      _SP1BRGL 019B                             __size_of_vfpfcnvrt 007A  
                                      _OSCSTAT 009A                                        _OSCTUNE 0098  
                                      _SLRCONA 030C                                        _SLRCONC 030E  
                     ??_EUSART_SetErrorHandler 0072                           _ADC_InterruptHandler 0048  
                                    ?_vfprintf 0050                                        __ptext1 06A5  
                                      __ptext2 0714                                        __ptext3 077B  
                                      __ptext4 073C                                        __ptext5 065C  
                                      __ptext6 068A                                        __ptext7 06B7  
                                      __ptext8 0646                                        __ptext9 0670  
                              __size_of_printf 0012                          _OSCILLATOR_Initialize 0668  
                                    _T2CONbits 001C                       ??_PIN_MANAGER_Initialize 0070  
                   __size_of_SYSTEM_Initialize 0016                                        clrloop0 0663  
                         end_of_initialization 07FD          __end_of_EUSART_SetOverrunErrorHandler 065C  
       __size_of_EUSART_SetOverrunErrorHandler 0006                  _EUSART_SetOverrunErrorHandler 0656  
                                      fputc@fp 0074                              _EUSART_Initialize 06CD  
                           ?_EUSART_Initialize 0070                              __end_of_vfpfcnvrt 07F5  
                                    _RCSTAbits 019D                                     ??_vfprintf 0053  
                          ??_EUSART_Initialize 0072                               ??_WDT_Initialize 0070  
                        __size_of_EUSART_Write 000A                __size_of_EUSART_SetErrorHandler 0006  
                    __end_of_EUSART_Initialize 06EF                                      _TXSTAbits 019E  
                     __size_of_PWM1_Initialize 0009                     _EUSART_DefaultErrorHandler 0000  
                                  vfpfcnvrt@ap 007B                                    vfpfcnvrt@fp 007C  
                                 _EUSART_Write 068A                                 _ADC_Initialize 0678  
                       ?_OSCILLATOR_Initialize 0070                                 __end_of_printf 06B7  
                          start_initialization 07F5                __size_of_PIN_MANAGER_Initialize 0025  
                                  putch@txData 0071                 ?_EUSART_SetOverrunErrorHandler 0070  
                                  vfprintf@fmt 0050                     _EUSART_FramingErrorHandler 0061  
                       _EUSART_SetErrorHandler 064A                                    _CCPTMRSbits 029E  
                       __end_of_ADC_Initialize 0681                                       ??_printf 007D  
                                    ___latbits 0002                                  __pcstackBANK0 004B  
                     __size_of_TMR2_Initialize 0008                     __size_of_EUSART_Initialize 0022  
                                    __pnvBANK0 005D                         _PIN_MANAGER_Initialize 06EF  
                              ?_ADC_Initialize 0070                              ??_PWM1_Initialize 0070  
                            __size_of_vfprintf 0028                                       _BAUD1CON 019F  
                               __size_of_fputc 003F                                 __size_of_putch 0006  
       EUSART_SetErrorHandler@interruptHandler 0070                                      clear_ram0 0662  
                            _eusartRxLastError 004A                                       _PIR1bits 0011  
              ??_EUSART_SetFramingErrorHandler 0072              _EUSART_DefaultOverrunErrorHandler 0000  
                                    _vfpfcnvrt 077B                                     _ADCON0bits 009D  
                            ??_TMR2_Initialize 0070                                     vfprintf@ap 0052  
                                   vfprintf@fp 0055                        ??_OSCILLATOR_Initialize 0070  
                          _EUSART_ErrorHandler 005D                                     ?_vfpfcnvrt 007A  
                                     __ptext10 0681                                       __ptext11 06EF  
                                     __ptext12 0668                                       __ptext13 06CD  
                                     __ptext14 0656                                       __ptext15 0650  
                                     __ptext16 064A                                       __ptext17 0678  
                                __size_of_main 0011                        ?_EUSART_SetErrorHandler 0070  
                                   _RC1STAbits 019D  EUSART_SetOverrunErrorHandler@interruptHandler 0070  
                                     _vfprintf 0714                                      printf@fmt 0058  
        __end_of_EUSART_SetFramingErrorHandler 0656         __size_of_EUSART_SetFramingErrorHandler 0006  
                _EUSART_SetFramingErrorHandler 0650                        __size_of_WDT_Initialize 0004  
                      ?_PIN_MANAGER_Initialize 0070                 __end_of_EUSART_SetErrorHandler 0650  
                              _PWM1_Initialize 0681                               ??_ADC_Initialize 0070  
                                     printf@ap 005C  EUSART_SetFramingErrorHandler@interruptHandler 0070  
                                  ??_vfpfcnvrt 004B                                  __pstringtext1 0800  
                                __pstringtext2 0000                                     _TX1STAbits 019E  
                           EUSART_Write@txData 0070                 __end_of_PIN_MANAGER_Initialize 0714  
