

Microchip MPLAB XC8 Assembler V2.31 build 20201012212115 
                                                                                               Fri Feb 05 22:43:58 2021

Microchip MPLAB XC8 C Compiler v2.31 (Free license) build 20201012212115 Og1 
     1                           	processor	16F1705
     2                           	pagewidth 120
     3                           	opt	flic
     4                           	psect	stringtext1,global,class=STRCODE,delta=2,noexec
     5                           	psect	nvBANK0,global,class=BANK0,space=1,delta=1,noexec
     6                           	psect	nvBANK1,global,class=BANK1,space=1,delta=1,noexec
     7                           	psect	stringtext2,global,class=STRCODE,delta=2,noexec
     8                           	psect	stringtext3,global,class=STRCODE,delta=2,noexec
     9                           	psect	cinit,global,class=CODE,merge=1,delta=2
    10                           	psect	bssCOMMON,global,class=COMMON,space=1,delta=1,noexec
    11                           	psect	bssBANK0,global,class=BANK0,space=1,delta=1,noexec
    12                           	psect	bssBANK1,global,class=BANK1,space=1,delta=1,noexec
    13                           	psect	clrtext,global,class=CODE,delta=2
    14                           	psect	cstackBANK1,global,class=BANK1,space=1,delta=1,noexec
    15                           	psect	cstackCOMMON,global,class=COMMON,space=1,delta=1,noexec
    16                           	psect	cstackBANK0,global,class=BANK0,space=1,delta=1,noexec
    17                           	psect	maintext,global,class=CODE,merge=1,split=1,delta=2
    18                           	psect	text1,local,class=CODE,merge=1,delta=2,group=1
    19                           	psect	text2,local,class=CODE,merge=1,delta=2
    20                           	psect	text3,local,class=CODE,merge=1,delta=2
    21                           	psect	text4,local,class=CODE,merge=1,delta=2,group=2
    22                           	psect	text5,local,class=CODE,merge=1,delta=2,group=2
    23                           	psect	text6,local,class=CODE,merge=1,delta=2
    24                           	psect	text7,local,class=CODE,merge=1,delta=2,group=2
    25                           	psect	text8,local,class=CODE,merge=1,delta=2,group=2
    26                           	psect	text9,local,class=CODE,merge=1,delta=2,group=2
    27                           	psect	text10,local,class=CODE,merge=1,delta=2,group=2
    28                           	psect	text11,local,class=CODE,merge=1,delta=2,group=2
    29                           	psect	text12,local,class=CODE,merge=1,delta=2,group=2
    30                           	psect	text13,local,class=CODE,merge=1,delta=2
    31                           	psect	text14,local,class=CODE,merge=1,delta=2
    32                           	psect	text15,local,class=CODE,merge=1,delta=2
    33                           	psect	text16,local,class=CODE,merge=1,delta=2
    34                           	psect	text17,local,class=CODE,merge=1,delta=2
    35                           	psect	text18,local,class=CODE,merge=1,delta=2
    36                           	psect	text19,local,class=CODE,merge=1,delta=2
    37                           	psect	text20,local,class=CODE,merge=1,delta=2
    38                           	psect	text21,local,class=CODE,merge=1,delta=2
    39                           	psect	text22,local,class=CODE,merge=1,delta=2
    40                           	psect	text23,local,class=CODE,merge=1,delta=2
    41                           	psect	text24,local,class=CODE,merge=1,delta=2
    42                           	psect	text25,local,class=CODE,merge=1,delta=2
    43                           	psect	text26,local,class=CODE,merge=1,delta=2
    44                           	psect	text27,local,class=CODE,merge=1,delta=2
    45                           	psect	intentry,global,class=CODE,delta=2
    46                           	psect	text29,local,class=CODE,merge=1,delta=2
    47                           	psect	text30,local,class=CODE,merge=1,delta=2
    48                           	psect	text31,local,class=CODE,merge=1,delta=2
    49                           	psect	text32,local,class=CODE,merge=1,delta=2
    50                           	psect	text33,local,class=CODE,merge=1,delta=2
    51                           	psect	text34,local,class=CODE,merge=1,delta=2
    52                           	psect	text35,local,class=CODE,merge=1,delta=2
    53                           	psect	text36,local,class=CODE,merge=1,delta=2
    54                           	psect	text37,local,class=CODE,merge=1,delta=2
    55                           	psect	config,global,abs,ovrld,class=CONFIG,space=4,delta=2,noexec
    56                           	dabs	1,0x7E,2
    57  0000                     
    58                           ; Version 2.20
    59                           ; Generated 12/02/2020 GMT
    60                           ; 
    61                           ; Copyright © 2020, Microchip Technology Inc. and its subsidiaries ("Microchip")
    62                           ; All rights reserved.
    63                           ; 
    64                           ; This software is developed by Microchip Technology Inc. and its subsidiaries ("Microch
      +                          ip").
    65                           ; 
    66                           ; Redistribution and use in source and binary forms, with or without modification, are
    67                           ; permitted provided that the following conditions are met:
    68                           ; 
    69                           ;     1. Redistributions of source code must retain the above copyright notice, this lis
      +                          t of
    70                           ;        conditions and the following disclaimer.
    71                           ; 
    72                           ;     2. Redistributions in binary form must reproduce the above copyright notice, this 
      +                          list
    73                           ;        of conditions and the following disclaimer in the documentation and/or other
    74                           ;        materials provided with the distribution.
    75                           ; 
    76                           ;     3. Microchip's name may not be used to endorse or promote products derived from th
      +                          is
    77                           ;        software without specific prior written permission.
    78                           ; 
    79                           ; THIS SOFTWARE IS PROVIDED BY MICROCHIP "AS IS" AND ANY EXPRESS OR IMPLIED WARRANTIES,
    80                           ; INCLUDING, BUT NOT LIMITED TO, THE IMPLIED WARRANTIES OF MERCHANTABILITY AND FITNESS F
      +                          OR
    81                           ; PURPOSE ARE DISCLAIMED.  IN NO EVENT SHALL MICROCHIP BE LIABLE FOR ANY DIRECT, INDIREC
      +                          T,
    82                           ; INCIDENTAL, SPECIAL, EXEMPLARY, OR CONSEQUENTIAL DAMAGES (INCLUDING BUT NOT LIMITED TO
    83                           ; PROCUREMENT OF SUBSTITUTE GOODS OR SERVICES; LOSS OF USE, DATA OR PROFITS; OR BUSINESS
    84                           ; INTERRUPTION) HOWSOEVER CAUSED AND ON ANY THEORY OF LIABILITY, WHETHER IN CONTRACT, ST
      +                          RICT
    85                           ; LIABILITY, OR TORT (INCLUDING NEGLIGENCE OR OTHERWISE) ARISING IN ANY WAY OUT OF THE U
      +                          SE OF
    86                           ; THIS SOFTWARE, EVEN IF ADVISED OF THE POSSIBILITY OF SUCH DAMAGE.
    87                           ; 
    88                           ; 
    89                           ; Code-generator required, PIC16F1705 Definitions
    90                           ; 
    91                           ; SFR Addresses
    92  0000                     	;# 
    93  0001                     	;# 
    94  0002                     	;# 
    95  0003                     	;# 
    96  0004                     	;# 
    97  0005                     	;# 
    98  0006                     	;# 
    99  0007                     	;# 
   100  0008                     	;# 
   101  0009                     	;# 
   102  000A                     	;# 
   103  000B                     	;# 
   104  000C                     	;# 
   105  000E                     	;# 
   106  0011                     	;# 
   107  0012                     	;# 
   108  0013                     	;# 
   109  0015                     	;# 
   110  0016                     	;# 
   111  0016                     	;# 
   112  0017                     	;# 
   113  0018                     	;# 
   114  0019                     	;# 
   115  001A                     	;# 
   116  001B                     	;# 
   117  001C                     	;# 
   118  008C                     	;# 
   119  008E                     	;# 
   120  0091                     	;# 
   121  0092                     	;# 
   122  0093                     	;# 
   123  0095                     	;# 
   124  0096                     	;# 
   125  0097                     	;# 
   126  0098                     	;# 
   127  0099                     	;# 
   128  009A                     	;# 
   129  009B                     	;# 
   130  009B                     	;# 
   131  009C                     	;# 
   132  009D                     	;# 
   133  009E                     	;# 
   134  009F                     	;# 
   135  010C                     	;# 
   136  010E                     	;# 
   137  0111                     	;# 
   138  0112                     	;# 
   139  0113                     	;# 
   140  0114                     	;# 
   141  0115                     	;# 
   142  0116                     	;# 
   143  0117                     	;# 
   144  0118                     	;# 
   145  0119                     	;# 
   146  011C                     	;# 
   147  018C                     	;# 
   148  018E                     	;# 
   149  0191                     	;# 
   150  0191                     	;# 
   151  0192                     	;# 
   152  0193                     	;# 
   153  0193                     	;# 
   154  0194                     	;# 
   155  0195                     	;# 
   156  0196                     	;# 
   157  0197                     	;# 
   158  0199                     	;# 
   159  0199                     	;# 
   160  0199                     	;# 
   161  019A                     	;# 
   162  019A                     	;# 
   163  019A                     	;# 
   164  019B                     	;# 
   165  019B                     	;# 
   166  019B                     	;# 
   167  019B                     	;# 
   168  019B                     	;# 
   169  019C                     	;# 
   170  019C                     	;# 
   171  019C                     	;# 
   172  019D                     	;# 
   173  019D                     	;# 
   174  019D                     	;# 
   175  019E                     	;# 
   176  019E                     	;# 
   177  019E                     	;# 
   178  019F                     	;# 
   179  019F                     	;# 
   180  019F                     	;# 
   181  019F                     	;# 
   182  019F                     	;# 
   183  020C                     	;# 
   184  020E                     	;# 
   185  0211                     	;# 
   186  0211                     	;# 
   187  0212                     	;# 
   188  0212                     	;# 
   189  0213                     	;# 
   190  0213                     	;# 
   191  0214                     	;# 
   192  0214                     	;# 
   193  0215                     	;# 
   194  0215                     	;# 
   195  0215                     	;# 
   196  0215                     	;# 
   197  0216                     	;# 
   198  0216                     	;# 
   199  0217                     	;# 
   200  0217                     	;# 
   201  028C                     	;# 
   202  028E                     	;# 
   203  0291                     	;# 
   204  0291                     	;# 
   205  0292                     	;# 
   206  0293                     	;# 
   207  0293                     	;# 
   208  0298                     	;# 
   209  0298                     	;# 
   210  0299                     	;# 
   211  029A                     	;# 
   212  029A                     	;# 
   213  029E                     	;# 
   214  030C                     	;# 
   215  030E                     	;# 
   216  038C                     	;# 
   217  038E                     	;# 
   218  0391                     	;# 
   219  0392                     	;# 
   220  0393                     	;# 
   221  0397                     	;# 
   222  0398                     	;# 
   223  0399                     	;# 
   224  0415                     	;# 
   225  0416                     	;# 
   226  0417                     	;# 
   227  041C                     	;# 
   228  041D                     	;# 
   229  041E                     	;# 
   230  0511                     	;# 
   231  0515                     	;# 
   232  0617                     	;# 
   233  0618                     	;# 
   234  0619                     	;# 
   235  0619                     	;# 
   236  061A                     	;# 
   237  061B                     	;# 
   238  061C                     	;# 
   239  061C                     	;# 
   240  0691                     	;# 
   241  0692                     	;# 
   242  0693                     	;# 
   243  0694                     	;# 
   244  0695                     	;# 
   245  0696                     	;# 
   246  0697                     	;# 
   247  0698                     	;# 
   248  0699                     	;# 
   249  069A                     	;# 
   250  069B                     	;# 
   251  069C                     	;# 
   252  069D                     	;# 
   253  069E                     	;# 
   254  069F                     	;# 
   255  0E0F                     	;# 
   256  0E10                     	;# 
   257  0E11                     	;# 
   258  0E12                     	;# 
   259  0E13                     	;# 
   260  0E14                     	;# 
   261  0E15                     	;# 
   262  0E17                     	;# 
   263  0E20                     	;# 
   264  0E21                     	;# 
   265  0E22                     	;# 
   266  0E24                     	;# 
   267  0E25                     	;# 
   268  0E28                     	;# 
   269  0E29                     	;# 
   270  0E2A                     	;# 
   271  0E2B                     	;# 
   272  0E90                     	;# 
   273  0E91                     	;# 
   274  0E92                     	;# 
   275  0E94                     	;# 
   276  0E95                     	;# 
   277  0EA0                     	;# 
   278  0EA1                     	;# 
   279  0EA2                     	;# 
   280  0EA3                     	;# 
   281  0EA4                     	;# 
   282  0EA5                     	;# 
   283  0F0F                     	;# 
   284  0F10                     	;# 
   285  0F11                     	;# 
   286  0F12                     	;# 
   287  0F13                     	;# 
   288  0F14                     	;# 
   289  0F15                     	;# 
   290  0F16                     	;# 
   291  0F17                     	;# 
   292  0F18                     	;# 
   293  0F19                     	;# 
   294  0F1A                     	;# 
   295  0F1B                     	;# 
   296  0F1C                     	;# 
   297  0F1D                     	;# 
   298  0F1E                     	;# 
   299  0F1F                     	;# 
   300  0F20                     	;# 
   301  0F21                     	;# 
   302  0F22                     	;# 
   303  0F23                     	;# 
   304  0F24                     	;# 
   305  0F25                     	;# 
   306  0F26                     	;# 
   307  0F27                     	;# 
   308  0F28                     	;# 
   309  0F29                     	;# 
   310  0F2A                     	;# 
   311  0F2B                     	;# 
   312  0F2C                     	;# 
   313  0F2D                     	;# 
   314  0F9E                     	;# 
   315  0FE4                     	;# 
   316  0FE5                     	;# 
   317  0FE6                     	;# 
   318  0FE7                     	;# 
   319  0FE8                     	;# 
   320  0FE9                     	;# 
   321  0FEA                     	;# 
   322  0FEB                     	;# 
   323  0FED                     	;# 
   324  0FEE                     	;# 
   325  0FEF                     	;# 
   326  0000                     	;# 
   327  0001                     	;# 
   328  0002                     	;# 
   329  0003                     	;# 
   330  0004                     	;# 
   331  0005                     	;# 
   332  0006                     	;# 
   333  0007                     	;# 
   334  0008                     	;# 
   335  0009                     	;# 
   336  000A                     	;# 
   337  000B                     	;# 
   338  000C                     	;# 
   339  000E                     	;# 
   340  0011                     	;# 
   341  0012                     	;# 
   342  0013                     	;# 
   343  0015                     	;# 
   344  0016                     	;# 
   345  0016                     	;# 
   346  0017                     	;# 
   347  0018                     	;# 
   348  0019                     	;# 
   349  001A                     	;# 
   350  001B                     	;# 
   351  001C                     	;# 
   352  008C                     	;# 
   353  008E                     	;# 
   354  0091                     	;# 
   355  0092                     	;# 
   356  0093                     	;# 
   357  0095                     	;# 
   358  0096                     	;# 
   359  0097                     	;# 
   360  0098                     	;# 
   361  0099                     	;# 
   362  009A                     	;# 
   363  009B                     	;# 
   364  009B                     	;# 
   365  009C                     	;# 
   366  009D                     	;# 
   367  009E                     	;# 
   368  009F                     	;# 
   369  010C                     	;# 
   370  010E                     	;# 
   371  0111                     	;# 
   372  0112                     	;# 
   373  0113                     	;# 
   374  0114                     	;# 
   375  0115                     	;# 
   376  0116                     	;# 
   377  0117                     	;# 
   378  0118                     	;# 
   379  0119                     	;# 
   380  011C                     	;# 
   381  018C                     	;# 
   382  018E                     	;# 
   383  0191                     	;# 
   384  0191                     	;# 
   385  0192                     	;# 
   386  0193                     	;# 
   387  0193                     	;# 
   388  0194                     	;# 
   389  0195                     	;# 
   390  0196                     	;# 
   391  0197                     	;# 
   392  0199                     	;# 
   393  0199                     	;# 
   394  0199                     	;# 
   395  019A                     	;# 
   396  019A                     	;# 
   397  019A                     	;# 
   398  019B                     	;# 
   399  019B                     	;# 
   400  019B                     	;# 
   401  019B                     	;# 
   402  019B                     	;# 
   403  019C                     	;# 
   404  019C                     	;# 
   405  019C                     	;# 
   406  019D                     	;# 
   407  019D                     	;# 
   408  019D                     	;# 
   409  019E                     	;# 
   410  019E                     	;# 
   411  019E                     	;# 
   412  019F                     	;# 
   413  019F                     	;# 
   414  019F                     	;# 
   415  019F                     	;# 
   416  019F                     	;# 
   417  020C                     	;# 
   418  020E                     	;# 
   419  0211                     	;# 
   420  0211                     	;# 
   421  0212                     	;# 
   422  0212                     	;# 
   423  0213                     	;# 
   424  0213                     	;# 
   425  0214                     	;# 
   426  0214                     	;# 
   427  0215                     	;# 
   428  0215                     	;# 
   429  0215                     	;# 
   430  0215                     	;# 
   431  0216                     	;# 
   432  0216                     	;# 
   433  0217                     	;# 
   434  0217                     	;# 
   435  028C                     	;# 
   436  028E                     	;# 
   437  0291                     	;# 
   438  0291                     	;# 
   439  0292                     	;# 
   440  0293                     	;# 
   441  0293                     	;# 
   442  0298                     	;# 
   443  0298                     	;# 
   444  0299                     	;# 
   445  029A                     	;# 
   446  029A                     	;# 
   447  029E                     	;# 
   448  030C                     	;# 
   449  030E                     	;# 
   450  038C                     	;# 
   451  038E                     	;# 
   452  0391                     	;# 
   453  0392                     	;# 
   454  0393                     	;# 
   455  0397                     	;# 
   456  0398                     	;# 
   457  0399                     	;# 
   458  0415                     	;# 
   459  0416                     	;# 
   460  0417                     	;# 
   461  041C                     	;# 
   462  041D                     	;# 
   463  041E                     	;# 
   464  0511                     	;# 
   465  0515                     	;# 
   466  0617                     	;# 
   467  0618                     	;# 
   468  0619                     	;# 
   469  0619                     	;# 
   470  061A                     	;# 
   471  061B                     	;# 
   472  061C                     	;# 
   473  061C                     	;# 
   474  0691                     	;# 
   475  0692                     	;# 
   476  0693                     	;# 
   477  0694                     	;# 
   478  0695                     	;# 
   479  0696                     	;# 
   480  0697                     	;# 
   481  0698                     	;# 
   482  0699                     	;# 
   483  069A                     	;# 
   484  069B                     	;# 
   485  069C                     	;# 
   486  069D                     	;# 
   487  069E                     	;# 
   488  069F                     	;# 
   489  0E0F                     	;# 
   490  0E10                     	;# 
   491  0E11                     	;# 
   492  0E12                     	;# 
   493  0E13                     	;# 
   494  0E14                     	;# 
   495  0E15                     	;# 
   496  0E17                     	;# 
   497  0E20                     	;# 
   498  0E21                     	;# 
   499  0E22                     	;# 
   500  0E24                     	;# 
   501  0E25                     	;# 
   502  0E28                     	;# 
   503  0E29                     	;# 
   504  0E2A                     	;# 
   505  0E2B                     	;# 
   506  0E90                     	;# 
   507  0E91                     	;# 
   508  0E92                     	;# 
   509  0E94                     	;# 
   510  0E95                     	;# 
   511  0EA0                     	;# 
   512  0EA1                     	;# 
   513  0EA2                     	;# 
   514  0EA3                     	;# 
   515  0EA4                     	;# 
   516  0EA5                     	;# 
   517  0F0F                     	;# 
   518  0F10                     	;# 
   519  0F11                     	;# 
   520  0F12                     	;# 
   521  0F13                     	;# 
   522  0F14                     	;# 
   523  0F15                     	;# 
   524  0F16                     	;# 
   525  0F17                     	;# 
   526  0F18                     	;# 
   527  0F19                     	;# 
   528  0F1A                     	;# 
   529  0F1B                     	;# 
   530  0F1C                     	;# 
   531  0F1D                     	;# 
   532  0F1E                     	;# 
   533  0F1F                     	;# 
   534  0F20                     	;# 
   535  0F21                     	;# 
   536  0F22                     	;# 
   537  0F23                     	;# 
   538  0F24                     	;# 
   539  0F25                     	;# 
   540  0F26                     	;# 
   541  0F27                     	;# 
   542  0F28                     	;# 
   543  0F29                     	;# 
   544  0F2A                     	;# 
   545  0F2B                     	;# 
   546  0F2C                     	;# 
   547  0F2D                     	;# 
   548  0F9E                     	;# 
   549  0FE4                     	;# 
   550  0FE5                     	;# 
   551  0FE6                     	;# 
   552  0FE7                     	;# 
   553  0FE8                     	;# 
   554  0FE9                     	;# 
   555  0FEA                     	;# 
   556  0FEB                     	;# 
   557  0FED                     	;# 
   558  0FEE                     	;# 
   559  0FEF                     	;# 
   560  0000                     	;# 
   561  0001                     	;# 
   562  0002                     	;# 
   563  0003                     	;# 
   564  0004                     	;# 
   565  0005                     	;# 
   566  0006                     	;# 
   567  0007                     	;# 
   568  0008                     	;# 
   569  0009                     	;# 
   570  000A                     	;# 
   571  000B                     	;# 
   572  000C                     	;# 
   573  000E                     	;# 
   574  0011                     	;# 
   575  0012                     	;# 
   576  0013                     	;# 
   577  0015                     	;# 
   578  0016                     	;# 
   579  0016                     	;# 
   580  0017                     	;# 
   581  0018                     	;# 
   582  0019                     	;# 
   583  001A                     	;# 
   584  001B                     	;# 
   585  001C                     	;# 
   586  008C                     	;# 
   587  008E                     	;# 
   588  0091                     	;# 
   589  0092                     	;# 
   590  0093                     	;# 
   591  0095                     	;# 
   592  0096                     	;# 
   593  0097                     	;# 
   594  0098                     	;# 
   595  0099                     	;# 
   596  009A                     	;# 
   597  009B                     	;# 
   598  009B                     	;# 
   599  009C                     	;# 
   600  009D                     	;# 
   601  009E                     	;# 
   602  009F                     	;# 
   603  010C                     	;# 
   604  010E                     	;# 
   605  0111                     	;# 
   606  0112                     	;# 
   607  0113                     	;# 
   608  0114                     	;# 
   609  0115                     	;# 
   610  0116                     	;# 
   611  0117                     	;# 
   612  0118                     	;# 
   613  0119                     	;# 
   614  011C                     	;# 
   615  018C                     	;# 
   616  018E                     	;# 
   617  0191                     	;# 
   618  0191                     	;# 
   619  0192                     	;# 
   620  0193                     	;# 
   621  0193                     	;# 
   622  0194                     	;# 
   623  0195                     	;# 
   624  0196                     	;# 
   625  0197                     	;# 
   626  0199                     	;# 
   627  0199                     	;# 
   628  0199                     	;# 
   629  019A                     	;# 
   630  019A                     	;# 
   631  019A                     	;# 
   632  019B                     	;# 
   633  019B                     	;# 
   634  019B                     	;# 
   635  019B                     	;# 
   636  019B                     	;# 
   637  019C                     	;# 
   638  019C                     	;# 
   639  019C                     	;# 
   640  019D                     	;# 
   641  019D                     	;# 
   642  019D                     	;# 
   643  019E                     	;# 
   644  019E                     	;# 
   645  019E                     	;# 
   646  019F                     	;# 
   647  019F                     	;# 
   648  019F                     	;# 
   649  019F                     	;# 
   650  019F                     	;# 
   651  020C                     	;# 
   652  020E                     	;# 
   653  0211                     	;# 
   654  0211                     	;# 
   655  0212                     	;# 
   656  0212                     	;# 
   657  0213                     	;# 
   658  0213                     	;# 
   659  0214                     	;# 
   660  0214                     	;# 
   661  0215                     	;# 
   662  0215                     	;# 
   663  0215                     	;# 
   664  0215                     	;# 
   665  0216                     	;# 
   666  0216                     	;# 
   667  0217                     	;# 
   668  0217                     	;# 
   669  028C                     	;# 
   670  028E                     	;# 
   671  0291                     	;# 
   672  0291                     	;# 
   673  0292                     	;# 
   674  0293                     	;# 
   675  0293                     	;# 
   676  0298                     	;# 
   677  0298                     	;# 
   678  0299                     	;# 
   679  029A                     	;# 
   680  029A                     	;# 
   681  029E                     	;# 
   682  030C                     	;# 
   683  030E                     	;# 
   684  038C                     	;# 
   685  038E                     	;# 
   686  0391                     	;# 
   687  0392                     	;# 
   688  0393                     	;# 
   689  0397                     	;# 
   690  0398                     	;# 
   691  0399                     	;# 
   692  0415                     	;# 
   693  0416                     	;# 
   694  0417                     	;# 
   695  041C                     	;# 
   696  041D                     	;# 
   697  041E                     	;# 
   698  0511                     	;# 
   699  0515                     	;# 
   700  0617                     	;# 
   701  0618                     	;# 
   702  0619                     	;# 
   703  0619                     	;# 
   704  061A                     	;# 
   705  061B                     	;# 
   706  061C                     	;# 
   707  061C                     	;# 
   708  0691                     	;# 
   709  0692                     	;# 
   710  0693                     	;# 
   711  0694                     	;# 
   712  0695                     	;# 
   713  0696                     	;# 
   714  0697                     	;# 
   715  0698                     	;# 
   716  0699                     	;# 
   717  069A                     	;# 
   718  069B                     	;# 
   719  069C                     	;# 
   720  069D                     	;# 
   721  069E                     	;# 
   722  069F                     	;# 
   723  0E0F                     	;# 
   724  0E10                     	;# 
   725  0E11                     	;# 
   726  0E12                     	;# 
   727  0E13                     	;# 
   728  0E14                     	;# 
   729  0E15                     	;# 
   730  0E17                     	;# 
   731  0E20                     	;# 
   732  0E21                     	;# 
   733  0E22                     	;# 
   734  0E24                     	;# 
   735  0E25                     	;# 
   736  0E28                     	;# 
   737  0E29                     	;# 
   738  0E2A                     	;# 
   739  0E2B                     	;# 
   740  0E90                     	;# 
   741  0E91                     	;# 
   742  0E92                     	;# 
   743  0E94                     	;# 
   744  0E95                     	;# 
   745  0EA0                     	;# 
   746  0EA1                     	;# 
   747  0EA2                     	;# 
   748  0EA3                     	;# 
   749  0EA4                     	;# 
   750  0EA5                     	;# 
   751  0F0F                     	;# 
   752  0F10                     	;# 
   753  0F11                     	;# 
   754  0F12                     	;# 
   755  0F13                     	;# 
   756  0F14                     	;# 
   757  0F15                     	;# 
   758  0F16                     	;# 
   759  0F17                     	;# 
   760  0F18                     	;# 
   761  0F19                     	;# 
   762  0F1A                     	;# 
   763  0F1B                     	;# 
   764  0F1C                     	;# 
   765  0F1D                     	;# 
   766  0F1E                     	;# 
   767  0F1F                     	;# 
   768  0F20                     	;# 
   769  0F21                     	;# 
   770  0F22                     	;# 
   771  0F23                     	;# 
   772  0F24                     	;# 
   773  0F25                     	;# 
   774  0F26                     	;# 
   775  0F27                     	;# 
   776  0F28                     	;# 
   777  0F29                     	;# 
   778  0F2A                     	;# 
   779  0F2B                     	;# 
   780  0F2C                     	;# 
   781  0F2D                     	;# 
   782  0F9E                     	;# 
   783  0FE4                     	;# 
   784  0FE5                     	;# 
   785  0FE6                     	;# 
   786  0FE7                     	;# 
   787  0FE8                     	;# 
   788  0FE9                     	;# 
   789  0FEA                     	;# 
   790  0FEB                     	;# 
   791  0FED                     	;# 
   792  0FEE                     	;# 
   793  0FEF                     	;# 
   794  0000                     	;# 
   795  0001                     	;# 
   796  0002                     	;# 
   797  0003                     	;# 
   798  0004                     	;# 
   799  0005                     	;# 
   800  0006                     	;# 
   801  0007                     	;# 
   802  0008                     	;# 
   803  0009                     	;# 
   804  000A                     	;# 
   805  000B                     	;# 
   806  000C                     	;# 
   807  000E                     	;# 
   808  0011                     	;# 
   809  0012                     	;# 
   810  0013                     	;# 
   811  0015                     	;# 
   812  0016                     	;# 
   813  0016                     	;# 
   814  0017                     	;# 
   815  0018                     	;# 
   816  0019                     	;# 
   817  001A                     	;# 
   818  001B                     	;# 
   819  001C                     	;# 
   820  008C                     	;# 
   821  008E                     	;# 
   822  0091                     	;# 
   823  0092                     	;# 
   824  0093                     	;# 
   825  0095                     	;# 
   826  0096                     	;# 
   827  0097                     	;# 
   828  0098                     	;# 
   829  0099                     	;# 
   830  009A                     	;# 
   831  009B                     	;# 
   832  009B                     	;# 
   833  009C                     	;# 
   834  009D                     	;# 
   835  009E                     	;# 
   836  009F                     	;# 
   837  010C                     	;# 
   838  010E                     	;# 
   839  0111                     	;# 
   840  0112                     	;# 
   841  0113                     	;# 
   842  0114                     	;# 
   843  0115                     	;# 
   844  0116                     	;# 
   845  0117                     	;# 
   846  0118                     	;# 
   847  0119                     	;# 
   848  011C                     	;# 
   849  018C                     	;# 
   850  018E                     	;# 
   851  0191                     	;# 
   852  0191                     	;# 
   853  0192                     	;# 
   854  0193                     	;# 
   855  0193                     	;# 
   856  0194                     	;# 
   857  0195                     	;# 
   858  0196                     	;# 
   859  0197                     	;# 
   860  0199                     	;# 
   861  0199                     	;# 
   862  0199                     	;# 
   863  019A                     	;# 
   864  019A                     	;# 
   865  019A                     	;# 
   866  019B                     	;# 
   867  019B                     	;# 
   868  019B                     	;# 
   869  019B                     	;# 
   870  019B                     	;# 
   871  019C                     	;# 
   872  019C                     	;# 
   873  019C                     	;# 
   874  019D                     	;# 
   875  019D                     	;# 
   876  019D                     	;# 
   877  019E                     	;# 
   878  019E                     	;# 
   879  019E                     	;# 
   880  019F                     	;# 
   881  019F                     	;# 
   882  019F                     	;# 
   883  019F                     	;# 
   884  019F                     	;# 
   885  020C                     	;# 
   886  020E                     	;# 
   887  0211                     	;# 
   888  0211                     	;# 
   889  0212                     	;# 
   890  0212                     	;# 
   891  0213                     	;# 
   892  0213                     	;# 
   893  0214                     	;# 
   894  0214                     	;# 
   895  0215                     	;# 
   896  0215                     	;# 
   897  0215                     	;# 
   898  0215                     	;# 
   899  0216                     	;# 
   900  0216                     	;# 
   901  0217                     	;# 
   902  0217                     	;# 
   903  028C                     	;# 
   904  028E                     	;# 
   905  0291                     	;# 
   906  0291                     	;# 
   907  0292                     	;# 
   908  0293                     	;# 
   909  0293                     	;# 
   910  0298                     	;# 
   911  0298                     	;# 
   912  0299                     	;# 
   913  029A                     	;# 
   914  029A                     	;# 
   915  029E                     	;# 
   916  030C                     	;# 
   917  030E                     	;# 
   918  038C                     	;# 
   919  038E                     	;# 
   920  0391                     	;# 
   921  0392                     	;# 
   922  0393                     	;# 
   923  0397                     	;# 
   924  0398                     	;# 
   925  0399                     	;# 
   926  0415                     	;# 
   927  0416                     	;# 
   928  0417                     	;# 
   929  041C                     	;# 
   930  041D                     	;# 
   931  041E                     	;# 
   932  0511                     	;# 
   933  0515                     	;# 
   934  0617                     	;# 
   935  0618                     	;# 
   936  0619                     	;# 
   937  0619                     	;# 
   938  061A                     	;# 
   939  061B                     	;# 
   940  061C                     	;# 
   941  061C                     	;# 
   942  0691                     	;# 
   943  0692                     	;# 
   944  0693                     	;# 
   945  0694                     	;# 
   946  0695                     	;# 
   947  0696                     	;# 
   948  0697                     	;# 
   949  0698                     	;# 
   950  0699                     	;# 
   951  069A                     	;# 
   952  069B                     	;# 
   953  069C                     	;# 
   954  069D                     	;# 
   955  069E                     	;# 
   956  069F                     	;# 
   957  0E0F                     	;# 
   958  0E10                     	;# 
   959  0E11                     	;# 
   960  0E12                     	;# 
   961  0E13                     	;# 
   962  0E14                     	;# 
   963  0E15                     	;# 
   964  0E17                     	;# 
   965  0E20                     	;# 
   966  0E21                     	;# 
   967  0E22                     	;# 
   968  0E24                     	;# 
   969  0E25                     	;# 
   970  0E28                     	;# 
   971  0E29                     	;# 
   972  0E2A                     	;# 
   973  0E2B                     	;# 
   974  0E90                     	;# 
   975  0E91                     	;# 
   976  0E92                     	;# 
   977  0E94                     	;# 
   978  0E95                     	;# 
   979  0EA0                     	;# 
   980  0EA1                     	;# 
   981  0EA2                     	;# 
   982  0EA3                     	;# 
   983  0EA4                     	;# 
   984  0EA5                     	;# 
   985  0F0F                     	;# 
   986  0F10                     	;# 
   987  0F11                     	;# 
   988  0F12                     	;# 
   989  0F13                     	;# 
   990  0F14                     	;# 
   991  0F15                     	;# 
   992  0F16                     	;# 
   993  0F17                     	;# 
   994  0F18                     	;# 
   995  0F19                     	;# 
   996  0F1A                     	;# 
   997  0F1B                     	;# 
   998  0F1C                     	;# 
   999  0F1D                     	;# 
  1000  0F1E                     	;# 
  1001  0F1F                     	;# 
  1002  0F20                     	;# 
  1003  0F21                     	;# 
  1004  0F22                     	;# 
  1005  0F23                     	;# 
  1006  0F24                     	;# 
  1007  0F25                     	;# 
  1008  0F26                     	;# 
  1009  0F27                     	;# 
  1010  0F28                     	;# 
  1011  0F29                     	;# 
  1012  0F2A                     	;# 
  1013  0F2B                     	;# 
  1014  0F2C                     	;# 
  1015  0F2D                     	;# 
  1016  0F9E                     	;# 
  1017  0FE4                     	;# 
  1018  0FE5                     	;# 
  1019  0FE6                     	;# 
  1020  0FE7                     	;# 
  1021  0FE8                     	;# 
  1022  0FE9                     	;# 
  1023  0FEA                     	;# 
  1024  0FEB                     	;# 
  1025  0FED                     	;# 
  1026  0FEE                     	;# 
  1027  0FEF                     	;# 
  1028  0000                     	;# 
  1029  0001                     	;# 
  1030  0002                     	;# 
  1031  0003                     	;# 
  1032  0004                     	;# 
  1033  0005                     	;# 
  1034  0006                     	;# 
  1035  0007                     	;# 
  1036  0008                     	;# 
  1037  0009                     	;# 
  1038  000A                     	;# 
  1039  000B                     	;# 
  1040  000C                     	;# 
  1041  000E                     	;# 
  1042  0011                     	;# 
  1043  0012                     	;# 
  1044  0013                     	;# 
  1045  0015                     	;# 
  1046  0016                     	;# 
  1047  0016                     	;# 
  1048  0017                     	;# 
  1049  0018                     	;# 
  1050  0019                     	;# 
  1051  001A                     	;# 
  1052  001B                     	;# 
  1053  001C                     	;# 
  1054  008C                     	;# 
  1055  008E                     	;# 
  1056  0091                     	;# 
  1057  0092                     	;# 
  1058  0093                     	;# 
  1059  0095                     	;# 
  1060  0096                     	;# 
  1061  0097                     	;# 
  1062  0098                     	;# 
  1063  0099                     	;# 
  1064  009A                     	;# 
  1065  009B                     	;# 
  1066  009B                     	;# 
  1067  009C                     	;# 
  1068  009D                     	;# 
  1069  009E                     	;# 
  1070  009F                     	;# 
  1071  010C                     	;# 
  1072  010E                     	;# 
  1073  0111                     	;# 
  1074  0112                     	;# 
  1075  0113                     	;# 
  1076  0114                     	;# 
  1077  0115                     	;# 
  1078  0116                     	;# 
  1079  0117                     	;# 
  1080  0118                     	;# 
  1081  0119                     	;# 
  1082  011C                     	;# 
  1083  018C                     	;# 
  1084  018E                     	;# 
  1085  0191                     	;# 
  1086  0191                     	;# 
  1087  0192                     	;# 
  1088  0193                     	;# 
  1089  0193                     	;# 
  1090  0194                     	;# 
  1091  0195                     	;# 
  1092  0196                     	;# 
  1093  0197                     	;# 
  1094  0199                     	;# 
  1095  0199                     	;# 
  1096  0199                     	;# 
  1097  019A                     	;# 
  1098  019A                     	;# 
  1099  019A                     	;# 
  1100  019B                     	;# 
  1101  019B                     	;# 
  1102  019B                     	;# 
  1103  019B                     	;# 
  1104  019B                     	;# 
  1105  019C                     	;# 
  1106  019C                     	;# 
  1107  019C                     	;# 
  1108  019D                     	;# 
  1109  019D                     	;# 
  1110  019D                     	;# 
  1111  019E                     	;# 
  1112  019E                     	;# 
  1113  019E                     	;# 
  1114  019F                     	;# 
  1115  019F                     	;# 
  1116  019F                     	;# 
  1117  019F                     	;# 
  1118  019F                     	;# 
  1119  020C                     	;# 
  1120  020E                     	;# 
  1121  0211                     	;# 
  1122  0211                     	;# 
  1123  0212                     	;# 
  1124  0212                     	;# 
  1125  0213                     	;# 
  1126  0213                     	;# 
  1127  0214                     	;# 
  1128  0214                     	;# 
  1129  0215                     	;# 
  1130  0215                     	;# 
  1131  0215                     	;# 
  1132  0215                     	;# 
  1133  0216                     	;# 
  1134  0216                     	;# 
  1135  0217                     	;# 
  1136  0217                     	;# 
  1137  028C                     	;# 
  1138  028E                     	;# 
  1139  0291                     	;# 
  1140  0291                     	;# 
  1141  0292                     	;# 
  1142  0293                     	;# 
  1143  0293                     	;# 
  1144  0298                     	;# 
  1145  0298                     	;# 
  1146  0299                     	;# 
  1147  029A                     	;# 
  1148  029A                     	;# 
  1149  029E                     	;# 
  1150  030C                     	;# 
  1151  030E                     	;# 
  1152  038C                     	;# 
  1153  038E                     	;# 
  1154  0391                     	;# 
  1155  0392                     	;# 
  1156  0393                     	;# 
  1157  0397                     	;# 
  1158  0398                     	;# 
  1159  0399                     	;# 
  1160  0415                     	;# 
  1161  0416                     	;# 
  1162  0417                     	;# 
  1163  041C                     	;# 
  1164  041D                     	;# 
  1165  041E                     	;# 
  1166  0511                     	;# 
  1167  0515                     	;# 
  1168  0617                     	;# 
  1169  0618                     	;# 
  1170  0619                     	;# 
  1171  0619                     	;# 
  1172  061A                     	;# 
  1173  061B                     	;# 
  1174  061C                     	;# 
  1175  061C                     	;# 
  1176  0691                     	;# 
  1177  0692                     	;# 
  1178  0693                     	;# 
  1179  0694                     	;# 
  1180  0695                     	;# 
  1181  0696                     	;# 
  1182  0697                     	;# 
  1183  0698                     	;# 
  1184  0699                     	;# 
  1185  069A                     	;# 
  1186  069B                     	;# 
  1187  069C                     	;# 
  1188  069D                     	;# 
  1189  069E                     	;# 
  1190  069F                     	;# 
  1191  0E0F                     	;# 
  1192  0E10                     	;# 
  1193  0E11                     	;# 
  1194  0E12                     	;# 
  1195  0E13                     	;# 
  1196  0E14                     	;# 
  1197  0E15                     	;# 
  1198  0E17                     	;# 
  1199  0E20                     	;# 
  1200  0E21                     	;# 
  1201  0E22                     	;# 
  1202  0E24                     	;# 
  1203  0E25                     	;# 
  1204  0E28                     	;# 
  1205  0E29                     	;# 
  1206  0E2A                     	;# 
  1207  0E2B                     	;# 
  1208  0E90                     	;# 
  1209  0E91                     	;# 
  1210  0E92                     	;# 
  1211  0E94                     	;# 
  1212  0E95                     	;# 
  1213  0EA0                     	;# 
  1214  0EA1                     	;# 
  1215  0EA2                     	;# 
  1216  0EA3                     	;# 
  1217  0EA4                     	;# 
  1218  0EA5                     	;# 
  1219  0F0F                     	;# 
  1220  0F10                     	;# 
  1221  0F11                     	;# 
  1222  0F12                     	;# 
  1223  0F13                     	;# 
  1224  0F14                     	;# 
  1225  0F15                     	;# 
  1226  0F16                     	;# 
  1227  0F17                     	;# 
  1228  0F18                     	;# 
  1229  0F19                     	;# 
  1230  0F1A                     	;# 
  1231  0F1B                     	;# 
  1232  0F1C                     	;# 
  1233  0F1D                     	;# 
  1234  0F1E                     	;# 
  1235  0F1F                     	;# 
  1236  0F20                     	;# 
  1237  0F21                     	;# 
  1238  0F22                     	;# 
  1239  0F23                     	;# 
  1240  0F24                     	;# 
  1241  0F25                     	;# 
  1242  0F26                     	;# 
  1243  0F27                     	;# 
  1244  0F28                     	;# 
  1245  0F29                     	;# 
  1246  0F2A                     	;# 
  1247  0F2B                     	;# 
  1248  0F2C                     	;# 
  1249  0F2D                     	;# 
  1250  0F9E                     	;# 
  1251  0FE4                     	;# 
  1252  0FE5                     	;# 
  1253  0FE6                     	;# 
  1254  0FE7                     	;# 
  1255  0FE8                     	;# 
  1256  0FE9                     	;# 
  1257  0FEA                     	;# 
  1258  0FEB                     	;# 
  1259  0FED                     	;# 
  1260  0FEE                     	;# 
  1261  0FEF                     	;# 
  1262  0000                     	;# 
  1263  0001                     	;# 
  1264  0002                     	;# 
  1265  0003                     	;# 
  1266  0004                     	;# 
  1267  0005                     	;# 
  1268  0006                     	;# 
  1269  0007                     	;# 
  1270  0008                     	;# 
  1271  0009                     	;# 
  1272  000A                     	;# 
  1273  000B                     	;# 
  1274  000C                     	;# 
  1275  000E                     	;# 
  1276  0011                     	;# 
  1277  0012                     	;# 
  1278  0013                     	;# 
  1279  0015                     	;# 
  1280  0016                     	;# 
  1281  0016                     	;# 
  1282  0017                     	;# 
  1283  0018                     	;# 
  1284  0019                     	;# 
  1285  001A                     	;# 
  1286  001B                     	;# 
  1287  001C                     	;# 
  1288  008C                     	;# 
  1289  008E                     	;# 
  1290  0091                     	;# 
  1291  0092                     	;# 
  1292  0093                     	;# 
  1293  0095                     	;# 
  1294  0096                     	;# 
  1295  0097                     	;# 
  1296  0098                     	;# 
  1297  0099                     	;# 
  1298  009A                     	;# 
  1299  009B                     	;# 
  1300  009B                     	;# 
  1301  009C                     	;# 
  1302  009D                     	;# 
  1303  009E                     	;# 
  1304  009F                     	;# 
  1305  010C                     	;# 
  1306  010E                     	;# 
  1307  0111                     	;# 
  1308  0112                     	;# 
  1309  0113                     	;# 
  1310  0114                     	;# 
  1311  0115                     	;# 
  1312  0116                     	;# 
  1313  0117                     	;# 
  1314  0118                     	;# 
  1315  0119                     	;# 
  1316  011C                     	;# 
  1317  018C                     	;# 
  1318  018E                     	;# 
  1319  0191                     	;# 
  1320  0191                     	;# 
  1321  0192                     	;# 
  1322  0193                     	;# 
  1323  0193                     	;# 
  1324  0194                     	;# 
  1325  0195                     	;# 
  1326  0196                     	;# 
  1327  0197                     	;# 
  1328  0199                     	;# 
  1329  0199                     	;# 
  1330  0199                     	;# 
  1331  019A                     	;# 
  1332  019A                     	;# 
  1333  019A                     	;# 
  1334  019B                     	;# 
  1335  019B                     	;# 
  1336  019B                     	;# 
  1337  019B                     	;# 
  1338  019B                     	;# 
  1339  019C                     	;# 
  1340  019C                     	;# 
  1341  019C                     	;# 
  1342  019D                     	;# 
  1343  019D                     	;# 
  1344  019D                     	;# 
  1345  019E                     	;# 
  1346  019E                     	;# 
  1347  019E                     	;# 
  1348  019F                     	;# 
  1349  019F                     	;# 
  1350  019F                     	;# 
  1351  019F                     	;# 
  1352  019F                     	;# 
  1353  020C                     	;# 
  1354  020E                     	;# 
  1355  0211                     	;# 
  1356  0211                     	;# 
  1357  0212                     	;# 
  1358  0212                     	;# 
  1359  0213                     	;# 
  1360  0213                     	;# 
  1361  0214                     	;# 
  1362  0214                     	;# 
  1363  0215                     	;# 
  1364  0215                     	;# 
  1365  0215                     	;# 
  1366  0215                     	;# 
  1367  0216                     	;# 
  1368  0216                     	;# 
  1369  0217                     	;# 
  1370  0217                     	;# 
  1371  028C                     	;# 
  1372  028E                     	;# 
  1373  0291                     	;# 
  1374  0291                     	;# 
  1375  0292                     	;# 
  1376  0293                     	;# 
  1377  0293                     	;# 
  1378  0298                     	;# 
  1379  0298                     	;# 
  1380  0299                     	;# 
  1381  029A                     	;# 
  1382  029A                     	;# 
  1383  029E                     	;# 
  1384  030C                     	;# 
  1385  030E                     	;# 
  1386  038C                     	;# 
  1387  038E                     	;# 
  1388  0391                     	;# 
  1389  0392                     	;# 
  1390  0393                     	;# 
  1391  0397                     	;# 
  1392  0398                     	;# 
  1393  0399                     	;# 
  1394  0415                     	;# 
  1395  0416                     	;# 
  1396  0417                     	;# 
  1397  041C                     	;# 
  1398  041D                     	;# 
  1399  041E                     	;# 
  1400  0511                     	;# 
  1401  0515                     	;# 
  1402  0617                     	;# 
  1403  0618                     	;# 
  1404  0619                     	;# 
  1405  0619                     	;# 
  1406  061A                     	;# 
  1407  061B                     	;# 
  1408  061C                     	;# 
  1409  061C                     	;# 
  1410  0691                     	;# 
  1411  0692                     	;# 
  1412  0693                     	;# 
  1413  0694                     	;# 
  1414  0695                     	;# 
  1415  0696                     	;# 
  1416  0697                     	;# 
  1417  0698                     	;# 
  1418  0699                     	;# 
  1419  069A                     	;# 
  1420  069B                     	;# 
  1421  069C                     	;# 
  1422  069D                     	;# 
  1423  069E                     	;# 
  1424  069F                     	;# 
  1425  0E0F                     	;# 
  1426  0E10                     	;# 
  1427  0E11                     	;# 
  1428  0E12                     	;# 
  1429  0E13                     	;# 
  1430  0E14                     	;# 
  1431  0E15                     	;# 
  1432  0E17                     	;# 
  1433  0E20                     	;# 
  1434  0E21                     	;# 
  1435  0E22                     	;# 
  1436  0E24                     	;# 
  1437  0E25                     	;# 
  1438  0E28                     	;# 
  1439  0E29                     	;# 
  1440  0E2A                     	;# 
  1441  0E2B                     	;# 
  1442  0E90                     	;# 
  1443  0E91                     	;# 
  1444  0E92                     	;# 
  1445  0E94                     	;# 
  1446  0E95                     	;# 
  1447  0EA0                     	;# 
  1448  0EA1                     	;# 
  1449  0EA2                     	;# 
  1450  0EA3                     	;# 
  1451  0EA4                     	;# 
  1452  0EA5                     	;# 
  1453  0F0F                     	;# 
  1454  0F10                     	;# 
  1455  0F11                     	;# 
  1456  0F12                     	;# 
  1457  0F13                     	;# 
  1458  0F14                     	;# 
  1459  0F15                     	;# 
  1460  0F16                     	;# 
  1461  0F17                     	;# 
  1462  0F18                     	;# 
  1463  0F19                     	;# 
  1464  0F1A                     	;# 
  1465  0F1B                     	;# 
  1466  0F1C                     	;# 
  1467  0F1D                     	;# 
  1468  0F1E                     	;# 
  1469  0F1F                     	;# 
  1470  0F20                     	;# 
  1471  0F21                     	;# 
  1472  0F22                     	;# 
  1473  0F23                     	;# 
  1474  0F24                     	;# 
  1475  0F25                     	;# 
  1476  0F26                     	;# 
  1477  0F27                     	;# 
  1478  0F28                     	;# 
  1479  0F29                     	;# 
  1480  0F2A                     	;# 
  1481  0F2B                     	;# 
  1482  0F2C                     	;# 
  1483  0F2D                     	;# 
  1484  0F9E                     	;# 
  1485  0FE4                     	;# 
  1486  0FE5                     	;# 
  1487  0FE6                     	;# 
  1488  0FE7                     	;# 
  1489  0FE8                     	;# 
  1490  0FE9                     	;# 
  1491  0FEA                     	;# 
  1492  0FEB                     	;# 
  1493  0FED                     	;# 
  1494  0FEE                     	;# 
  1495  0FEF                     	;# 
  1496  0000                     	;# 
  1497  0001                     	;# 
  1498  0002                     	;# 
  1499  0003                     	;# 
  1500  0004                     	;# 
  1501  0005                     	;# 
  1502  0006                     	;# 
  1503  0007                     	;# 
  1504  0008                     	;# 
  1505  0009                     	;# 
  1506  000A                     	;# 
  1507  000B                     	;# 
  1508  000C                     	;# 
  1509  000E                     	;# 
  1510  0011                     	;# 
  1511  0012                     	;# 
  1512  0013                     	;# 
  1513  0015                     	;# 
  1514  0016                     	;# 
  1515  0016                     	;# 
  1516  0017                     	;# 
  1517  0018                     	;# 
  1518  0019                     	;# 
  1519  001A                     	;# 
  1520  001B                     	;# 
  1521  001C                     	;# 
  1522  008C                     	;# 
  1523  008E                     	;# 
  1524  0091                     	;# 
  1525  0092                     	;# 
  1526  0093                     	;# 
  1527  0095                     	;# 
  1528  0096                     	;# 
  1529  0097                     	;# 
  1530  0098                     	;# 
  1531  0099                     	;# 
  1532  009A                     	;# 
  1533  009B                     	;# 
  1534  009B                     	;# 
  1535  009C                     	;# 
  1536  009D                     	;# 
  1537  009E                     	;# 
  1538  009F                     	;# 
  1539  010C                     	;# 
  1540  010E                     	;# 
  1541  0111                     	;# 
  1542  0112                     	;# 
  1543  0113                     	;# 
  1544  0114                     	;# 
  1545  0115                     	;# 
  1546  0116                     	;# 
  1547  0117                     	;# 
  1548  0118                     	;# 
  1549  0119                     	;# 
  1550  011C                     	;# 
  1551  018C                     	;# 
  1552  018E                     	;# 
  1553  0191                     	;# 
  1554  0191                     	;# 
  1555  0192                     	;# 
  1556  0193                     	;# 
  1557  0193                     	;# 
  1558  0194                     	;# 
  1559  0195                     	;# 
  1560  0196                     	;# 
  1561  0197                     	;# 
  1562  0199                     	;# 
  1563  0199                     	;# 
  1564  0199                     	;# 
  1565  019A                     	;# 
  1566  019A                     	;# 
  1567  019A                     	;# 
  1568  019B                     	;# 
  1569  019B                     	;# 
  1570  019B                     	;# 
  1571  019B                     	;# 
  1572  019B                     	;# 
  1573  019C                     	;# 
  1574  019C                     	;# 
  1575  019C                     	;# 
  1576  019D                     	;# 
  1577  019D                     	;# 
  1578  019D                     	;# 
  1579  019E                     	;# 
  1580  019E                     	;# 
  1581  019E                     	;# 
  1582  019F                     	;# 
  1583  019F                     	;# 
  1584  019F                     	;# 
  1585  019F                     	;# 
  1586  019F                     	;# 
  1587  020C                     	;# 
  1588  020E                     	;# 
  1589  0211                     	;# 
  1590  0211                     	;# 
  1591  0212                     	;# 
  1592  0212                     	;# 
  1593  0213                     	;# 
  1594  0213                     	;# 
  1595  0214                     	;# 
  1596  0214                     	;# 
  1597  0215                     	;# 
  1598  0215                     	;# 
  1599  0215                     	;# 
  1600  0215                     	;# 
  1601  0216                     	;# 
  1602  0216                     	;# 
  1603  0217                     	;# 
  1604  0217                     	;# 
  1605  028C                     	;# 
  1606  028E                     	;# 
  1607  0291                     	;# 
  1608  0291                     	;# 
  1609  0292                     	;# 
  1610  0293                     	;# 
  1611  0293                     	;# 
  1612  0298                     	;# 
  1613  0298                     	;# 
  1614  0299                     	;# 
  1615  029A                     	;# 
  1616  029A                     	;# 
  1617  029E                     	;# 
  1618  030C                     	;# 
  1619  030E                     	;# 
  1620  038C                     	;# 
  1621  038E                     	;# 
  1622  0391                     	;# 
  1623  0392                     	;# 
  1624  0393                     	;# 
  1625  0397                     	;# 
  1626  0398                     	;# 
  1627  0399                     	;# 
  1628  0415                     	;# 
  1629  0416                     	;# 
  1630  0417                     	;# 
  1631  041C                     	;# 
  1632  041D                     	;# 
  1633  041E                     	;# 
  1634  0511                     	;# 
  1635  0515                     	;# 
  1636  0617                     	;# 
  1637  0618                     	;# 
  1638  0619                     	;# 
  1639  0619                     	;# 
  1640  061A                     	;# 
  1641  061B                     	;# 
  1642  061C                     	;# 
  1643  061C                     	;# 
  1644  0691                     	;# 
  1645  0692                     	;# 
  1646  0693                     	;# 
  1647  0694                     	;# 
  1648  0695                     	;# 
  1649  0696                     	;# 
  1650  0697                     	;# 
  1651  0698                     	;# 
  1652  0699                     	;# 
  1653  069A                     	;# 
  1654  069B                     	;# 
  1655  069C                     	;# 
  1656  069D                     	;# 
  1657  069E                     	;# 
  1658  069F                     	;# 
  1659  0E0F                     	;# 
  1660  0E10                     	;# 
  1661  0E11                     	;# 
  1662  0E12                     	;# 
  1663  0E13                     	;# 
  1664  0E14                     	;# 
  1665  0E15                     	;# 
  1666  0E17                     	;# 
  1667  0E20                     	;# 
  1668  0E21                     	;# 
  1669  0E22                     	;# 
  1670  0E24                     	;# 
  1671  0E25                     	;# 
  1672  0E28                     	;# 
  1673  0E29                     	;# 
  1674  0E2A                     	;# 
  1675  0E2B                     	;# 
  1676  0E90                     	;# 
  1677  0E91                     	;# 
  1678  0E92                     	;# 
  1679  0E94                     	;# 
  1680  0E95                     	;# 
  1681  0EA0                     	;# 
  1682  0EA1                     	;# 
  1683  0EA2                     	;# 
  1684  0EA3                     	;# 
  1685  0EA4                     	;# 
  1686  0EA5                     	;# 
  1687  0F0F                     	;# 
  1688  0F10                     	;# 
  1689  0F11                     	;# 
  1690  0F12                     	;# 
  1691  0F13                     	;# 
  1692  0F14                     	;# 
  1693  0F15                     	;# 
  1694  0F16                     	;# 
  1695  0F17                     	;# 
  1696  0F18                     	;# 
  1697  0F19                     	;# 
  1698  0F1A                     	;# 
  1699  0F1B                     	;# 
  1700  0F1C                     	;# 
  1701  0F1D                     	;# 
  1702  0F1E                     	;# 
  1703  0F1F                     	;# 
  1704  0F20                     	;# 
  1705  0F21                     	;# 
  1706  0F22                     	;# 
  1707  0F23                     	;# 
  1708  0F24                     	;# 
  1709  0F25                     	;# 
  1710  0F26                     	;# 
  1711  0F27                     	;# 
  1712  0F28                     	;# 
  1713  0F29                     	;# 
  1714  0F2A                     	;# 
  1715  0F2B                     	;# 
  1716  0F2C                     	;# 
  1717  0F2D                     	;# 
  1718  0F9E                     	;# 
  1719  0FE4                     	;# 
  1720  0FE5                     	;# 
  1721  0FE6                     	;# 
  1722  0FE7                     	;# 
  1723  0FE8                     	;# 
  1724  0FE9                     	;# 
  1725  0FEA                     	;# 
  1726  0FEB                     	;# 
  1727  0FED                     	;# 
  1728  0FEE                     	;# 
  1729  0FEF                     	;# 
  1730  0000                     	;# 
  1731  0001                     	;# 
  1732  0002                     	;# 
  1733  0003                     	;# 
  1734  0004                     	;# 
  1735  0005                     	;# 
  1736  0006                     	;# 
  1737  0007                     	;# 
  1738  0008                     	;# 
  1739  0009                     	;# 
  1740  000A                     	;# 
  1741  000B                     	;# 
  1742  000C                     	;# 
  1743  000E                     	;# 
  1744  0011                     	;# 
  1745  0012                     	;# 
  1746  0013                     	;# 
  1747  0015                     	;# 
  1748  0016                     	;# 
  1749  0016                     	;# 
  1750  0017                     	;# 
  1751  0018                     	;# 
  1752  0019                     	;# 
  1753  001A                     	;# 
  1754  001B                     	;# 
  1755  001C                     	;# 
  1756  008C                     	;# 
  1757  008E                     	;# 
  1758  0091                     	;# 
  1759  0092                     	;# 
  1760  0093                     	;# 
  1761  0095                     	;# 
  1762  0096                     	;# 
  1763  0097                     	;# 
  1764  0098                     	;# 
  1765  0099                     	;# 
  1766  009A                     	;# 
  1767  009B                     	;# 
  1768  009B                     	;# 
  1769  009C                     	;# 
  1770  009D                     	;# 
  1771  009E                     	;# 
  1772  009F                     	;# 
  1773  010C                     	;# 
  1774  010E                     	;# 
  1775  0111                     	;# 
  1776  0112                     	;# 
  1777  0113                     	;# 
  1778  0114                     	;# 
  1779  0115                     	;# 
  1780  0116                     	;# 
  1781  0117                     	;# 
  1782  0118                     	;# 
  1783  0119                     	;# 
  1784  011C                     	;# 
  1785  018C                     	;# 
  1786  018E                     	;# 
  1787  0191                     	;# 
  1788  0191                     	;# 
  1789  0192                     	;# 
  1790  0193                     	;# 
  1791  0193                     	;# 
  1792  0194                     	;# 
  1793  0195                     	;# 
  1794  0196                     	;# 
  1795  0197                     	;# 
  1796  0199                     	;# 
  1797  0199                     	;# 
  1798  0199                     	;# 
  1799  019A                     	;# 
  1800  019A                     	;# 
  1801  019A                     	;# 
  1802  019B                     	;# 
  1803  019B                     	;# 
  1804  019B                     	;# 
  1805  019B                     	;# 
  1806  019B                     	;# 
  1807  019C                     	;# 
  1808  019C                     	;# 
  1809  019C                     	;# 
  1810  019D                     	;# 
  1811  019D                     	;# 
  1812  019D                     	;# 
  1813  019E                     	;# 
  1814  019E                     	;# 
  1815  019E                     	;# 
  1816  019F                     	;# 
  1817  019F                     	;# 
  1818  019F                     	;# 
  1819  019F                     	;# 
  1820  019F                     	;# 
  1821  020C                     	;# 
  1822  020E                     	;# 
  1823  0211                     	;# 
  1824  0211                     	;# 
  1825  0212                     	;# 
  1826  0212                     	;# 
  1827  0213                     	;# 
  1828  0213                     	;# 
  1829  0214                     	;# 
  1830  0214                     	;# 
  1831  0215                     	;# 
  1832  0215                     	;# 
  1833  0215                     	;# 
  1834  0215                     	;# 
  1835  0216                     	;# 
  1836  0216                     	;# 
  1837  0217                     	;# 
  1838  0217                     	;# 
  1839  028C                     	;# 
  1840  028E                     	;# 
  1841  0291                     	;# 
  1842  0291                     	;# 
  1843  0292                     	;# 
  1844  0293                     	;# 
  1845  0293                     	;# 
  1846  0298                     	;# 
  1847  0298                     	;# 
  1848  0299                     	;# 
  1849  029A                     	;# 
  1850  029A                     	;# 
  1851  029E                     	;# 
  1852  030C                     	;# 
  1853  030E                     	;# 
  1854  038C                     	;# 
  1855  038E                     	;# 
  1856  0391                     	;# 
  1857  0392                     	;# 
  1858  0393                     	;# 
  1859  0397                     	;# 
  1860  0398                     	;# 
  1861  0399                     	;# 
  1862  0415                     	;# 
  1863  0416                     	;# 
  1864  0417                     	;# 
  1865  041C                     	;# 
  1866  041D                     	;# 
  1867  041E                     	;# 
  1868  0511                     	;# 
  1869  0515                     	;# 
  1870  0617                     	;# 
  1871  0618                     	;# 
  1872  0619                     	;# 
  1873  0619                     	;# 
  1874  061A                     	;# 
  1875  061B                     	;# 
  1876  061C                     	;# 
  1877  061C                     	;# 
  1878  0691                     	;# 
  1879  0692                     	;# 
  1880  0693                     	;# 
  1881  0694                     	;# 
  1882  0695                     	;# 
  1883  0696                     	;# 
  1884  0697                     	;# 
  1885  0698                     	;# 
  1886  0699                     	;# 
  1887  069A                     	;# 
  1888  069B                     	;# 
  1889  069C                     	;# 
  1890  069D                     	;# 
  1891  069E                     	;# 
  1892  069F                     	;# 
  1893  0E0F                     	;# 
  1894  0E10                     	;# 
  1895  0E11                     	;# 
  1896  0E12                     	;# 
  1897  0E13                     	;# 
  1898  0E14                     	;# 
  1899  0E15                     	;# 
  1900  0E17                     	;# 
  1901  0E20                     	;# 
  1902  0E21                     	;# 
  1903  0E22                     	;# 
  1904  0E24                     	;# 
  1905  0E25                     	;# 
  1906  0E28                     	;# 
  1907  0E29                     	;# 
  1908  0E2A                     	;# 
  1909  0E2B                     	;# 
  1910  0E90                     	;# 
  1911  0E91                     	;# 
  1912  0E92                     	;# 
  1913  0E94                     	;# 
  1914  0E95                     	;# 
  1915  0EA0                     	;# 
  1916  0EA1                     	;# 
  1917  0EA2                     	;# 
  1918  0EA3                     	;# 
  1919  0EA4                     	;# 
  1920  0EA5                     	;# 
  1921  0F0F                     	;# 
  1922  0F10                     	;# 
  1923  0F11                     	;# 
  1924  0F12                     	;# 
  1925  0F13                     	;# 
  1926  0F14                     	;# 
  1927  0F15                     	;# 
  1928  0F16                     	;# 
  1929  0F17                     	;# 
  1930  0F18                     	;# 
  1931  0F19                     	;# 
  1932  0F1A                     	;# 
  1933  0F1B                     	;# 
  1934  0F1C                     	;# 
  1935  0F1D                     	;# 
  1936  0F1E                     	;# 
  1937  0F1F                     	;# 
  1938  0F20                     	;# 
  1939  0F21                     	;# 
  1940  0F22                     	;# 
  1941  0F23                     	;# 
  1942  0F24                     	;# 
  1943  0F25                     	;# 
  1944  0F26                     	;# 
  1945  0F27                     	;# 
  1946  0F28                     	;# 
  1947  0F29                     	;# 
  1948  0F2A                     	;# 
  1949  0F2B                     	;# 
  1950  0F2C                     	;# 
  1951  0F2D                     	;# 
  1952  0F9E                     	;# 
  1953  0FE4                     	;# 
  1954  0FE5                     	;# 
  1955  0FE6                     	;# 
  1956  0FE7                     	;# 
  1957  0FE8                     	;# 
  1958  0FE9                     	;# 
  1959  0FEA                     	;# 
  1960  0FEB                     	;# 
  1961  0FED                     	;# 
  1962  0FEE                     	;# 
  1963  0FEF                     	;# 
  1964                           
  1965                           	psect	stringtext1
  1966  1000                     __pstringtext1:
  1967  1000                     _dpowers:
  1968  1000  3401               	retlw	1
  1969  1001  3400               	retlw	0
  1970  1002  340A               	retlw	10
  1971  1003  3400               	retlw	0
  1972  1004  3464               	retlw	100
  1973  1005  3400               	retlw	0
  1974  1006  34E8               	retlw	232
  1975  1007  3403               	retlw	3
  1976  1008  3410               	retlw	16
  1977  1009  3427               	retlw	39
  1978  100A                     __end_of_dpowers:
  1979                           
  1980                           	psect	nvBANK0
  1981  006E                     __pnvBANK0:
  1982  006E                     _eusartTxBufferRemaining:
  1983  006E                     	ds	1
  1984                           
  1985                           	psect	nvBANK1
  1986  00D2                     __pnvBANK1:
  1987  00D2                     _EUSART_ErrorHandler:
  1988  00D2                     	ds	2
  1989  00D4                     _EUSART_OverrunErrorHandler:
  1990  00D4                     	ds	2
  1991  00D6                     _EUSART_FramingErrorHandler:
  1992  00D6                     	ds	2
  1993  00D8                     _EUSART_RxDefaultInterruptHandler:
  1994  00D8                     	ds	2
  1995  00DA                     _EUSART_TxDefaultInterruptHandler:
  1996  00DA                     	ds	2
  1997  00DC                     _TMR2_InterruptHandler:
  1998  00DC                     	ds	2
  1999  000B                     _INTCONbits	set	11
  2000  001C                     _T2CONbits	set	28
  2001  001C                     _T2CON	set	28
  2002  0011                     _PIR1bits	set	17
  2003  001A                     _TMR2	set	26
  2004  001B                     _PR2	set	27
  2005  009D                     _ADCON0bits	set	157
  2006  009D                     _ADCON0	set	157
  2007  009C                     _ADRESH	set	156
  2008  009B                     _ADRESL	set	155
  2009  009F                     _ADCON2	set	159
  2010  009E                     _ADCON1	set	158
  2011  0097                     _WDTCON	set	151
  2012  0098                     _OSCTUNE	set	152
  2013  009A                     _OSCSTAT	set	154
  2014  0099                     _OSCCON	set	153
  2015  0091                     _PIE1bits	set	145
  2016  0095                     _OPTION_REGbits	set	149
  2017  008E                     _TRISC	set	142
  2018  008C                     _TRISA	set	140
  2019  0116                     _BORCON	set	278
  2020  010E                     _LATC	set	270
  2021  010C                     _LATA	set	268
  2022  019D                     _RCSTAbits	set	413
  2023  019E                     _TXSTAbits	set	414
  2024  0199                     _RC1REG	set	409
  2025  019D                     _RC1STAbits	set	413
  2026  019A                     _TX1REG	set	410
  2027  019E                     _TX1STAbits	set	414
  2028  019C                     _SP1BRGH	set	412
  2029  019B                     _SP1BRGL	set	411
  2030  019E                     _TX1STA	set	414
  2031  019D                     _RC1STA	set	413
  2032  019F                     _BAUD1CON	set	415
  2033  018C                     _ANSELA	set	396
  2034  018E                     _ANSELC	set	398
  2035  020E                     _WPUC	set	526
  2036  020C                     _WPUA	set	524
  2037  029E                     _CCPTMRSbits	set	670
  2038  0292                     _CCPR1H	set	658
  2039  0291                     _CCPR1L	set	657
  2040  0293                     _CCP1CON	set	659
  2041  028E                     _ODCONC	set	654
  2042  028C                     _ODCONA	set	652
  2043  030E                     _SLRCONC	set	782
  2044  030C                     _SLRCONA	set	780
  2045  038E                     _INLVLC	set	910
  2046  038C                     _INLVLA	set	908
  2047  0E24                     _RXPPS	set	3620
  2048  0EA4                     _RC4PPS	set	3748
  2049  0EA1                     _RC1PPS	set	3745
  2050                           
  2051                           	psect	stringtext2
  2052  100A                     __pstringtext2:
  2053  100A                     STR_1:
  2054  100A  3425               	retlw	37	;'%'
  2055  100B  3464               	retlw	100	;'d'
  2056  100C  342C               	retlw	44	;','
  2057  100D  3420               	retlw	32	;' '
  2058  100E  3425               	retlw	37	;'%'
  2059  100F  3464               	retlw	100	;'d'
  2060  1010  340D               	retlw	13
  2061  1011  340A               	retlw	10
  2062  1012  3400               	retlw	0
  2063                           
  2064                           	psect	stringtext3
  2065  0000                     __pstringtext3:
  2066                           
  2067                           	psect	cinit
  2068  003E                     start_initialization:	
  2069                           ; #config settings
  2070                           
  2071  003E                     __initialization:
  2072                           
  2073                           ; Clear objects allocated to COMMON
  2074  003E  01FC               	clrf	__pbssCOMMON& (0+127)
  2075                           
  2076                           ; Clear objects allocated to BANK0
  2077  003F  0020               	movlb	0	; select bank0
  2078  0040  01E9               	clrf	__pbssBANK0& (0+127)
  2079  0041  01EA               	clrf	(__pbssBANK0+1)& (0+127)
  2080  0042  01EB               	clrf	(__pbssBANK0+2)& (0+127)
  2081  0043  01EC               	clrf	(__pbssBANK0+3)& (0+127)
  2082  0044  01ED               	clrf	(__pbssBANK0+4)& (0+127)
  2083                           
  2084                           ; Clear objects allocated to BANK1
  2085  0045  30A0               	movlw	low __pbssBANK1
  2086  0046  0084               	movwf	4
  2087  0047  3000               	movlw	high __pbssBANK1
  2088  0048  0085               	movwf	5
  2089  0049  301A               	movlw	26
  2090  004A  3187  27F9  3180   	fcall	clear_ram0
  2091  004D                     end_of_initialization:	
  2092                           ;End of C runtime variable initialization code
  2093                           
  2094  004D                     __end_of__initialization:
  2095  004D  107E               	bcf	int$flags,0	;clear compiler interrupt flag (level 1)
  2096  004E  0020               	movlb	0
  2097  004F  3187  2F57         	ljmp	_main	;jump to C main() function
  2098                           
  2099                           	psect	bssCOMMON
  2100  007C                     __pbssCOMMON:
  2101  007C                     _eusartRxHead:
  2102  007C                     	ds	1
  2103                           
  2104                           	psect	bssBANK0
  2105  0069                     __pbssBANK0:
  2106  0069                     _eusartRxLastError:
  2107  0069                     	ds	1
  2108  006A                     _eusartRxCount:
  2109  006A                     	ds	1
  2110  006B                     _eusartRxTail:
  2111  006B                     	ds	1
  2112  006C                     _eusartTxTail:
  2113  006C                     	ds	1
  2114  006D                     _eusartTxHead:
  2115  006D                     	ds	1
  2116                           
  2117                           	psect	bssBANK1
  2118  00A0                     __pbssBANK1:
  2119  00A0                     _eusartRxStatusBuffer:
  2120  00A0                     	ds	8
  2121  00A8                     _eusartRxBuffer:
  2122  00A8                     	ds	8
  2123  00B0                     _eusartTxBuffer:
  2124  00B0                     	ds	8
  2125  00B8                     _ADC_InterruptHandler:
  2126  00B8                     	ds	2
  2127                           
  2128                           	psect	clrtext
  2129  07F9                     clear_ram0:	
  2130                           ;	Called with FSR0 containing the base address, and
  2131                           ;	WREG with the size to clear
  2132                           
  2133  07F9  0064               	clrwdt	;clear the watchdog before getting into this loop
  2134  07FA                     clrloop0:
  2135  07FA  0180               	clrf	0	;clear RAM location pointed to by FSR
  2136  07FB  3101               	addfsr 0,1
  2137  07FC  0B89               	decfsz	9,f	;Have we reached the end of clearing yet?
  2138  07FD  2FFA               	goto	clrloop0	;have we reached the end yet?
  2139  07FE  3400               	retlw	0	;all done for this memory range, return
  2140                           
  2141                           	psect	cstackBANK1
  2142  00BA                     __pcstackBANK1:
  2143  00BA                     map@percentage:
  2144                           
  2145                           ; 4 bytes @ 0x0
  2146  00BA                     	ds	4
  2147  00BE                     map@input_diff:
  2148                           
  2149                           ; 2 bytes @ 0x4
  2150  00BE                     	ds	2
  2151  00C0                     map@input_range:
  2152                           
  2153                           ; 2 bytes @ 0x6
  2154  00C0                     	ds	2
  2155  00C2                     map@output_range:
  2156                           
  2157                           ; 2 bytes @ 0x8
  2158  00C2                     	ds	2
  2159  00C4                     map@out_diff:
  2160                           
  2161                           ; 2 bytes @ 0xA
  2162  00C4                     	ds	2
  2163  00C6                     main@delay:
  2164                           
  2165                           ; 2 bytes @ 0xC
  2166  00C6                     	ds	2
  2167  00C8                     main@delayMin:
  2168                           
  2169                           ; 2 bytes @ 0xE
  2170  00C8                     	ds	2
  2171  00CA                     main@delayMax:
  2172                           
  2173                           ; 2 bytes @ 0x10
  2174  00CA                     	ds	2
  2175  00CC                     main@minLimit:
  2176                           
  2177                           ; 2 bytes @ 0x12
  2178  00CC                     	ds	2
  2179  00CE                     main@maxLimit:
  2180                           
  2181                           ; 2 bytes @ 0x14
  2182  00CE                     	ds	2
  2183  00D0                     main@val:
  2184                           
  2185                           ; 2 bytes @ 0x16
  2186  00D0                     	ds	2
  2187                           
  2188                           	psect	cstackCOMMON
  2189  0070                     __pcstackCOMMON:
  2190  0070                     ?_TMR2_DefaultInterruptHandler:
  2191  0070                     ??_TMR2_DefaultInterruptHandler:	
  2192                           ; 1 bytes @ 0x0
  2193                           
  2194  0070                     ?_TMR2_CallBack:	
  2195                           ; 1 bytes @ 0x0
  2196                           
  2197  0070                     ??_TMR2_CallBack:	
  2198                           ; 1 bytes @ 0x0
  2199                           
  2200  0070                     ?_OSCILLATOR_Initialize:	
  2201                           ; 1 bytes @ 0x0
  2202                           
  2203  0070                     ?_WDT_Initialize:	
  2204                           ; 1 bytes @ 0x0
  2205                           
  2206  0070                     ?_ADC_Initialize:	
  2207                           ; 1 bytes @ 0x0
  2208                           
  2209  0070                     ?_EUSART_Initialize:	
  2210                           ; 1 bytes @ 0x0
  2211                           
  2212  0070                     ?_EUSART_Receive_ISR:	
  2213                           ; 1 bytes @ 0x0
  2214                           
  2215  0070                     ?_EUSART_Transmit_ISR:	
  2216                           ; 1 bytes @ 0x0
  2217                           
  2218  0070                     ??_EUSART_Transmit_ISR:	
  2219                           ; 1 bytes @ 0x0
  2220                           
  2221  0070                     ?_EUSART_DefaultFramingErrorHandler:	
  2222                           ; 1 bytes @ 0x0
  2223                           
  2224  0070                     ??_EUSART_DefaultFramingErrorHandler:	
  2225                           ; 1 bytes @ 0x0
  2226                           
  2227  0070                     ?_EUSART_DefaultOverrunErrorHandler:	
  2228                           ; 1 bytes @ 0x0
  2229                           
  2230  0070                     ??_EUSART_DefaultOverrunErrorHandler:	
  2231                           ; 1 bytes @ 0x0
  2232                           
  2233  0070                     ?_EUSART_DefaultErrorHandler:	
  2234                           ; 1 bytes @ 0x0
  2235                           
  2236  0070                     ?_EUSART_RxDataHandler:	
  2237                           ; 1 bytes @ 0x0
  2238                           
  2239  0070                     ??_EUSART_RxDataHandler:	
  2240                           ; 1 bytes @ 0x0
  2241                           
  2242  0070                     ?_PIN_MANAGER_Initialize:	
  2243                           ; 1 bytes @ 0x0
  2244                           
  2245  0070                     ?_PWM1_Initialize:	
  2246                           ; 1 bytes @ 0x0
  2247                           
  2248  0070                     ?_TMR2_Initialize:	
  2249                           ; 1 bytes @ 0x0
  2250                           
  2251  0070                     ?_TMR2_ISR:	
  2252                           ; 1 bytes @ 0x0
  2253                           
  2254  0070                     ??_TMR2_ISR:	
  2255                           ; 1 bytes @ 0x0
  2256                           
  2257  0070                     ?_SYSTEM_Initialize:	
  2258                           ; 1 bytes @ 0x0
  2259                           
  2260  0070                     ?_EUSART_Write:	
  2261                           ; 1 bytes @ 0x0
  2262                           
  2263  0070                     ?_putch:	
  2264                           ; 1 bytes @ 0x0
  2265                           
  2266  0070                     ?_INTERRUPT_InterruptManager:	
  2267                           ; 1 bytes @ 0x0
  2268                           
  2269  0070                     ?_main:	
  2270                           ; 1 bytes @ 0x0
  2271                           
  2272                           
  2273                           ; 1 bytes @ 0x0
  2274  0070                     	ds	1
  2275  0071                     ?_TMR2_SetInterruptHandler:
  2276  0071                     ??_OSCILLATOR_Initialize:	
  2277                           ; 1 bytes @ 0x1
  2278                           
  2279  0071                     ??_WDT_Initialize:	
  2280                           ; 1 bytes @ 0x1
  2281                           
  2282  0071                     ??_ADC_Initialize:	
  2283                           ; 1 bytes @ 0x1
  2284                           
  2285  0071                     ?_EUSART_SetRxInterruptHandler:	
  2286                           ; 1 bytes @ 0x1
  2287                           
  2288  0071                     ??_EUSART_Receive_ISR:	
  2289                           ; 1 bytes @ 0x1
  2290                           
  2291  0071                     ?_EUSART_SetTxInterruptHandler:	
  2292                           ; 1 bytes @ 0x1
  2293                           
  2294  0071                     ?_EUSART_SetFramingErrorHandler:	
  2295                           ; 1 bytes @ 0x1
  2296                           
  2297  0071                     ?_EUSART_SetOverrunErrorHandler:	
  2298                           ; 1 bytes @ 0x1
  2299                           
  2300  0071                     ?_EUSART_SetErrorHandler:	
  2301                           ; 1 bytes @ 0x1
  2302                           
  2303  0071                     ??_EUSART_DefaultErrorHandler:	
  2304                           ; 1 bytes @ 0x1
  2305                           
  2306  0071                     ??_PIN_MANAGER_Initialize:	
  2307                           ; 1 bytes @ 0x1
  2308                           
  2309  0071                     ??_PWM1_Initialize:	
  2310                           ; 1 bytes @ 0x1
  2311                           
  2312  0071                     ??_EUSART_Write:	
  2313                           ; 1 bytes @ 0x1
  2314                           
  2315  0071                     ??_INTERRUPT_InterruptManager:	
  2316                           ; 1 bytes @ 0x1
  2317                           
  2318  0071                     ?__Umul8_16:	
  2319                           ; 1 bytes @ 0x1
  2320                           
  2321  0071                     ?_ADC_GetConversion:	
  2322                           ; 2 bytes @ 0x1
  2323                           
  2324  0071                     ?___lwdiv:	
  2325                           ; 2 bytes @ 0x1
  2326                           
  2327  0071                     ?___xxtofl:	
  2328                           ; 2 bytes @ 0x1
  2329                           
  2330  0071                     __Umul8_16@multiplicand:	
  2331                           ; 4 bytes @ 0x1
  2332                           
  2333  0071                     TMR2_SetInterruptHandler@InterruptHandler:	
  2334                           ; 1 bytes @ 0x1
  2335                           
  2336  0071                     EUSART_SetFramingErrorHandler@interruptHandler:	
  2337                           ; 2 bytes @ 0x1
  2338                           
  2339  0071                     EUSART_SetOverrunErrorHandler@interruptHandler:	
  2340                           ; 2 bytes @ 0x1
  2341                           
  2342  0071                     EUSART_SetErrorHandler@interruptHandler:	
  2343                           ; 2 bytes @ 0x1
  2344                           
  2345  0071                     EUSART_SetTxInterruptHandler@interruptHandler:	
  2346                           ; 2 bytes @ 0x1
  2347                           
  2348  0071                     EUSART_SetRxInterruptHandler@interruptHandler:	
  2349                           ; 2 bytes @ 0x1
  2350                           
  2351  0071                     ___lwdiv@divisor:	
  2352                           ; 2 bytes @ 0x1
  2353                           
  2354  0071                     ___xxtofl@val:	
  2355                           ; 2 bytes @ 0x1
  2356                           
  2357                           
  2358                           ; 4 bytes @ 0x1
  2359  0071                     	ds	1
  2360  0072                     EUSART_Write@txData:
  2361                           
  2362                           ; 1 bytes @ 0x2
  2363  0072                     	ds	1
  2364  0073                     ??_TMR2_SetInterruptHandler:
  2365  0073                     ??_EUSART_Initialize:	
  2366                           ; 1 bytes @ 0x3
  2367                           
  2368  0073                     ??_EUSART_SetRxInterruptHandler:	
  2369                           ; 1 bytes @ 0x3
  2370                           
  2371  0073                     ??_EUSART_SetTxInterruptHandler:	
  2372                           ; 1 bytes @ 0x3
  2373                           
  2374  0073                     ??_EUSART_SetFramingErrorHandler:	
  2375                           ; 1 bytes @ 0x3
  2376                           
  2377  0073                     ??_EUSART_SetOverrunErrorHandler:	
  2378                           ; 1 bytes @ 0x3
  2379                           
  2380  0073                     ??_EUSART_SetErrorHandler:	
  2381                           ; 1 bytes @ 0x3
  2382                           
  2383  0073                     ??__Umul8_16:	
  2384                           ; 1 bytes @ 0x3
  2385                           
  2386  0073                     ??_TMR2_Initialize:	
  2387                           ; 1 bytes @ 0x3
  2388                           
  2389  0073                     ??_ADC_GetConversion:	
  2390                           ; 1 bytes @ 0x3
  2391                           
  2392  0073                     ??_putch:	
  2393                           ; 1 bytes @ 0x3
  2394                           
  2395  0073                     putch@txData:	
  2396                           ; 1 bytes @ 0x3
  2397                           
  2398  0073                     ___lwdiv@dividend:	
  2399                           ; 1 bytes @ 0x3
  2400                           
  2401                           
  2402                           ; 2 bytes @ 0x3
  2403  0073                     	ds	1
  2404  0074                     ??_SYSTEM_Initialize:
  2405  0074                     ADC_GetConversion@channel:	
  2406                           ; 1 bytes @ 0x4
  2407                           
  2408                           
  2409                           ; 1 bytes @ 0x4
  2410  0074                     	ds	1
  2411  0075                     ??___lwdiv:
  2412  0075                     ??___xxtofl:	
  2413                           ; 1 bytes @ 0x5
  2414                           
  2415  0075                     __Umul8_16@product:	
  2416                           ; 1 bytes @ 0x5
  2417                           
  2418                           
  2419                           ; 2 bytes @ 0x5
  2420  0075                     	ds	1
  2421  0076                     ___lwdiv@quotient:
  2422                           
  2423                           ; 2 bytes @ 0x6
  2424  0076                     	ds	1
  2425  0077                     __Umul8_16@word_mpld:
  2426                           
  2427                           ; 2 bytes @ 0x7
  2428  0077                     	ds	1
  2429  0078                     ___lwdiv@counter:
  2430                           
  2431                           ; 1 bytes @ 0x8
  2432  0078                     	ds	1
  2433  0079                     ??___lwmod:
  2434  0079                     __Umul8_16@multiplier:	
  2435                           ; 1 bytes @ 0x9
  2436                           
  2437                           
  2438                           ; 1 bytes @ 0x9
  2439  0079                     	ds	1
  2440  007A                     ___fltol@sign1:
  2441  007A                     ___lwmod@counter:	
  2442                           ; 1 bytes @ 0xA
  2443                           
  2444                           
  2445                           ; 1 bytes @ 0xA
  2446  007A                     	ds	1
  2447  007B                     ___fltol@exp1:
  2448                           
  2449                           ; 1 bytes @ 0xB
  2450  007B                     	ds	1
  2451  007C                     ??_map:
  2452                           
  2453                           	psect	cstackBANK0
  2454  0020                     __pcstackBANK0:	
  2455                           ; 1 bytes @ 0xC
  2456                           
  2457  0020                     ?___lwmod:
  2458  0020                     ___xxtofl@sign:	
  2459                           ; 2 bytes @ 0x0
  2460                           
  2461  0020                     ___lwmod@divisor:	
  2462                           ; 1 bytes @ 0x0
  2463                           
  2464                           
  2465                           ; 2 bytes @ 0x0
  2466  0020                     	ds	1
  2467  0021                     ___xxtofl@exp:
  2468                           
  2469                           ; 1 bytes @ 0x1
  2470  0021                     	ds	1
  2471  0022                     ___lwmod@dividend:
  2472  0022                     ___xxtofl@arg:	
  2473                           ; 2 bytes @ 0x2
  2474                           
  2475                           
  2476                           ; 4 bytes @ 0x2
  2477  0022                     	ds	2
  2478  0024                     ?_printf:
  2479  0024                     printf@f:	
  2480                           ; 2 bytes @ 0x4
  2481                           
  2482                           
  2483                           ; 2 bytes @ 0x4
  2484  0024                     	ds	2
  2485  0026                     ?___fldiv:
  2486  0026                     ?___flmul:	
  2487                           ; 4 bytes @ 0x6
  2488                           
  2489  0026                     ___fldiv@a:	
  2490                           ; 4 bytes @ 0x6
  2491                           
  2492  0026                     ___flmul@b:	
  2493                           ; 4 bytes @ 0x6
  2494                           
  2495                           
  2496                           ; 4 bytes @ 0x6
  2497  0026                     	ds	4
  2498  002A                     ??_printf:
  2499  002A                     ___fldiv@b:	
  2500                           ; 1 bytes @ 0xA
  2501                           
  2502  002A                     ___flmul@a:	
  2503                           ; 4 bytes @ 0xA
  2504                           
  2505                           
  2506                           ; 4 bytes @ 0xA
  2507  002A                     	ds	4
  2508  002E                     ??___fldiv:
  2509  002E                     ??___flmul:	
  2510                           ; 1 bytes @ 0xE
  2511                           
  2512  002E                     printf@ap:	
  2513                           ; 1 bytes @ 0xE
  2514                           
  2515                           
  2516                           ; 1 bytes @ 0xE
  2517  002E                     	ds	1
  2518  002F                     printf@flag:
  2519                           
  2520                           ; 1 bytes @ 0xF
  2521  002F                     	ds	1
  2522  0030                     printf@prec:
  2523                           
  2524                           ; 1 bytes @ 0x10
  2525  0030                     	ds	1
  2526  0031                     printf@val:
  2527                           
  2528                           ; 2 bytes @ 0x11
  2529  0031                     	ds	2
  2530  0033                     printf@c:
  2531  0033                     ___flmul@sign:	
  2532                           ; 1 bytes @ 0x13
  2533                           
  2534  0033                     ___fldiv@rem:	
  2535                           ; 1 bytes @ 0x13
  2536                           
  2537                           
  2538                           ; 4 bytes @ 0x13
  2539  0033                     	ds	1
  2540  0034                     ___flmul@grs:
  2541                           
  2542                           ; 4 bytes @ 0x14
  2543  0034                     	ds	3
  2544  0037                     ___fldiv@sign:
  2545                           
  2546                           ; 1 bytes @ 0x17
  2547  0037                     	ds	1
  2548  0038                     ___flmul@aexp:
  2549  0038                     ___fldiv@new_exp:	
  2550                           ; 1 bytes @ 0x18
  2551                           
  2552                           
  2553                           ; 2 bytes @ 0x18
  2554  0038                     	ds	1
  2555  0039                     ___flmul@bexp:
  2556                           
  2557                           ; 1 bytes @ 0x19
  2558  0039                     	ds	1
  2559  003A                     ___fldiv@grs:
  2560  003A                     ___flmul@prod:	
  2561                           ; 4 bytes @ 0x1A
  2562                           
  2563                           
  2564                           ; 4 bytes @ 0x1A
  2565  003A                     	ds	4
  2566  003E                     ___fldiv@bexp:
  2567  003E                     ___flmul@temp:	
  2568                           ; 1 bytes @ 0x1E
  2569                           
  2570                           
  2571                           ; 2 bytes @ 0x1E
  2572  003E                     	ds	1
  2573  003F                     ___fldiv@aexp:
  2574                           
  2575                           ; 1 bytes @ 0x1F
  2576  003F                     	ds	1
  2577  0040                     ?___fladd:
  2578  0040                     ___fladd@b:	
  2579                           ; 4 bytes @ 0x20
  2580                           
  2581                           
  2582                           ; 4 bytes @ 0x20
  2583  0040                     	ds	4
  2584  0044                     ___fladd@a:
  2585                           
  2586                           ; 4 bytes @ 0x24
  2587  0044                     	ds	4
  2588  0048                     ??___fladd:
  2589                           
  2590                           ; 1 bytes @ 0x28
  2591  0048                     	ds	8
  2592  0050                     ___fladd@signs:
  2593                           
  2594                           ; 1 bytes @ 0x30
  2595  0050                     	ds	1
  2596  0051                     ___fladd@aexp:
  2597                           
  2598                           ; 1 bytes @ 0x31
  2599  0051                     	ds	1
  2600  0052                     ___fladd@bexp:
  2601                           
  2602                           ; 1 bytes @ 0x32
  2603  0052                     	ds	1
  2604  0053                     ___fladd@grs:
  2605                           
  2606                           ; 1 bytes @ 0x33
  2607  0053                     	ds	1
  2608  0054                     ?___fltol:
  2609  0054                     ___fltol@f1:	
  2610                           ; 4 bytes @ 0x34
  2611                           
  2612                           
  2613                           ; 4 bytes @ 0x34
  2614  0054                     	ds	4
  2615  0058                     ??___fltol:
  2616                           
  2617                           ; 1 bytes @ 0x38
  2618  0058                     	ds	5
  2619  005D                     ?_map:
  2620  005D                     map@target_num:	
  2621                           ; 2 bytes @ 0x3D
  2622                           
  2623                           
  2624                           ; 2 bytes @ 0x3D
  2625  005D                     	ds	2
  2626  005F                     map@in_min:
  2627                           
  2628                           ; 2 bytes @ 0x3F
  2629  005F                     	ds	2
  2630  0061                     map@in_max:
  2631                           
  2632                           ; 2 bytes @ 0x41
  2633  0061                     	ds	2
  2634  0063                     map@out_min:
  2635                           
  2636                           ; 2 bytes @ 0x43
  2637  0063                     	ds	2
  2638  0065                     map@out_max:
  2639                           
  2640                           ; 2 bytes @ 0x45
  2641  0065                     	ds	2
  2642  0067                     ??_main:
  2643                           
  2644                           ; 1 bytes @ 0x47
  2645  0067                     	ds	2
  2646                           
  2647                           	psect	maintext
  2648  0757                     __pmaintext:	
  2649 ;;
  2650 ;;Main: autosize = 0, tempsize = 2, incstack = 0, save=0
  2651 ;;
  2652 ;; *************** function _main *****************
  2653 ;; Defined at:
  2654 ;;		line 66 in file "main.c"
  2655 ;; Parameters:    Size  Location     Type
  2656 ;;		None
  2657 ;; Auto vars:     Size  Location     Type
  2658 ;;  val             2   22[BANK1 ] unsigned int 
  2659 ;;  maxLimit        2   20[BANK1 ] unsigned int 
  2660 ;;  minLimit        2   18[BANK1 ] unsigned int 
  2661 ;;  delayMax        2   16[BANK1 ] unsigned int 
  2662 ;;  delayMin        2   14[BANK1 ] unsigned int 
  2663 ;;  delay           2   12[BANK1 ] unsigned int 
  2664 ;; Return value:  Size  Location     Type
  2665 ;;                  1    wreg      void 
  2666 ;; Registers used:
  2667 ;;		wreg, fsr0l, fsr0h, fsr1l, fsr1h, status,2, status,0, pclath, cstack
  2668 ;; Tracked objects:
  2669 ;;		On entry : B1F/0
  2670 ;;		On exit  : 0/0
  2671 ;;		Unchanged: 0/0
  2672 ;; Data sizes:     COMMON   BANK0   BANK1   BANK2   BANK3   BANK4   BANK5   BANK6   BANK7   BANK8   BANK9  BANK10  BANK1
      +1  BANK12
  2673 ;;      Params:         0       0       0       0       0       0       0       0       0       0       0       0       
      +0       0
  2674 ;;      Locals:         0       0      12       0       0       0       0       0       0       0       0       0       
      +0       0
  2675 ;;      Temps:          0       2       0       0       0       0       0       0       0       0       0       0       
      +0       0
  2676 ;;      Totals:         0       2      12       0       0       0       0       0       0       0       0       0       
      +0       0
  2677 ;;Total ram usage:       14 bytes
  2678 ;; Hardware stack levels required when called:    7
  2679 ;; This function calls:
  2680 ;;		_ADC_GetConversion
  2681 ;;		_SYSTEM_Initialize
  2682 ;;		_map
  2683 ;;		_printf
  2684 ;; This function is called by:
  2685 ;;		Startup code after reset
  2686 ;; This function uses a non-reentrant model
  2687 ;;
  2688                           
  2689                           
  2690                           ;psect for function _main
  2691  0757                     _main:
  2692  0757                     l2984:	
  2693                           ;incstack = 0
  2694                           ; Regs used in _main: [wreg-fsr1h+status,2+status,0+pclath+cstack]
  2695                           
  2696                           
  2697                           ;main.c: 68: TXSTAbits.TXEN = 1;
  2698  0757  0023               	movlb	3	; select bank3
  2699  0758  169E               	bsf	30,5	;volatile
  2700                           
  2701                           ;main.c: 69: RCSTAbits.SPEN = 1;
  2702  0759  179D               	bsf	29,7	;volatile
  2703  075A                     l2986:
  2704                           
  2705                           ;main.c: 72: SYSTEM_Initialize();
  2706  075A  318C  245C  3187   	fcall	_SYSTEM_Initialize
  2707  075D                     l2988:
  2708                           
  2709                           ;main.c: 79: (INTCONbits.GIE = 1);
  2710  075D  178B               	bsf	11,7	;volatile
  2711  075E                     l2990:
  2712                           
  2713                           ;main.c: 82: (INTCONbits.PEIE = 1);
  2714  075E  170B               	bsf	11,6	;volatile
  2715  075F                     l2992:
  2716                           
  2717                           ;main.c: 90: adc_result_t val;;main.c: 91: unsigned int minLimit = 90;
  2718  075F  305A               	movlw	90
  2719  0760  0021               	movlb	1	; select bank1
  2720  0761  00CC               	movwf	main@minLimit^(0+128)
  2721  0762  3000               	movlw	0
  2722  0763  00CD               	movwf	(main@minLimit^(0+128)+1)
  2723  0764                     l2994:
  2724                           
  2725                           ;main.c: 92: unsigned int maxLimit = 150;
  2726  0764  3096               	movlw	150
  2727  0765  00CE               	movwf	main@maxLimit^(0+128)
  2728  0766  3000               	movlw	0
  2729  0767  00CF               	movwf	(main@maxLimit^(0+128)+1)
  2730  0768                     l2996:
  2731                           
  2732                           ;main.c: 94: unsigned int delayMin = 50;
  2733  0768  3032               	movlw	50
  2734  0769  00C8               	movwf	main@delayMin^(0+128)
  2735  076A  3000               	movlw	0
  2736  076B  00C9               	movwf	(main@delayMin^(0+128)+1)
  2737  076C                     l2998:
  2738                           
  2739                           ;main.c: 95: unsigned int delayMax = 1000;
  2740  076C  30E8               	movlw	232
  2741  076D  00CA               	movwf	main@delayMax^(0+128)
  2742  076E  3003               	movlw	3
  2743  076F  00CB               	movwf	(main@delayMax^(0+128)+1)
  2744  0770                     l377:	
  2745                           ;main.c: 96: unsigned int delay;;main.c: 98: while (1)
  2746                           
  2747                           
  2748                           ;main.c: 99: {;main.c: 101: val = ADC_GetConversion(CDS_IN);
  2749  0770  3002               	movlw	2
  2750  0771  318C  248C  3187   	fcall	_ADC_GetConversion
  2751  0774  0872               	movf	?_ADC_GetConversion+1,w
  2752  0775  0021               	movlb	1	; select bank1
  2753  0776  00D1               	movwf	(main@val+1)^(0+128)
  2754  0777  0871               	movf	?_ADC_GetConversion,w
  2755  0778  00D0               	movwf	main@val^(0+128)
  2756  0779                     l3000:
  2757                           
  2758                           ;main.c: 102: if (val < minLimit) val = minLimit;
  2759  0779  084D               	movf	(main@minLimit+1)^(0+128),w
  2760  077A  0251               	subwf	(main@val+1)^(0+128),w
  2761  077B  1D03               	skipz
  2762  077C  2F7F               	goto	u3495
  2763  077D  084C               	movf	main@minLimit^(0+128),w
  2764  077E  0250               	subwf	main@val^(0+128),w
  2765  077F                     u3495:
  2766  077F  1803               	skipnc
  2767  0780  2F82               	goto	u3491
  2768  0781  2F83               	goto	u3490
  2769  0782                     u3491:
  2770  0782  2F87               	goto	l378
  2771  0783                     u3490:
  2772  0783                     l3002:
  2773  0783  084D               	movf	(main@minLimit+1)^(0+128),w
  2774  0784  00D1               	movwf	(main@val+1)^(0+128)
  2775  0785  084C               	movf	main@minLimit^(0+128),w
  2776  0786  00D0               	movwf	main@val^(0+128)
  2777  0787                     l378:
  2778                           
  2779                           ;main.c: 103: if (val > maxLimit) val = maxLimit;
  2780  0787  0851               	movf	(main@val+1)^(0+128),w
  2781  0788  024F               	subwf	(main@maxLimit+1)^(0+128),w
  2782  0789  1D03               	skipz
  2783  078A  2F8D               	goto	u3505
  2784  078B  0850               	movf	main@val^(0+128),w
  2785  078C  024E               	subwf	main@maxLimit^(0+128),w
  2786  078D                     u3505:
  2787  078D  1803               	skipnc
  2788  078E  2F90               	goto	u3501
  2789  078F  2F91               	goto	u3500
  2790  0790                     u3501:
  2791  0790  2F95               	goto	l3006
  2792  0791                     u3500:
  2793  0791                     l3004:
  2794  0791  084F               	movf	(main@maxLimit+1)^(0+128),w
  2795  0792  00D1               	movwf	(main@val+1)^(0+128)
  2796  0793  084E               	movf	main@maxLimit^(0+128),w
  2797  0794  00D0               	movwf	main@val^(0+128)
  2798  0795                     l3006:
  2799                           
  2800                           ;main.c: 105: delay = delayMax + delayMin - map(val, minLimit, maxLimit, delayMin, delay
      +                          Max);
  2801  0795  0851               	movf	(main@val+1)^(0+128),w
  2802  0796  0020               	movlb	0	; select bank0
  2803  0797  00DE               	movwf	map@target_num+1
  2804  0798  0021               	movlb	1	; select bank1
  2805  0799  0850               	movf	main@val^(0+128),w
  2806  079A  0020               	movlb	0	; select bank0
  2807  079B  00DD               	movwf	map@target_num
  2808  079C  0021               	movlb	1	; select bank1
  2809  079D  084D               	movf	(main@minLimit+1)^(0+128),w
  2810  079E  0020               	movlb	0	; select bank0
  2811  079F  00E0               	movwf	map@in_min+1
  2812  07A0  0021               	movlb	1	; select bank1
  2813  07A1  084C               	movf	main@minLimit^(0+128),w
  2814  07A2  0020               	movlb	0	; select bank0
  2815  07A3  00DF               	movwf	map@in_min
  2816  07A4  0021               	movlb	1	; select bank1
  2817  07A5  084F               	movf	(main@maxLimit+1)^(0+128),w
  2818  07A6  0020               	movlb	0	; select bank0
  2819  07A7  00E2               	movwf	map@in_max+1
  2820  07A8  0021               	movlb	1	; select bank1
  2821  07A9  084E               	movf	main@maxLimit^(0+128),w
  2822  07AA  0020               	movlb	0	; select bank0
  2823  07AB  00E1               	movwf	map@in_max
  2824  07AC  0021               	movlb	1	; select bank1
  2825  07AD  0849               	movf	(main@delayMin+1)^(0+128),w
  2826  07AE  0020               	movlb	0	; select bank0
  2827  07AF  00E4               	movwf	map@out_min+1
  2828  07B0  0021               	movlb	1	; select bank1
  2829  07B1  0848               	movf	main@delayMin^(0+128),w
  2830  07B2  0020               	movlb	0	; select bank0
  2831  07B3  00E3               	movwf	map@out_min
  2832  07B4  0021               	movlb	1	; select bank1
  2833  07B5  084B               	movf	(main@delayMax+1)^(0+128),w
  2834  07B6  0020               	movlb	0	; select bank0
  2835  07B7  00E6               	movwf	map@out_max+1
  2836  07B8  0021               	movlb	1	; select bank1
  2837  07B9  084A               	movf	main@delayMax^(0+128),w
  2838  07BA  0020               	movlb	0	; select bank0
  2839  07BB  00E5               	movwf	map@out_max
  2840  07BC  318F  2747  3187   	fcall	_map
  2841  07BF  0020               	movlb	0	; select bank0
  2842  07C0  085D               	movf	?_map,w
  2843  07C1  0021               	movlb	1	; select bank1
  2844  07C2  024A               	subwf	main@delayMax^(0+128),w
  2845  07C3  0020               	movlb	0	; select bank0
  2846  07C4  00E7               	movwf	??_main
  2847  07C5  085E               	movf	?_map+1,w
  2848  07C6  0021               	movlb	1	; select bank1
  2849  07C7  3B4B               	subwfb	(main@delayMax+1)^(0+128),w
  2850  07C8  0020               	movlb	0	; select bank0
  2851  07C9  00E8               	movwf	??_main+1
  2852  07CA  0021               	movlb	1	; select bank1
  2853  07CB  0848               	movf	main@delayMin^(0+128),w
  2854  07CC  0020               	movlb	0	; select bank0
  2855  07CD  0767               	addwf	??_main,w
  2856  07CE  0021               	movlb	1	; select bank1
  2857  07CF  00C6               	movwf	main@delay^(0+128)
  2858  07D0  0849               	movf	(main@delayMin+1)^(0+128),w
  2859  07D1  0020               	movlb	0	; select bank0
  2860  07D2  3D68               	addwfc	??_main+1,w
  2861  07D3  0021               	movlb	1	; select bank1
  2862  07D4  00C7               	movwf	(main@delay+1)^(0+128)
  2863  07D5                     l3008:
  2864                           
  2865                           ;main.c: 106: printf("%d, %d\r\n", val, delay);
  2866  07D5  300A               	movlw	low (STR_1| (0+32768))
  2867  07D6  0020               	movlb	0	; select bank0
  2868  07D7  00A4               	movwf	printf@f
  2869  07D8  3090               	movlw	high (STR_1| (0+32768))
  2870  07D9  00A5               	movwf	printf@f+1
  2871  07DA  0021               	movlb	1	; select bank1
  2872  07DB  0851               	movf	(main@val+1)^(0+128),w
  2873  07DC  0020               	movlb	0	; select bank0
  2874  07DD  00A7               	movwf	?_printf+3
  2875  07DE  0021               	movlb	1	; select bank1
  2876  07DF  0850               	movf	main@val^(0+128),w
  2877  07E0  0020               	movlb	0	; select bank0
  2878  07E1  00A6               	movwf	?_printf+2
  2879  07E2  0021               	movlb	1	; select bank1
  2880  07E3  0847               	movf	(main@delay+1)^(0+128),w
  2881  07E4  0020               	movlb	0	; select bank0
  2882  07E5  00A9               	movwf	?_printf+5
  2883  07E6  0021               	movlb	1	; select bank1
  2884  07E7  0846               	movf	main@delay^(0+128),w
  2885  07E8  0020               	movlb	0	; select bank0
  2886  07E9  00A8               	movwf	?_printf+4
  2887  07EA  3186  2694  3187   	fcall	_printf
  2888  07ED                     l3010:
  2889                           
  2890                           ;main.c: 108: _delay((unsigned long)((50)*(4000000/4000.0)));
  2891  07ED  3041               	movlw	65
  2892  07EE  0020               	movlb	0	; select bank0
  2893  07EF  00E7               	movwf	??_main
  2894  07F0  30EE               	movlw	238
  2895  07F1                     u3517:
  2896  07F1  0B89               	decfsz	9,f
  2897  07F2  2FF1               	goto	u3517
  2898  07F3  0BE7               	decfsz	??_main,f
  2899  07F4  2FF1               	goto	u3517
  2900  07F5  0000               	nop
  2901  07F6  2F70               	goto	l377
  2902  07F7  3180  283C         	ljmp	start
  2903  07F9                     __end_of_main:
  2904                           
  2905                           	psect	text1
  2906  0694                     __ptext1:	
  2907 ;; *************** function _printf *****************
  2908 ;; Defined at:
  2909 ;;		line 477 in file "C:\Program Files\Microchip\xc8\v2.31\pic\sources\c90\common\doprnt.c"
  2910 ;; Parameters:    Size  Location     Type
  2911 ;;  f               2    4[BANK0 ] PTR const unsigned char 
  2912 ;;		 -> STR_1(9), 
  2913 ;; Auto vars:     Size  Location     Type
  2914 ;;  tmpval          4    0        struct .
  2915 ;;  val             2   17[BANK0 ] unsigned int 
  2916 ;;  cp              2    0        PTR const unsigned char 
  2917 ;;  len             2    0        unsigned int 
  2918 ;;  c               1   19[BANK0 ] unsigned char 
  2919 ;;  prec            1   16[BANK0 ] char 
  2920 ;;  flag            1   15[BANK0 ] unsigned char 
  2921 ;;  ap              1   14[BANK0 ] PTR void [1]
  2922 ;;		 -> ?_printf(2), 
  2923 ;; Return value:  Size  Location     Type
  2924 ;;                  2    4[BANK0 ] int 
  2925 ;; Registers used:
  2926 ;;		wreg, fsr0l, fsr0h, fsr1l, fsr1h, status,2, status,0, pclath, cstack
  2927 ;; Tracked objects:
  2928 ;;		On entry : 0/0
  2929 ;;		On exit  : 0/0
  2930 ;;		Unchanged: 0/0
  2931 ;; Data sizes:     COMMON   BANK0   BANK1   BANK2   BANK3   BANK4   BANK5   BANK6   BANK7   BANK8   BANK9  BANK10  BANK1
      +1  BANK12
  2932 ;;      Params:         0       6       0       0       0       0       0       0       0       0       0       0       
      +0       0
  2933 ;;      Locals:         0       6       0       0       0       0       0       0       0       0       0       0       
      +0       0
  2934 ;;      Temps:          0       4       0       0       0       0       0       0       0       0       0       0       
      +0       0
  2935 ;;      Totals:         0      16       0       0       0       0       0       0       0       0       0       0       
      +0       0
  2936 ;;Total ram usage:       16 bytes
  2937 ;; Hardware stack levels used:    1
  2938 ;; Hardware stack levels required when called:    6
  2939 ;; This function calls:
  2940 ;;		___lwdiv
  2941 ;;		___lwmod
  2942 ;;		_putch
  2943 ;; This function is called by:
  2944 ;;		_main
  2945 ;; This function uses a non-reentrant model
  2946 ;;
  2947                           
  2948                           
  2949                           ;psect for function _printf
  2950  0694                     _printf:
  2951  0694                     l2936:	
  2952                           ;incstack = 0
  2953                           ; Regs used in _printf: [wreg-fsr1h+status,2+status,0+pclath+cstack]
  2954                           
  2955                           
  2956                           ;doprnt.c: 479: va_list ap;;doprnt.c: 512: char c;;doprnt.c: 521: signed char prec;;dopr
      +                          nt.c: 525: unsigned char flag;;doprnt.c: 540: union {;doprnt.c: 541: unsigned long vd;;d
      +                          oprnt.c: 542: double integ;;doprnt.c: 543: } tmpval;;doprnt.c: 545: unsigned int val;;do
      +                          prnt.c: 546: unsigned len;;doprnt.c: 547: const char * cp;;doprnt.c: 550: *ap = __va_sta
      +                          rt();
  2957  0694  3026               	movlw	(low ((?_printf| 0+2)))& (0+255)
  2958  0695  0020               	movlb	0	; select bank0
  2959  0696  00AA               	movwf	??_printf
  2960  0697  082A               	movf	??_printf,w
  2961  0698  00AE               	movwf	printf@ap
  2962                           
  2963                           ;doprnt.c: 553: while((c = *f++)) {
  2964  0699  2F41               	goto	l2982
  2965  069A                     l2938:
  2966                           
  2967                           ;doprnt.c: 555: if(c != '%')
  2968  069A  3025               	movlw	37
  2969  069B  0633               	xorwf	printf@c,w
  2970  069C  1903               	btfsc	3,2
  2971  069D  2E9F               	goto	u3421
  2972  069E  2EA0               	goto	u3420
  2973  069F                     u3421:
  2974  069F  2EA5               	goto	l2942
  2975  06A0                     u3420:
  2976  06A0                     l2940:
  2977                           
  2978                           ;doprnt.c: 557: {;doprnt.c: 558: (putch(c) );
  2979  06A0  0833               	movf	printf@c,w
  2980  06A1  318C  241D  3186   	fcall	_putch
  2981                           
  2982                           ;doprnt.c: 559: continue;
  2983  06A4  2F41               	goto	l2982
  2984  06A5                     l2942:
  2985                           
  2986                           ;doprnt.c: 560: };doprnt.c: 565: flag = 0;
  2987  06A5  01AF               	clrf	printf@flag
  2988  06A6                     l2946:	
  2989                           ;doprnt.c: 661: switch(c = *f++) {
  2990                           
  2991  06A6  0825               	movf	printf@f+1,w
  2992  06A7  00AB               	movwf	??_printf+1
  2993  06A8  0824               	movf	printf@f,w
  2994  06A9  00AA               	movwf	??_printf
  2995  06AA  0AA4               	incf	printf@f,f
  2996  06AB  1903               	skipnz
  2997  06AC  0AA5               	incf	printf@f+1,f
  2998  06AD  082A               	movf	??_printf,w
  2999  06AE  0084               	movwf	4
  3000  06AF  082B               	movf	??_printf+1,w
  3001  06B0  0085               	movwf	5
  3002  06B1  0800               	movf	0,w	;code access
  3003  06B2  00B3               	movwf	printf@c
  3004                           
  3005                           ; Switch size 1, requested type "simple"
  3006                           ; Number of cases is 3, Range of values is 0 to 105
  3007                           ; switch strategies available:
  3008                           ; Name         Instructions Cycles
  3009                           ; simple_byte           10     6 (average)
  3010                           ; direct_byte          218     6 (fixed)
  3011                           ; jumptable            260     6 (fixed)
  3012                           ;	Chosen strategy is simple_byte
  3013  06B3  3A00               	xorlw	0	; case 0
  3014  06B4  1903               	skipnz
  3015  06B5  2F56               	goto	l476
  3016  06B6  3A64               	xorlw	100	; case 100
  3017  06B7  1903               	skipnz
  3018  06B8  2EBD               	goto	l2948
  3019  06B9  3A0D               	xorlw	13	; case 105
  3020  06BA  1903               	skipnz
  3021  06BB  2EBD               	goto	l2948
  3022  06BC  2F41               	goto	l2982
  3023  06BD                     l2948:
  3024                           
  3025                           ;doprnt.c: 1279: {;doprnt.c: 1285: val = (unsigned int)(*(int *)__va_arg((*(int **)ap), 
      +                          (int)0));
  3026  06BD  082E               	movf	printf@ap,w
  3027  06BE  0086               	movwf	6
  3028  06BF  0187               	clrf	7
  3029  06C0  3F40               	moviw [0]fsr1
  3030  06C1  00B1               	movwf	printf@val
  3031  06C2  3F41               	moviw [1]fsr1
  3032  06C3  00B2               	movwf	printf@val+1
  3033  06C4                     l2950:
  3034  06C4  3002               	movlw	2
  3035  06C5  00AA               	movwf	??_printf
  3036  06C6  082A               	movf	??_printf,w
  3037  06C7  07AE               	addwf	printf@ap,f
  3038  06C8                     l2952:
  3039                           
  3040                           ;doprnt.c: 1287: if((int)val < 0) {
  3041  06C8  1FB2               	btfss	printf@val+1,7
  3042  06C9  2ECB               	goto	u3431
  3043  06CA  2ECC               	goto	u3430
  3044  06CB                     u3431:
  3045  06CB  2ED5               	goto	l2958
  3046  06CC                     u3430:
  3047  06CC                     l2954:
  3048                           
  3049                           ;doprnt.c: 1288: flag |= 0x03;
  3050  06CC  3003               	movlw	3
  3051  06CD  00AA               	movwf	??_printf
  3052  06CE  082A               	movf	??_printf,w
  3053  06CF  04AF               	iorwf	printf@flag,f
  3054  06D0                     l2956:
  3055                           
  3056                           ;doprnt.c: 1289: val = -val;
  3057  06D0  09B1               	comf	printf@val,f
  3058  06D1  09B2               	comf	printf@val+1,f
  3059  06D2  0AB1               	incf	printf@val,f
  3060  06D3  1903               	skipnz
  3061  06D4  0AB2               	incf	printf@val+1,f
  3062  06D5                     l2958:
  3063                           
  3064                           ;doprnt.c: 1290: };doprnt.c: 1292: };doprnt.c: 1331: for(c = 1 ; c != sizeof dpowers/siz
      +                          eof dpowers[0] ; c++)
  3065  06D5  01B3               	clrf	printf@c
  3066  06D6  0AB3               	incf	printf@c,f
  3067  06D7                     l2964:
  3068                           
  3069                           ;doprnt.c: 1332: if(val < dpowers[c])
  3070  06D7  0833               	movf	printf@c,w
  3071  06D8  00AA               	movwf	??_printf
  3072  06D9  01AB               	clrf	??_printf+1
  3073  06DA  35AA               	lslf	??_printf,f
  3074  06DB  0DAB               	rlf	??_printf+1,f
  3075  06DC  3000               	movlw	low (_dpowers| (0+32768))
  3076  06DD  072A               	addwf	??_printf,w
  3077  06DE  0084               	movwf	4
  3078  06DF  3090               	movlw	high (_dpowers| (0+32768))
  3079  06E0  3D2B               	addwfc	??_printf+1,w
  3080  06E1  0085               	movwf	5
  3081  06E2  3F00               	moviw [0]fsr0
  3082  06E3  00AC               	movwf	??_printf+2
  3083  06E4  3F01               	moviw [1]fsr0
  3084  06E5  00AD               	movwf	??_printf+3
  3085  06E6  082D               	movf	??_printf+3,w
  3086  06E7  0232               	subwf	printf@val+1,w
  3087  06E8  1D03               	skipz
  3088  06E9  2EEC               	goto	u3445
  3089  06EA  082C               	movf	??_printf+2,w
  3090  06EB  0231               	subwf	printf@val,w
  3091  06EC                     u3445:
  3092  06EC  1803               	skipnc
  3093  06ED  2EEF               	goto	u3441
  3094  06EE  2EF0               	goto	u3440
  3095  06EF                     u3441:
  3096  06EF  2EF1               	goto	l2968
  3097  06F0                     u3440:
  3098  06F0  2EFB               	goto	l2970
  3099  06F1                     l2968:
  3100  06F1  3001               	movlw	1
  3101  06F2  00AA               	movwf	??_printf
  3102  06F3  082A               	movf	??_printf,w
  3103  06F4  07B3               	addwf	printf@c,f
  3104  06F5  3005               	movlw	5
  3105  06F6  0633               	xorwf	printf@c,w
  3106  06F7  1D03               	btfss	3,2
  3107  06F8  2EFA               	goto	u3451
  3108  06F9  2EFB               	goto	u3450
  3109  06FA                     u3451:
  3110  06FA  2ED7               	goto	l2964
  3111  06FB                     u3450:
  3112  06FB                     l2970:
  3113                           
  3114                           ;doprnt.c: 1448: {;doprnt.c: 1464: if(flag & 0x03)
  3115  06FB  082F               	movf	printf@flag,w
  3116  06FC  3903               	andlw	3
  3117  06FD  1903               	btfsc	3,2
  3118  06FE  2F00               	goto	u3461
  3119  06FF  2F01               	goto	u3460
  3120  0700                     u3461:
  3121  0700  2F05               	goto	l2974
  3122  0701                     u3460:
  3123  0701                     l2972:
  3124                           
  3125                           ;doprnt.c: 1465: (putch('-') );
  3126  0701  302D               	movlw	45
  3127  0702  318C  241D  3186   	fcall	_putch
  3128  0705                     l2974:
  3129                           
  3130                           ;doprnt.c: 1495: };doprnt.c: 1498: prec = c;
  3131  0705  0020               	movlb	0	; select bank0
  3132  0706  0833               	movf	printf@c,w
  3133  0707  00AA               	movwf	??_printf
  3134  0708  082A               	movf	??_printf,w
  3135  0709  00B0               	movwf	printf@prec
  3136                           
  3137                           ;doprnt.c: 1500: while(prec--) {
  3138  070A  2F37               	goto	l2980
  3139  070B                     l2976:
  3140                           
  3141                           ;doprnt.c: 1504: {;doprnt.c: 1515: c = (val / dpowers[(unsigned char)prec]) % 10 + '0';
  3142  070B  300A               	movlw	10
  3143  070C  00A0               	movwf	___lwmod@divisor
  3144  070D  3000               	movlw	0
  3145  070E  00A1               	movwf	___lwmod@divisor+1
  3146  070F  0830               	movf	printf@prec,w
  3147  0710  00AA               	movwf	??_printf
  3148  0711  01AB               	clrf	??_printf+1
  3149  0712  35AA               	lslf	??_printf,f
  3150  0713  0DAB               	rlf	??_printf+1,f
  3151  0714  3000               	movlw	low (_dpowers| (0+32768))
  3152  0715  072A               	addwf	??_printf,w
  3153  0716  0084               	movwf	4
  3154  0717  3090               	movlw	high (_dpowers| (0+32768))
  3155  0718  3D2B               	addwfc	??_printf+1,w
  3156  0719  0085               	movwf	5
  3157  071A  3F00               	moviw [0]fsr0
  3158  071B  00F1               	movwf	___lwdiv@divisor
  3159  071C  3F01               	moviw [1]fsr0
  3160  071D  00F2               	movwf	___lwdiv@divisor+1
  3161  071E  0832               	movf	printf@val+1,w
  3162  071F  00F4               	movwf	___lwdiv@dividend+1
  3163  0720  0831               	movf	printf@val,w
  3164  0721  00F3               	movwf	___lwdiv@dividend
  3165  0722  318D  25AA  3186   	fcall	___lwdiv
  3166  0725  0872               	movf	?___lwdiv+1,w
  3167  0726  0020               	movlb	0	; select bank0
  3168  0727  00A3               	movwf	___lwmod@dividend+1
  3169  0728  0871               	movf	?___lwdiv,w
  3170  0729  00A2               	movwf	___lwmod@dividend
  3171  072A  318D  253C  3186   	fcall	___lwmod
  3172  072D  0020               	movlb	0	; select bank0
  3173  072E  0820               	movf	?___lwmod,w
  3174  072F  3E30               	addlw	48
  3175  0730  00AC               	movwf	??_printf+2
  3176  0731  082C               	movf	??_printf+2,w
  3177  0732  00B3               	movwf	printf@c
  3178  0733                     l2978:
  3179                           
  3180                           ;doprnt.c: 1549: };doprnt.c: 1550: (putch(c) );
  3181  0733  0833               	movf	printf@c,w
  3182  0734  318C  241D  3186   	fcall	_putch
  3183  0737                     l2980:
  3184  0737  30FF               	movlw	255
  3185  0738  0020               	movlb	0	; select bank0
  3186  0739  00AA               	movwf	??_printf
  3187  073A  082A               	movf	??_printf,w
  3188  073B  07B0               	addwf	printf@prec,f
  3189  073C  0A30               	incf	printf@prec,w
  3190  073D  1D03               	btfss	3,2
  3191  073E  2F40               	goto	u3471
  3192  073F  2F41               	goto	u3470
  3193  0740                     u3471:
  3194  0740  2F0B               	goto	l2976
  3195  0741                     u3470:
  3196  0741                     l2982:
  3197  0741  0020               	movlb	0	; select bank0
  3198  0742  0825               	movf	printf@f+1,w
  3199  0743  00AB               	movwf	??_printf+1
  3200  0744  0824               	movf	printf@f,w
  3201  0745  00AA               	movwf	??_printf
  3202  0746  0AA4               	incf	printf@f,f
  3203  0747  1903               	skipnz
  3204  0748  0AA5               	incf	printf@f+1,f
  3205  0749  082A               	movf	??_printf,w
  3206  074A  0084               	movwf	4
  3207  074B  082B               	movf	??_printf+1,w
  3208  074C  0085               	movwf	5
  3209  074D  0800               	movf	0,w	;code access
  3210  074E  00AC               	movwf	??_printf+2
  3211  074F  082C               	movf	??_printf+2,w
  3212  0750  00B3               	movwf	printf@c
  3213  0751  0833               	movf	printf@c,w
  3214  0752  1D03               	btfss	3,2
  3215  0753  2F55               	goto	u3481
  3216  0754  2F56               	goto	u3480
  3217  0755                     u3481:
  3218  0755  2E9A               	goto	l2938
  3219  0756                     u3480:
  3220  0756                     l476:
  3221  0756  0008               	return
  3222  0757                     __end_of_printf:
  3223                           
  3224                           	psect	text2
  3225  0C1D                     __ptext2:	
  3226 ;; *************** function _putch *****************
  3227 ;; Defined at:
  3228 ;;		line 201 in file "mcc_generated_files/eusart.c"
  3229 ;; Parameters:    Size  Location     Type
  3230 ;;  txData          1    wreg     unsigned char 
  3231 ;; Auto vars:     Size  Location     Type
  3232 ;;  txData          1    3[COMMON] unsigned char 
  3233 ;; Return value:  Size  Location     Type
  3234 ;;                  1    wreg      void 
  3235 ;; Registers used:
  3236 ;;		wreg, fsr1l, fsr1h, status,2, status,0, pclath, cstack
  3237 ;; Tracked objects:
  3238 ;;		On entry : 0/0
  3239 ;;		On exit  : 0/0
  3240 ;;		Unchanged: 0/0
  3241 ;; Data sizes:     COMMON   BANK0   BANK1   BANK2   BANK3   BANK4   BANK5   BANK6   BANK7   BANK8   BANK9  BANK10  BANK1
      +1  BANK12
  3242 ;;      Params:         0       0       0       0       0       0       0       0       0       0       0       0       
      +0       0
  3243 ;;      Locals:         1       0       0       0       0       0       0       0       0       0       0       0       
      +0       0
  3244 ;;      Temps:          0       0       0       0       0       0       0       0       0       0       0       0       
      +0       0
  3245 ;;      Totals:         1       0       0       0       0       0       0       0       0       0       0       0       
      +0       0
  3246 ;;Total ram usage:        1 bytes
  3247 ;; Hardware stack levels used:    1
  3248 ;; Hardware stack levels required when called:    5
  3249 ;; This function calls:
  3250 ;;		_EUSART_Write
  3251 ;; This function is called by:
  3252 ;;		_printf
  3253 ;; This function uses a non-reentrant model
  3254 ;;
  3255                           
  3256                           
  3257                           ;psect for function _putch
  3258  0C1D                     _putch:
  3259                           
  3260                           ;incstack = 0
  3261                           ; Regs used in _putch: [wreg+fsr1l+fsr1h+status,2+status,0+pclath+cstack]
  3262                           ;putch@txData stored from wreg
  3263  0C1D  00F3               	movwf	putch@txData
  3264  0C1E                     l2130:
  3265                           
  3266                           ;eusart.c: 203: EUSART_Write(txData);
  3267  0C1E  0873               	movf	putch@txData,w
  3268  0C1F  318D  2512  318C   	fcall	_EUSART_Write
  3269  0C22                     l289:
  3270  0C22  0008               	return
  3271  0C23                     __end_of_putch:
  3272                           
  3273                           	psect	text3
  3274  0D12                     __ptext3:	
  3275 ;; *************** function _EUSART_Write *****************
  3276 ;; Defined at:
  3277 ;;		line 173 in file "mcc_generated_files/eusart.c"
  3278 ;; Parameters:    Size  Location     Type
  3279 ;;  txData          1    wreg     unsigned char 
  3280 ;; Auto vars:     Size  Location     Type
  3281 ;;  txData          1    2[COMMON] unsigned char 
  3282 ;; Return value:  Size  Location     Type
  3283 ;;                  1    wreg      void 
  3284 ;; Registers used:
  3285 ;;		wreg, fsr1l, fsr1h, status,2, status,0
  3286 ;; Tracked objects:
  3287 ;;		On entry : 0/0
  3288 ;;		On exit  : 0/0
  3289 ;;		Unchanged: 0/0
  3290 ;; Data sizes:     COMMON   BANK0   BANK1   BANK2   BANK3   BANK4   BANK5   BANK6   BANK7   BANK8   BANK9  BANK10  BANK1
      +1  BANK12
  3291 ;;      Params:         0       0       0       0       0       0       0       0       0       0       0       0       
      +0       0
  3292 ;;      Locals:         1       0       0       0       0       0       0       0       0       0       0       0       
      +0       0
  3293 ;;      Temps:          1       0       0       0       0       0       0       0       0       0       0       0       
      +0       0
  3294 ;;      Totals:         2       0       0       0       0       0       0       0       0       0       0       0       
      +0       0
  3295 ;;Total ram usage:        2 bytes
  3296 ;; Hardware stack levels used:    1
  3297 ;; Hardware stack levels required when called:    4
  3298 ;; This function calls:
  3299 ;;		Nothing
  3300 ;; This function is called by:
  3301 ;;		_putch
  3302 ;; This function uses a non-reentrant model
  3303 ;;
  3304                           
  3305                           
  3306                           ;psect for function _EUSART_Write
  3307  0D12                     _EUSART_Write:
  3308                           
  3309                           ;incstack = 0
  3310                           ; Regs used in _EUSART_Write: [wreg+fsr1l+fsr1h+status,2+status,0]
  3311                           ;EUSART_Write@txData stored from wreg
  3312  0D12  00F2               	movwf	EUSART_Write@txData
  3313  0D13                     l1982:
  3314  0D13                     l1984:	
  3315                           ;eusart.c: 175: while(0 == eusartTxBufferRemaining)
  3316                           
  3317  0D13  0020               	movlb	0	; select bank0
  3318  0D14  086E               	movf	_eusartTxBufferRemaining,w	;volatile
  3319  0D15  1903               	btfsc	3,2
  3320  0D16  2D18               	goto	u1691
  3321  0D17  2D19               	goto	u1690
  3322  0D18                     u1691:
  3323  0D18  2D13               	goto	l1984
  3324  0D19                     u1690:
  3325  0D19                     l279:
  3326                           
  3327                           ;eusart.c: 177: };eusart.c: 179: if(0 == PIE1bits.TXIE)
  3328  0D19  0021               	movlb	1	; select bank1
  3329  0D1A  1A11               	btfsc	17,4	;volatile
  3330  0D1B  2D1D               	goto	u1701
  3331  0D1C  2D1E               	goto	u1700
  3332  0D1D                     u1701:
  3333  0D1D  2D22               	goto	l280
  3334  0D1E                     u1700:
  3335  0D1E                     l1986:
  3336                           
  3337                           ;eusart.c: 180: {;eusart.c: 181: TX1REG = txData;
  3338  0D1E  0872               	movf	EUSART_Write@txData,w
  3339  0D1F  0023               	movlb	3	; select bank3
  3340  0D20  009A               	movwf	26	;volatile
  3341                           
  3342                           ;eusart.c: 182: }
  3343  0D21  2D39               	goto	l1998
  3344  0D22                     l280:
  3345                           
  3346                           ;eusart.c: 183: else;eusart.c: 184: {;eusart.c: 185: PIE1bits.TXIE = 0;
  3347  0D22  1211               	bcf	17,4	;volatile
  3348  0D23                     l1988:
  3349                           
  3350                           ;eusart.c: 186: eusartTxBuffer[eusartTxHead++] = txData;
  3351  0D23  0872               	movf	EUSART_Write@txData,w
  3352  0D24  00F1               	movwf	??_EUSART_Write
  3353  0D25  0020               	movlb	0	; select bank0
  3354  0D26  086D               	movf	_eusartTxHead,w
  3355  0D27  3EB0               	addlw	(low (_eusartTxBuffer| 0))& (0+255)
  3356  0D28  0086               	movwf	6
  3357  0D29  0187               	clrf	7
  3358  0D2A  0871               	movf	??_EUSART_Write,w
  3359  0D2B  0081               	movwf	1
  3360  0D2C                     l1990:
  3361  0D2C  3001               	movlw	1
  3362  0D2D  00F1               	movwf	??_EUSART_Write
  3363  0D2E  0871               	movf	??_EUSART_Write,w
  3364  0D2F  07ED               	addwf	_eusartTxHead,f	;volatile
  3365  0D30                     l1992:
  3366                           
  3367                           ;eusart.c: 187: if(sizeof(eusartTxBuffer) <= eusartTxHead)
  3368  0D30  3008               	movlw	8
  3369  0D31  026D               	subwf	_eusartTxHead,w	;volatile
  3370  0D32  1C03               	skipc
  3371  0D33  2D35               	goto	u1711
  3372  0D34  2D36               	goto	u1710
  3373  0D35                     u1711:
  3374  0D35  2D37               	goto	l1996
  3375  0D36                     u1710:
  3376  0D36                     l1994:
  3377                           
  3378                           ;eusart.c: 188: {;eusart.c: 189: eusartTxHead = 0;
  3379  0D36  01ED               	clrf	_eusartTxHead	;volatile
  3380  0D37                     l1996:
  3381                           
  3382                           ;eusart.c: 190: };eusart.c: 191: eusartTxBufferRemaining--;
  3383  0D37  3001               	movlw	1
  3384  0D38  02EE               	subwf	_eusartTxBufferRemaining,f	;volatile
  3385  0D39                     l1998:
  3386                           
  3387                           ;eusart.c: 192: };eusart.c: 193: PIE1bits.TXIE = 1;
  3388  0D39  0021               	movlb	1	; select bank1
  3389  0D3A  1611               	bsf	17,4	;volatile
  3390  0D3B                     l283:
  3391  0D3B  0008               	return
  3392  0D3C                     __end_of_EUSART_Write:
  3393                           
  3394                           	psect	text4
  3395  0D3C                     __ptext4:	
  3396 ;; *************** function ___lwmod *****************
  3397 ;; Defined at:
  3398 ;;		line 5 in file "C:\Program Files\Microchip\xc8\v2.31\pic\sources\c90\common\lwmod.c"
  3399 ;; Parameters:    Size  Location     Type
  3400 ;;  divisor         2    0[BANK0 ] unsigned int 
  3401 ;;  dividend        2    2[BANK0 ] unsigned int 
  3402 ;; Auto vars:     Size  Location     Type
  3403 ;;  counter         1   10[COMMON] unsigned char 
  3404 ;; Return value:  Size  Location     Type
  3405 ;;                  2    0[BANK0 ] unsigned int 
  3406 ;; Registers used:
  3407 ;;		wreg, status,2, status,0
  3408 ;; Tracked objects:
  3409 ;;		On entry : 0/0
  3410 ;;		On exit  : 0/0
  3411 ;;		Unchanged: 0/0
  3412 ;; Data sizes:     COMMON   BANK0   BANK1   BANK2   BANK3   BANK4   BANK5   BANK6   BANK7   BANK8   BANK9  BANK10  BANK1
      +1  BANK12
  3413 ;;      Params:         0       4       0       0       0       0       0       0       0       0       0       0       
      +0       0
  3414 ;;      Locals:         1       0       0       0       0       0       0       0       0       0       0       0       
      +0       0
  3415 ;;      Temps:          1       0       0       0       0       0       0       0       0       0       0       0       
      +0       0
  3416 ;;      Totals:         2       4       0       0       0       0       0       0       0       0       0       0       
      +0       0
  3417 ;;Total ram usage:        6 bytes
  3418 ;; Hardware stack levels used:    1
  3419 ;; Hardware stack levels required when called:    4
  3420 ;; This function calls:
  3421 ;;		Nothing
  3422 ;; This function is called by:
  3423 ;;		_printf
  3424 ;; This function uses a non-reentrant model
  3425 ;;
  3426                           
  3427                           
  3428                           ;psect for function ___lwmod
  3429  0D3C                     ___lwmod:
  3430  0D3C                     l2914:	
  3431                           ;incstack = 0
  3432                           ; Regs used in ___lwmod: [wreg+status,2+status,0]
  3433                           
  3434  0D3C  0020               	movlb	0	; select bank0
  3435  0D3D  0820               	movf	___lwmod@divisor,w
  3436  0D3E  0421               	iorwf	___lwmod@divisor+1,w
  3437  0D3F  1903               	btfsc	3,2
  3438  0D40  2D42               	goto	u3361
  3439  0D41  2D43               	goto	u3360
  3440  0D42                     u3361:
  3441  0D42  2D6C               	goto	l2932
  3442  0D43                     u3360:
  3443  0D43                     l2916:
  3444  0D43  01FA               	clrf	___lwmod@counter
  3445  0D44  0AFA               	incf	___lwmod@counter,f
  3446  0D45  2D4F               	goto	l2922
  3447  0D46                     l2918:
  3448  0D46  3001               	movlw	1
  3449  0D47                     u3375:
  3450  0D47  35A0               	lslf	___lwmod@divisor,f
  3451  0D48  0DA1               	rlf	___lwmod@divisor+1,f
  3452  0D49  0B89               	decfsz	9,f
  3453  0D4A  2D47               	goto	u3375
  3454  0D4B                     l2920:
  3455  0D4B  3001               	movlw	1
  3456  0D4C  00F9               	movwf	??___lwmod
  3457  0D4D  0879               	movf	??___lwmod,w
  3458  0D4E  07FA               	addwf	___lwmod@counter,f
  3459  0D4F                     l2922:
  3460  0D4F  1FA1               	btfss	___lwmod@divisor+1,7
  3461  0D50  2D52               	goto	u3381
  3462  0D51  2D53               	goto	u3380
  3463  0D52                     u3381:
  3464  0D52  2D46               	goto	l2918
  3465  0D53                     u3380:
  3466  0D53                     l2924:
  3467  0D53  0821               	movf	___lwmod@divisor+1,w
  3468  0D54  0223               	subwf	___lwmod@dividend+1,w
  3469  0D55  1D03               	skipz
  3470  0D56  2D59               	goto	u3395
  3471  0D57  0820               	movf	___lwmod@divisor,w
  3472  0D58  0222               	subwf	___lwmod@dividend,w
  3473  0D59                     u3395:
  3474  0D59  1C03               	skipc
  3475  0D5A  2D5C               	goto	u3391
  3476  0D5B  2D5D               	goto	u3390
  3477  0D5C                     u3391:
  3478  0D5C  2D61               	goto	l2928
  3479  0D5D                     u3390:
  3480  0D5D                     l2926:
  3481  0D5D  0820               	movf	___lwmod@divisor,w
  3482  0D5E  02A2               	subwf	___lwmod@dividend,f
  3483  0D5F  0821               	movf	___lwmod@divisor+1,w
  3484  0D60  3BA3               	subwfb	___lwmod@dividend+1,f
  3485  0D61                     l2928:
  3486  0D61  3001               	movlw	1
  3487  0D62                     u3405:
  3488  0D62  36A1               	lsrf	___lwmod@divisor+1,f
  3489  0D63  0CA0               	rrf	___lwmod@divisor,f
  3490  0D64  0B89               	decfsz	9,f
  3491  0D65  2D62               	goto	u3405
  3492  0D66                     l2930:
  3493  0D66  3001               	movlw	1
  3494  0D67  02FA               	subwf	___lwmod@counter,f
  3495  0D68  1D03               	btfss	3,2
  3496  0D69  2D6B               	goto	u3411
  3497  0D6A  2D6C               	goto	u3410
  3498  0D6B                     u3411:
  3499  0D6B  2D53               	goto	l2924
  3500  0D6C                     u3410:
  3501  0D6C                     l2932:
  3502  0D6C  0823               	movf	___lwmod@dividend+1,w
  3503  0D6D  00A1               	movwf	?___lwmod+1
  3504  0D6E  0822               	movf	___lwmod@dividend,w
  3505  0D6F  00A0               	movwf	?___lwmod
  3506  0D70                     l762:
  3507  0D70  0008               	return
  3508  0D71                     __end_of___lwmod:
  3509                           
  3510                           	psect	text5
  3511  0DAA                     __ptext5:	
  3512 ;; *************** function ___lwdiv *****************
  3513 ;; Defined at:
  3514 ;;		line 5 in file "C:\Program Files\Microchip\xc8\v2.31\pic\sources\c90\common\lwdiv.c"
  3515 ;; Parameters:    Size  Location     Type
  3516 ;;  divisor         2    1[COMMON] unsigned int 
  3517 ;;  dividend        2    3[COMMON] unsigned int 
  3518 ;; Auto vars:     Size  Location     Type
  3519 ;;  quotient        2    6[COMMON] unsigned int 
  3520 ;;  counter         1    8[COMMON] unsigned char 
  3521 ;; Return value:  Size  Location     Type
  3522 ;;                  2    1[COMMON] unsigned int 
  3523 ;; Registers used:
  3524 ;;		wreg, status,2, status,0
  3525 ;; Tracked objects:
  3526 ;;		On entry : 0/0
  3527 ;;		On exit  : 0/0
  3528 ;;		Unchanged: 0/0
  3529 ;; Data sizes:     COMMON   BANK0   BANK1   BANK2   BANK3   BANK4   BANK5   BANK6   BANK7   BANK8   BANK9  BANK10  BANK1
      +1  BANK12
  3530 ;;      Params:         4       0       0       0       0       0       0       0       0       0       0       0       
      +0       0
  3531 ;;      Locals:         3       0       0       0       0       0       0       0       0       0       0       0       
      +0       0
  3532 ;;      Temps:          1       0       0       0       0       0       0       0       0       0       0       0       
      +0       0
  3533 ;;      Totals:         8       0       0       0       0       0       0       0       0       0       0       0       
      +0       0
  3534 ;;Total ram usage:        8 bytes
  3535 ;; Hardware stack levels used:    1
  3536 ;; Hardware stack levels required when called:    4
  3537 ;; This function calls:
  3538 ;;		Nothing
  3539 ;; This function is called by:
  3540 ;;		_printf
  3541 ;; This function uses a non-reentrant model
  3542 ;;
  3543                           
  3544                           
  3545                           ;psect for function ___lwdiv
  3546  0DAA                     ___lwdiv:
  3547  0DAA                     l2172:	
  3548                           ;incstack = 0
  3549                           ; Regs used in ___lwdiv: [wreg+status,2+status,0]
  3550                           
  3551  0DAA  01F6               	clrf	___lwdiv@quotient
  3552  0DAB  01F7               	clrf	___lwdiv@quotient+1
  3553  0DAC                     l2174:
  3554  0DAC  0871               	movf	___lwdiv@divisor,w
  3555  0DAD  0472               	iorwf	___lwdiv@divisor+1,w
  3556  0DAE  1903               	btfsc	3,2
  3557  0DAF  2DB1               	goto	u1871
  3558  0DB0  2DB2               	goto	u1870
  3559  0DB1                     u1871:
  3560  0DB1  2DE1               	goto	l2194
  3561  0DB2                     u1870:
  3562  0DB2                     l2176:
  3563  0DB2  01F8               	clrf	___lwdiv@counter
  3564  0DB3  0AF8               	incf	___lwdiv@counter,f
  3565  0DB4  2DBE               	goto	l2182
  3566  0DB5                     l2178:
  3567  0DB5  3001               	movlw	1
  3568  0DB6                     u1885:
  3569  0DB6  35F1               	lslf	___lwdiv@divisor,f
  3570  0DB7  0DF2               	rlf	___lwdiv@divisor+1,f
  3571  0DB8  0B89               	decfsz	9,f
  3572  0DB9  2DB6               	goto	u1885
  3573  0DBA                     l2180:
  3574  0DBA  3001               	movlw	1
  3575  0DBB  00F5               	movwf	??___lwdiv
  3576  0DBC  0875               	movf	??___lwdiv,w
  3577  0DBD  07F8               	addwf	___lwdiv@counter,f
  3578  0DBE                     l2182:
  3579  0DBE  1FF2               	btfss	___lwdiv@divisor+1,7
  3580  0DBF  2DC1               	goto	u1891
  3581  0DC0  2DC2               	goto	u1890
  3582  0DC1                     u1891:
  3583  0DC1  2DB5               	goto	l2178
  3584  0DC2                     u1890:
  3585  0DC2                     l2184:
  3586  0DC2  3001               	movlw	1
  3587  0DC3                     u1905:
  3588  0DC3  35F6               	lslf	___lwdiv@quotient,f
  3589  0DC4  0DF7               	rlf	___lwdiv@quotient+1,f
  3590  0DC5  0B89               	decfsz	9,f
  3591  0DC6  2DC3               	goto	u1905
  3592  0DC7  0872               	movf	___lwdiv@divisor+1,w
  3593  0DC8  0274               	subwf	___lwdiv@dividend+1,w
  3594  0DC9  1D03               	skipz
  3595  0DCA  2DCD               	goto	u1915
  3596  0DCB  0871               	movf	___lwdiv@divisor,w
  3597  0DCC  0273               	subwf	___lwdiv@dividend,w
  3598  0DCD                     u1915:
  3599  0DCD  1C03               	skipc
  3600  0DCE  2DD0               	goto	u1911
  3601  0DCF  2DD1               	goto	u1910
  3602  0DD0                     u1911:
  3603  0DD0  2DD6               	goto	l2190
  3604  0DD1                     u1910:
  3605  0DD1                     l2186:
  3606  0DD1  0871               	movf	___lwdiv@divisor,w
  3607  0DD2  02F3               	subwf	___lwdiv@dividend,f
  3608  0DD3  0872               	movf	___lwdiv@divisor+1,w
  3609  0DD4  3BF4               	subwfb	___lwdiv@dividend+1,f
  3610  0DD5                     l2188:
  3611  0DD5  1476               	bsf	___lwdiv@quotient,0
  3612  0DD6                     l2190:
  3613  0DD6  3001               	movlw	1
  3614  0DD7                     u1925:
  3615  0DD7  36F2               	lsrf	___lwdiv@divisor+1,f
  3616  0DD8  0CF1               	rrf	___lwdiv@divisor,f
  3617  0DD9  0B89               	decfsz	9,f
  3618  0DDA  2DD7               	goto	u1925
  3619  0DDB                     l2192:
  3620  0DDB  3001               	movlw	1
  3621  0DDC  02F8               	subwf	___lwdiv@counter,f
  3622  0DDD  1D03               	btfss	3,2
  3623  0DDE  2DE0               	goto	u1931
  3624  0DDF  2DE1               	goto	u1930
  3625  0DE0                     u1931:
  3626  0DE0  2DC2               	goto	l2184
  3627  0DE1                     u1930:
  3628  0DE1                     l2194:
  3629  0DE1  0877               	movf	___lwdiv@quotient+1,w
  3630  0DE2  00F2               	movwf	?___lwdiv+1
  3631  0DE3  0876               	movf	___lwdiv@quotient,w
  3632  0DE4  00F1               	movwf	?___lwdiv
  3633  0DE5                     l752:
  3634  0DE5  0008               	return
  3635  0DE6                     __end_of___lwdiv:
  3636                           
  3637                           	psect	text6
  3638  0F47                     __ptext6:	
  3639 ;; *************** function _map *****************
  3640 ;; Defined at:
  3641 ;;		line 52 in file "main.c"
  3642 ;; Parameters:    Size  Location     Type
  3643 ;;  target_num      2   61[BANK0 ] int 
  3644 ;;  in_min          2   63[BANK0 ] int 
  3645 ;;  in_max          2   65[BANK0 ] int 
  3646 ;;  out_min         2   67[BANK0 ] int 
  3647 ;;  out_max         2   69[BANK0 ] int 
  3648 ;; Auto vars:     Size  Location     Type
  3649 ;;  percentage      4    0[BANK1 ] int 
  3650 ;;  out_diff        2   10[BANK1 ] int 
  3651 ;;  output_range    2    8[BANK1 ] int 
  3652 ;;  input_range     2    6[BANK1 ] int 
  3653 ;;  input_diff      2    4[BANK1 ] int 
  3654 ;; Return value:  Size  Location     Type
  3655 ;;                  2   61[BANK0 ] int 
  3656 ;; Registers used:
  3657 ;;		wreg, status,2, status,0, pclath, cstack
  3658 ;; Tracked objects:
  3659 ;;		On entry : 0/0
  3660 ;;		On exit  : 0/0
  3661 ;;		Unchanged: 0/0
  3662 ;; Data sizes:     COMMON   BANK0   BANK1   BANK2   BANK3   BANK4   BANK5   BANK6   BANK7   BANK8   BANK9  BANK10  BANK1
      +1  BANK12
  3663 ;;      Params:         0      10       0       0       0       0       0       0       0       0       0       0       
      +0       0
  3664 ;;      Locals:         0       0      12       0       0       0       0       0       0       0       0       0       
      +0       0
  3665 ;;      Temps:          0       0       0       0       0       0       0       0       0       0       0       0       
      +0       0
  3666 ;;      Totals:         0      10      12       0       0       0       0       0       0       0       0       0       
      +0       0
  3667 ;;Total ram usage:       22 bytes
  3668 ;; Hardware stack levels used:    1
  3669 ;; Hardware stack levels required when called:    6
  3670 ;; This function calls:
  3671 ;;		___fladd
  3672 ;;		___fldiv
  3673 ;;		___flmul
  3674 ;;		___fltol
  3675 ;;		___xxtofl
  3676 ;; This function is called by:
  3677 ;;		_main
  3678 ;; This function uses a non-reentrant model
  3679 ;;
  3680                           
  3681                           
  3682                           ;psect for function _map
  3683  0F47                     _map:
  3684  0F47                     l2810:	
  3685                           ;incstack = 0
  3686                           ; Regs used in _map: [wreg+status,2+status,0+pclath+cstack]
  3687                           
  3688                           
  3689                           ;main.c: 54: int input_diff = in_max - target_num;
  3690  0F47  0020               	movlb	0	; select bank0
  3691  0F48  085D               	movf	map@target_num,w
  3692  0F49  0261               	subwf	map@in_max,w
  3693  0F4A  0021               	movlb	1	; select bank1
  3694  0F4B  00BE               	movwf	map@input_diff^(0+128)
  3695  0F4C  0020               	movlb	0	; select bank0
  3696  0F4D  085E               	movf	map@target_num+1,w
  3697  0F4E  3B62               	subwfb	map@in_max+1,w
  3698  0F4F  0021               	movlb	1	; select bank1
  3699  0F50  00BF               	movwf	(map@input_diff+1)^(0+128)
  3700                           
  3701                           ;main.c: 55: int input_range = in_max - in_min;
  3702  0F51  0020               	movlb	0	; select bank0
  3703  0F52  085F               	movf	map@in_min,w
  3704  0F53  0261               	subwf	map@in_max,w
  3705  0F54  0021               	movlb	1	; select bank1
  3706  0F55  00C0               	movwf	map@input_range^(0+128)
  3707  0F56  0020               	movlb	0	; select bank0
  3708  0F57  0860               	movf	map@in_min+1,w
  3709  0F58  3B62               	subwfb	map@in_max+1,w
  3710  0F59  0021               	movlb	1	; select bank1
  3711  0F5A  00C1               	movwf	(map@input_range+1)^(0+128)
  3712                           
  3713                           ;main.c: 56: int output_range = out_max - out_min;
  3714  0F5B  0020               	movlb	0	; select bank0
  3715  0F5C  0863               	movf	map@out_min,w
  3716  0F5D  0265               	subwf	map@out_max,w
  3717  0F5E  0021               	movlb	1	; select bank1
  3718  0F5F  00C2               	movwf	map@output_range^(0+128)
  3719  0F60  0020               	movlb	0	; select bank0
  3720  0F61  0864               	movf	map@out_min+1,w
  3721  0F62  3B66               	subwfb	map@out_max+1,w
  3722  0F63  0021               	movlb	1	; select bank1
  3723  0F64  00C3               	movwf	(map@output_range+1)^(0+128)
  3724  0F65                     l2812:
  3725                           
  3726                           ;main.c: 60: double percentage = (double)input_diff / (double)input_range;
  3727  0F65  0840               	movf	map@input_range^(0+128),w
  3728  0F66  00F1               	movwf	___xxtofl@val
  3729  0F67  0841               	movf	(map@input_range+1)^(0+128),w
  3730  0F68  00F2               	movwf	___xxtofl@val+1
  3731  0F69  0D89               	rlf	9,f
  3732  0F6A  3B89               	subwfb	9,f
  3733  0F6B  0989               	comf	9,f
  3734  0F6C  00F3               	movwf	___xxtofl@val+2
  3735  0F6D  00F4               	movwf	___xxtofl@val+3
  3736  0F6E  3001               	movlw	1
  3737  0F6F  318E  269A  318F   	fcall	___xxtofl
  3738  0F72  0874               	movf	?___xxtofl+3,w
  3739  0F73  0020               	movlb	0	; select bank0
  3740  0F74  00A9               	movwf	___fldiv@a+3
  3741  0F75  0873               	movf	?___xxtofl+2,w
  3742  0F76  00A8               	movwf	___fldiv@a+2
  3743  0F77  0872               	movf	?___xxtofl+1,w
  3744  0F78  00A7               	movwf	___fldiv@a+1
  3745  0F79  0871               	movf	?___xxtofl,w
  3746  0F7A  00A6               	movwf	___fldiv@a
  3747  0F7B  0021               	movlb	1	; select bank1
  3748  0F7C  083E               	movf	map@input_diff^(0+128),w
  3749  0F7D  00F1               	movwf	___xxtofl@val
  3750  0F7E  083F               	movf	(map@input_diff+1)^(0+128),w
  3751  0F7F  00F2               	movwf	___xxtofl@val+1
  3752  0F80  0D89               	rlf	9,f
  3753  0F81  3B89               	subwfb	9,f
  3754  0F82  0989               	comf	9,f
  3755  0F83  00F3               	movwf	___xxtofl@val+2
  3756  0F84  00F4               	movwf	___xxtofl@val+3
  3757  0F85  3001               	movlw	1
  3758  0F86  318E  269A  318F   	fcall	___xxtofl
  3759  0F89  0874               	movf	?___xxtofl+3,w
  3760  0F8A  0020               	movlb	0	; select bank0
  3761  0F8B  00AD               	movwf	___fldiv@b+3
  3762  0F8C  0873               	movf	?___xxtofl+2,w
  3763  0F8D  00AC               	movwf	___fldiv@b+2
  3764  0F8E  0872               	movf	?___xxtofl+1,w
  3765  0F8F  00AB               	movwf	___fldiv@b+1
  3766  0F90  0871               	movf	?___xxtofl,w
  3767  0F91  00AA               	movwf	___fldiv@b
  3768  0F92  3184  24E0  318F   	fcall	___fldiv
  3769  0F95  0020               	movlb	0	; select bank0
  3770  0F96  0829               	movf	?___fldiv+3,w
  3771  0F97  0021               	movlb	1	; select bank1
  3772  0F98  00BD               	movwf	(map@percentage+3)^(0+128)
  3773  0F99  0020               	movlb	0	; select bank0
  3774  0F9A  0828               	movf	?___fldiv+2,w
  3775  0F9B  0021               	movlb	1	; select bank1
  3776  0F9C  00BC               	movwf	(map@percentage+2)^(0+128)
  3777  0F9D  0020               	movlb	0	; select bank0
  3778  0F9E  0827               	movf	?___fldiv+1,w
  3779  0F9F  0021               	movlb	1	; select bank1
  3780  0FA0  00BB               	movwf	(map@percentage+1)^(0+128)
  3781  0FA1  0020               	movlb	0	; select bank0
  3782  0FA2  0826               	movf	?___fldiv,w
  3783  0FA3  0021               	movlb	1	; select bank1
  3784  0FA4  00BA               	movwf	map@percentage^(0+128)
  3785  0FA5                     l2814:
  3786                           
  3787                           ;main.c: 61: int out_diff = (int)((double)output_range * percentage + 0.5);
  3788  0FA5  0842               	movf	map@output_range^(0+128),w
  3789  0FA6  00F1               	movwf	___xxtofl@val
  3790  0FA7  0843               	movf	(map@output_range+1)^(0+128),w
  3791  0FA8  00F2               	movwf	___xxtofl@val+1
  3792  0FA9  0D89               	rlf	9,f
  3793  0FAA  3B89               	subwfb	9,f
  3794  0FAB  0989               	comf	9,f
  3795  0FAC  00F3               	movwf	___xxtofl@val+2
  3796  0FAD  00F4               	movwf	___xxtofl@val+3
  3797  0FAE  3001               	movlw	1
  3798  0FAF  318E  269A  318F   	fcall	___xxtofl
  3799  0FB2  0874               	movf	?___xxtofl+3,w
  3800  0FB3  0020               	movlb	0	; select bank0
  3801  0FB4  00AD               	movwf	___flmul@a+3
  3802  0FB5  0873               	movf	?___xxtofl+2,w
  3803  0FB6  00AC               	movwf	___flmul@a+2
  3804  0FB7  0872               	movf	?___xxtofl+1,w
  3805  0FB8  00AB               	movwf	___flmul@a+1
  3806  0FB9  0871               	movf	?___xxtofl,w
  3807  0FBA  00AA               	movwf	___flmul@a
  3808  0FBB  0021               	movlb	1	; select bank1
  3809  0FBC  083D               	movf	(map@percentage+3)^(0+128),w
  3810  0FBD  0020               	movlb	0	; select bank0
  3811  0FBE  00A9               	movwf	___flmul@b+3
  3812  0FBF  0021               	movlb	1	; select bank1
  3813  0FC0  083C               	movf	(map@percentage+2)^(0+128),w
  3814  0FC1  0020               	movlb	0	; select bank0
  3815  0FC2  00A8               	movwf	___flmul@b+2
  3816  0FC3  0021               	movlb	1	; select bank1
  3817  0FC4  083B               	movf	(map@percentage+1)^(0+128),w
  3818  0FC5  0020               	movlb	0	; select bank0
  3819  0FC6  00A7               	movwf	___flmul@b+1
  3820  0FC7  0021               	movlb	1	; select bank1
  3821  0FC8  083A               	movf	map@percentage^(0+128),w
  3822  0FC9  0020               	movlb	0	; select bank0
  3823  0FCA  00A6               	movwf	___flmul@b
  3824  0FCB  3180  2051  318F   	fcall	___flmul
  3825  0FCE  0020               	movlb	0	; select bank0
  3826  0FCF  0829               	movf	?___flmul+3,w
  3827  0FD0  00C7               	movwf	___fladd@a+3
  3828  0FD1  0828               	movf	?___flmul+2,w
  3829  0FD2  00C6               	movwf	___fladd@a+2
  3830  0FD3  0827               	movf	?___flmul+1,w
  3831  0FD4  00C5               	movwf	___fladd@a+1
  3832  0FD5  0826               	movf	?___flmul,w
  3833  0FD6  00C4               	movwf	___fladd@a
  3834  0FD7  303F               	movlw	63
  3835  0FD8  00C3               	movwf	___fladd@b+3
  3836  0FD9  3000               	movlw	0
  3837  0FDA  00C2               	movwf	___fladd@b+2
  3838  0FDB  3000               	movlw	0
  3839  0FDC  00C1               	movwf	___fladd@b+1
  3840  0FDD  3000               	movlw	0
  3841  0FDE  00C0               	movwf	___fladd@b
  3842  0FDF  3182  22A8  318F   	fcall	___fladd
  3843  0FE2  0020               	movlb	0	; select bank0
  3844  0FE3  0843               	movf	?___fladd+3,w
  3845  0FE4  00D7               	movwf	___fltol@f1+3
  3846  0FE5  0842               	movf	?___fladd+2,w
  3847  0FE6  00D6               	movwf	___fltol@f1+2
  3848  0FE7  0841               	movf	?___fladd+1,w
  3849  0FE8  00D5               	movwf	___fltol@f1+1
  3850  0FE9  0840               	movf	?___fladd,w
  3851  0FEA  00D4               	movwf	___fltol@f1
  3852  0FEB  318E  2625  318F   	fcall	___fltol
  3853  0FEE  0020               	movlb	0	; select bank0
  3854  0FEF  0855               	movf	?___fltol+1,w
  3855  0FF0  0021               	movlb	1	; select bank1
  3856  0FF1  00C5               	movwf	(map@out_diff+1)^(0+128)
  3857  0FF2  0020               	movlb	0	; select bank0
  3858  0FF3  0854               	movf	?___fltol,w
  3859  0FF4  0021               	movlb	1	; select bank1
  3860  0FF5  00C4               	movwf	map@out_diff^(0+128)
  3861                           
  3862                           ;main.c: 63: return out_max - out_diff;
  3863  0FF6  0844               	movf	map@out_diff^(0+128),w
  3864  0FF7  0020               	movlb	0	; select bank0
  3865  0FF8  0265               	subwf	map@out_max,w
  3866  0FF9  00DD               	movwf	?_map
  3867  0FFA  0021               	movlb	1	; select bank1
  3868  0FFB  0845               	movf	(map@out_diff+1)^(0+128),w
  3869  0FFC  0020               	movlb	0	; select bank0
  3870  0FFD  3B66               	subwfb	map@out_max+1,w
  3871  0FFE  00DE               	movwf	?_map+1
  3872  0FFF                     l372:
  3873  0FFF  0008               	return
  3874  1000                     __end_of_map:
  3875                           
  3876                           	psect	text7
  3877  0E9A                     __ptext7:	
  3878 ;; *************** function ___xxtofl *****************
  3879 ;; Defined at:
  3880 ;;		line 10 in file "C:\Program Files\Microchip\xc8\v2.31\pic\sources\c90\common\xxtofl.c"
  3881 ;; Parameters:    Size  Location     Type
  3882 ;;  sign            1    wreg     unsigned char 
  3883 ;;  val             4    1[COMMON] long 
  3884 ;; Auto vars:     Size  Location     Type
  3885 ;;  sign            1    0[BANK0 ] unsigned char 
  3886 ;;  arg             4    2[BANK0 ] unsigned long 
  3887 ;;  exp             1    1[BANK0 ] unsigned char 
  3888 ;; Return value:  Size  Location     Type
  3889 ;;                  4    1[COMMON] unsigned char 
  3890 ;; Registers used:
  3891 ;;		wreg, status,2, status,0
  3892 ;; Tracked objects:
  3893 ;;		On entry : 0/0
  3894 ;;		On exit  : 0/0
  3895 ;;		Unchanged: 0/0
  3896 ;; Data sizes:     COMMON   BANK0   BANK1   BANK2   BANK3   BANK4   BANK5   BANK6   BANK7   BANK8   BANK9  BANK10  BANK1
      +1  BANK12
  3897 ;;      Params:         4       0       0       0       0       0       0       0       0       0       0       0       
      +0       0
  3898 ;;      Locals:         0       6       0       0       0       0       0       0       0       0       0       0       
      +0       0
  3899 ;;      Temps:          4       0       0       0       0       0       0       0       0       0       0       0       
      +0       0
  3900 ;;      Totals:         8       6       0       0       0       0       0       0       0       0       0       0       
      +0       0
  3901 ;;Total ram usage:       14 bytes
  3902 ;; Hardware stack levels used:    1
  3903 ;; Hardware stack levels required when called:    4
  3904 ;; This function calls:
  3905 ;;		Nothing
  3906 ;; This function is called by:
  3907 ;;		_map
  3908 ;; This function uses a non-reentrant model
  3909 ;;
  3910                           
  3911                           
  3912                           ;psect for function ___xxtofl
  3913  0E9A                     ___xxtofl:
  3914                           
  3915                           ;incstack = 0
  3916                           ; Regs used in ___xxtofl: [wreg+status,2+status,0]
  3917                           ;___xxtofl@sign stored from wreg
  3918  0E9A  0020               	movlb	0	; select bank0
  3919  0E9B  00A0               	movwf	___xxtofl@sign
  3920  0E9C                     l2694:
  3921  0E9C  0820               	movf	___xxtofl@sign,w
  3922  0E9D  1903               	btfsc	3,2
  3923  0E9E  2EA0               	goto	u2981
  3924  0E9F  2EA1               	goto	u2980
  3925  0EA0                     u2981:
  3926  0EA0  2EB5               	goto	l2700
  3927  0EA1                     u2980:
  3928  0EA1                     l2696:
  3929  0EA1  1FF4               	btfss	___xxtofl@val+3,7
  3930  0EA2  2EA4               	goto	u2991
  3931  0EA3  2EA5               	goto	u2990
  3932  0EA4                     u2991:
  3933  0EA4  2EB5               	goto	l2700
  3934  0EA5                     u2990:
  3935  0EA5                     l2698:
  3936  0EA5  0971               	comf	___xxtofl@val,w
  3937  0EA6  00A2               	movwf	___xxtofl@arg
  3938  0EA7  0972               	comf	___xxtofl@val+1,w
  3939  0EA8  00A3               	movwf	___xxtofl@arg+1
  3940  0EA9  0973               	comf	___xxtofl@val+2,w
  3941  0EAA  00A4               	movwf	___xxtofl@arg+2
  3942  0EAB  0974               	comf	___xxtofl@val+3,w
  3943  0EAC  00A5               	movwf	___xxtofl@arg+3
  3944  0EAD  0AA2               	incf	___xxtofl@arg,f
  3945  0EAE  1903               	skipnz
  3946  0EAF  0AA3               	incf	___xxtofl@arg+1,f
  3947  0EB0  1903               	skipnz
  3948  0EB1  0AA4               	incf	___xxtofl@arg+2,f
  3949  0EB2  1903               	skipnz
  3950  0EB3  0AA5               	incf	___xxtofl@arg+3,f
  3951  0EB4  2EBD               	goto	l913
  3952  0EB5                     l2700:
  3953  0EB5  0874               	movf	___xxtofl@val+3,w
  3954  0EB6  00A5               	movwf	___xxtofl@arg+3
  3955  0EB7  0873               	movf	___xxtofl@val+2,w
  3956  0EB8  00A4               	movwf	___xxtofl@arg+2
  3957  0EB9  0872               	movf	___xxtofl@val+1,w
  3958  0EBA  00A3               	movwf	___xxtofl@arg+1
  3959  0EBB  0871               	movf	___xxtofl@val,w
  3960  0EBC  00A2               	movwf	___xxtofl@arg
  3961  0EBD                     l913:
  3962  0EBD  0874               	movf	___xxtofl@val+3,w
  3963  0EBE  0473               	iorwf	___xxtofl@val+2,w
  3964  0EBF  0472               	iorwf	___xxtofl@val+1,w
  3965  0EC0  0471               	iorwf	___xxtofl@val,w
  3966  0EC1  1D03               	skipz
  3967  0EC2  2EC4               	goto	u3001
  3968  0EC3  2EC5               	goto	u3000
  3969  0EC4                     u3001:
  3970  0EC4  2ECE               	goto	l2706
  3971  0EC5                     u3000:
  3972  0EC5                     l2702:
  3973  0EC5  3000               	movlw	0
  3974  0EC6  00F4               	movwf	?___xxtofl+3
  3975  0EC7  3000               	movlw	0
  3976  0EC8  00F3               	movwf	?___xxtofl+2
  3977  0EC9  3000               	movlw	0
  3978  0ECA  00F2               	movwf	?___xxtofl+1
  3979  0ECB  3000               	movlw	0
  3980  0ECC  00F1               	movwf	?___xxtofl
  3981  0ECD  2F46               	goto	l915
  3982  0ECE                     l2706:
  3983  0ECE  3096               	movlw	150
  3984  0ECF  00F5               	movwf	??___xxtofl
  3985  0ED0  0875               	movf	??___xxtofl,w
  3986  0ED1  00A1               	movwf	___xxtofl@exp
  3987  0ED2  2EDE               	goto	l2710
  3988  0ED3                     l2708:
  3989  0ED3  3001               	movlw	1
  3990  0ED4  00F5               	movwf	??___xxtofl
  3991  0ED5  0875               	movf	??___xxtofl,w
  3992  0ED6  07A1               	addwf	___xxtofl@exp,f
  3993  0ED7  3001               	movlw	1
  3994  0ED8                     u3015:
  3995  0ED8  36A5               	lsrf	___xxtofl@arg+3,f
  3996  0ED9  0CA4               	rrf	___xxtofl@arg+2,f
  3997  0EDA  0CA3               	rrf	___xxtofl@arg+1,f
  3998  0EDB  0CA2               	rrf	___xxtofl@arg,f
  3999  0EDC  0B89               	decfsz	9,f
  4000  0EDD  2ED8               	goto	u3015
  4001  0EDE                     l2710:
  4002  0EDE  30FE               	movlw	254
  4003  0EDF  0525               	andwf	___xxtofl@arg+3,w
  4004  0EE0  1D03               	btfss	3,2
  4005  0EE1  2EE3               	goto	u3021
  4006  0EE2  2EE4               	goto	u3020
  4007  0EE3                     u3021:
  4008  0EE3  2ED3               	goto	l2708
  4009  0EE4                     u3020:
  4010  0EE4  2EF8               	goto	l919
  4011  0EE5                     l2712:
  4012  0EE5  3001               	movlw	1
  4013  0EE6  00F5               	movwf	??___xxtofl
  4014  0EE7  0875               	movf	??___xxtofl,w
  4015  0EE8  07A1               	addwf	___xxtofl@exp,f
  4016  0EE9                     l2714:
  4017  0EE9  3001               	movlw	1
  4018  0EEA  07A2               	addwf	___xxtofl@arg,f
  4019  0EEB  3000               	movlw	0
  4020  0EEC  3DA3               	addwfc	___xxtofl@arg+1,f
  4021  0EED  3000               	movlw	0
  4022  0EEE  3DA4               	addwfc	___xxtofl@arg+2,f
  4023  0EEF  3000               	movlw	0
  4024  0EF0  3DA5               	addwfc	___xxtofl@arg+3,f
  4025  0EF1                     l2716:
  4026  0EF1  3001               	movlw	1
  4027  0EF2                     u3035:
  4028  0EF2  36A5               	lsrf	___xxtofl@arg+3,f
  4029  0EF3  0CA4               	rrf	___xxtofl@arg+2,f
  4030  0EF4  0CA3               	rrf	___xxtofl@arg+1,f
  4031  0EF5  0CA2               	rrf	___xxtofl@arg,f
  4032  0EF6  0B89               	decfsz	9,f
  4033  0EF7  2EF2               	goto	u3035
  4034  0EF8                     l919:
  4035  0EF8  30FF               	movlw	255
  4036  0EF9  0525               	andwf	___xxtofl@arg+3,w
  4037  0EFA  1D03               	btfss	3,2
  4038  0EFB  2EFD               	goto	u3041
  4039  0EFC  2EFE               	goto	u3040
  4040  0EFD                     u3041:
  4041  0EFD  2EE5               	goto	l2712
  4042  0EFE                     u3040:
  4043  0EFE  2F08               	goto	l2720
  4044  0EFF                     l2718:
  4045  0EFF  3001               	movlw	1
  4046  0F00  02A1               	subwf	___xxtofl@exp,f
  4047  0F01  3001               	movlw	1
  4048  0F02                     u3055:
  4049  0F02  35A2               	lslf	___xxtofl@arg,f
  4050  0F03  0DA3               	rlf	___xxtofl@arg+1,f
  4051  0F04  0DA4               	rlf	___xxtofl@arg+2,f
  4052  0F05  0DA5               	rlf	___xxtofl@arg+3,f
  4053  0F06  0B89               	decfsz	9,f
  4054  0F07  2F02               	goto	u3055
  4055  0F08                     l2720:
  4056  0F08  1BA4               	btfsc	___xxtofl@arg+2,7
  4057  0F09  2F0B               	goto	u3061
  4058  0F0A  2F0C               	goto	u3060
  4059  0F0B                     u3061:
  4060  0F0B  2F12               	goto	l926
  4061  0F0C                     u3060:
  4062  0F0C                     l2722:
  4063  0F0C  3002               	movlw	2
  4064  0F0D  0221               	subwf	___xxtofl@exp,w
  4065  0F0E  1803               	skipnc
  4066  0F0F  2F11               	goto	u3071
  4067  0F10  2F12               	goto	u3070
  4068  0F11                     u3071:
  4069  0F11  2EFF               	goto	l2718
  4070  0F12                     u3070:
  4071  0F12                     l926:
  4072  0F12  1821               	btfsc	___xxtofl@exp,0
  4073  0F13  2F15               	goto	u3081
  4074  0F14  2F16               	goto	u3080
  4075  0F15                     u3081:
  4076  0F15  2F1E               	goto	l927
  4077  0F16                     u3080:
  4078  0F16                     l2724:
  4079  0F16  30FF               	movlw	255
  4080  0F17  05A2               	andwf	___xxtofl@arg,f
  4081  0F18  30FF               	movlw	255
  4082  0F19  05A3               	andwf	___xxtofl@arg+1,f
  4083  0F1A  307F               	movlw	127
  4084  0F1B  05A4               	andwf	___xxtofl@arg+2,f
  4085  0F1C  30FF               	movlw	255
  4086  0F1D  05A5               	andwf	___xxtofl@arg+3,f
  4087  0F1E                     l927:
  4088  0F1E  1003               	clrc
  4089  0F1F  0CA1               	rrf	___xxtofl@exp,f
  4090  0F20                     l2726:
  4091  0F20  0821               	movf	___xxtofl@exp,w
  4092  0F21  00F5               	movwf	??___xxtofl
  4093  0F22  01F6               	clrf	??___xxtofl+1
  4094  0F23  01F7               	clrf	??___xxtofl+2
  4095  0F24  01F8               	clrf	??___xxtofl+3
  4096  0F25  3018               	movlw	24
  4097  0F26                     u3095:
  4098  0F26  35F5               	lslf	??___xxtofl,f
  4099  0F27  0DF6               	rlf	??___xxtofl+1,f
  4100  0F28  0DF7               	rlf	??___xxtofl+2,f
  4101  0F29  0DF8               	rlf	??___xxtofl+3,f
  4102  0F2A                     u3090:
  4103  0F2A  0B89               	decfsz	9,f
  4104  0F2B  2F26               	goto	u3095
  4105  0F2C  0875               	movf	??___xxtofl,w
  4106  0F2D  04A2               	iorwf	___xxtofl@arg,f
  4107  0F2E  0876               	movf	??___xxtofl+1,w
  4108  0F2F  04A3               	iorwf	___xxtofl@arg+1,f
  4109  0F30  0877               	movf	??___xxtofl+2,w
  4110  0F31  04A4               	iorwf	___xxtofl@arg+2,f
  4111  0F32  0878               	movf	??___xxtofl+3,w
  4112  0F33  04A5               	iorwf	___xxtofl@arg+3,f
  4113  0F34                     l2728:
  4114  0F34  0820               	movf	___xxtofl@sign,w
  4115  0F35  1903               	btfsc	3,2
  4116  0F36  2F38               	goto	u3101
  4117  0F37  2F39               	goto	u3100
  4118  0F38                     u3101:
  4119  0F38  2F3E               	goto	l2734
  4120  0F39                     u3100:
  4121  0F39                     l2730:
  4122  0F39  1FF4               	btfss	___xxtofl@val+3,7
  4123  0F3A  2F3C               	goto	u3111
  4124  0F3B  2F3D               	goto	u3110
  4125  0F3C                     u3111:
  4126  0F3C  2F3E               	goto	l2734
  4127  0F3D                     u3110:
  4128  0F3D                     l2732:
  4129  0F3D  17A5               	bsf	___xxtofl@arg+3,7
  4130  0F3E                     l2734:
  4131  0F3E  0825               	movf	___xxtofl@arg+3,w
  4132  0F3F  00F4               	movwf	?___xxtofl+3
  4133  0F40  0824               	movf	___xxtofl@arg+2,w
  4134  0F41  00F3               	movwf	?___xxtofl+2
  4135  0F42  0823               	movf	___xxtofl@arg+1,w
  4136  0F43  00F2               	movwf	?___xxtofl+1
  4137  0F44  0822               	movf	___xxtofl@arg,w
  4138  0F45  00F1               	movwf	?___xxtofl
  4139  0F46                     l915:
  4140  0F46  0008               	return
  4141  0F47                     __end_of___xxtofl:
  4142                           
  4143                           	psect	text8
  4144  0E25                     __ptext8:	
  4145 ;; *************** function ___fltol *****************
  4146 ;; Defined at:
  4147 ;;		line 43 in file "C:\Program Files\Microchip\xc8\v2.31\pic\sources\c90\common\fltol.c"
  4148 ;; Parameters:    Size  Location     Type
  4149 ;;  f1              4   52[BANK0 ] unsigned char 
  4150 ;; Auto vars:     Size  Location     Type
  4151 ;;  exp1            1   11[COMMON] unsigned char 
  4152 ;;  sign1           1   10[COMMON] unsigned char 
  4153 ;; Return value:  Size  Location     Type
  4154 ;;                  4   52[BANK0 ] long 
  4155 ;; Registers used:
  4156 ;;		wreg, status,2, status,0
  4157 ;; Tracked objects:
  4158 ;;		On entry : 0/0
  4159 ;;		On exit  : 0/0
  4160 ;;		Unchanged: 0/0
  4161 ;; Data sizes:     COMMON   BANK0   BANK1   BANK2   BANK3   BANK4   BANK5   BANK6   BANK7   BANK8   BANK9  BANK10  BANK1
      +1  BANK12
  4162 ;;      Params:         0       4       0       0       0       0       0       0       0       0       0       0       
      +0       0
  4163 ;;      Locals:         2       0       0       0       0       0       0       0       0       0       0       0       
      +0       0
  4164 ;;      Temps:          0       5       0       0       0       0       0       0       0       0       0       0       
      +0       0
  4165 ;;      Totals:         2       9       0       0       0       0       0       0       0       0       0       0       
      +0       0
  4166 ;;Total ram usage:       11 bytes
  4167 ;; Hardware stack levels used:    1
  4168 ;; Hardware stack levels required when called:    4
  4169 ;; This function calls:
  4170 ;;		Nothing
  4171 ;; This function is called by:
  4172 ;;		_map
  4173 ;; This function uses a non-reentrant model
  4174 ;;
  4175                           
  4176                           
  4177                           ;psect for function ___fltol
  4178  0E25                     ___fltol:
  4179  0E25                     l2136:	
  4180                           ;incstack = 0
  4181                           ; Regs used in ___fltol: [wreg+status,2+status,0]
  4182                           
  4183  0E25  1003               	clrc
  4184  0E26  0020               	movlb	0	; select bank0
  4185  0E27  0D56               	rlf	___fltol@f1+2,w
  4186  0E28  0D57               	rlf	___fltol@f1+3,w
  4187  0E29  00D8               	movwf	??___fltol
  4188  0E2A  0858               	movf	??___fltol,w
  4189  0E2B  00FB               	movwf	___fltol@exp1
  4190  0E2C  087B               	movf	___fltol@exp1,w
  4191  0E2D  1D03               	btfss	3,2
  4192  0E2E  2E30               	goto	u1771
  4193  0E2F  2E31               	goto	u1770
  4194  0E30                     u1771:
  4195  0E30  2E3A               	goto	l2142
  4196  0E31                     u1770:
  4197  0E31                     l2138:
  4198  0E31  3000               	movlw	0
  4199  0E32  00D7               	movwf	?___fltol+3
  4200  0E33  3000               	movlw	0
  4201  0E34  00D6               	movwf	?___fltol+2
  4202  0E35  3000               	movlw	0
  4203  0E36  00D5               	movwf	?___fltol+1
  4204  0E37  3000               	movlw	0
  4205  0E38  00D4               	movwf	?___fltol
  4206  0E39  2E99               	goto	l666
  4207  0E3A                     l2142:
  4208  0E3A  0854               	movf	___fltol@f1,w
  4209  0E3B  00D8               	movwf	??___fltol
  4210  0E3C  0855               	movf	___fltol@f1+1,w
  4211  0E3D  00D9               	movwf	??___fltol+1
  4212  0E3E  0856               	movf	___fltol@f1+2,w
  4213  0E3F  00DA               	movwf	??___fltol+2
  4214  0E40  0857               	movf	___fltol@f1+3,w
  4215  0E41  00DB               	movwf	??___fltol+3
  4216  0E42  301F               	movlw	31
  4217  0E43                     u1785:
  4218  0E43  36DB               	lsrf	??___fltol+3,f
  4219  0E44  0CDA               	rrf	??___fltol+2,f
  4220  0E45  0CD9               	rrf	??___fltol+1,f
  4221  0E46  0CD8               	rrf	??___fltol,f
  4222  0E47                     u1780:
  4223  0E47  0B89               	decfsz	9,f
  4224  0E48  2E43               	goto	u1785
  4225  0E49  0858               	movf	??___fltol,w
  4226  0E4A  00DC               	movwf	??___fltol+4
  4227  0E4B  085C               	movf	??___fltol+4,w
  4228  0E4C  00FA               	movwf	___fltol@sign1
  4229  0E4D                     l2144:
  4230  0E4D  17D6               	bsf	___fltol@f1+2,7
  4231  0E4E                     l2146:
  4232  0E4E  30FF               	movlw	255
  4233  0E4F  05D4               	andwf	___fltol@f1,f
  4234  0E50  30FF               	movlw	255
  4235  0E51  05D5               	andwf	___fltol@f1+1,f
  4236  0E52  30FF               	movlw	255
  4237  0E53  05D6               	andwf	___fltol@f1+2,f
  4238  0E54  3000               	movlw	0
  4239  0E55  05D7               	andwf	___fltol@f1+3,f
  4240  0E56                     l2148:
  4241  0E56  3096               	movlw	150
  4242  0E57  02FB               	subwf	___fltol@exp1,f
  4243  0E58                     l2150:
  4244  0E58  1FFB               	btfss	___fltol@exp1,7
  4245  0E59  2E5B               	goto	u1791
  4246  0E5A  2E5C               	goto	u1790
  4247  0E5B                     u1791:
  4248  0E5B  2E74               	goto	l2160
  4249  0E5C                     u1790:
  4250  0E5C                     l2152:
  4251  0E5C  087B               	movf	___fltol@exp1,w
  4252  0E5D  3A80               	xorlw	128
  4253  0E5E  3E97               	addlw	151
  4254  0E5F  1803               	skipnc
  4255  0E60  2E62               	goto	u1801
  4256  0E61  2E63               	goto	u1800
  4257  0E62                     u1801:
  4258  0E62  2E64               	goto	l2158
  4259  0E63                     u1800:
  4260  0E63  2E31               	goto	l2138
  4261  0E64                     l2158:
  4262  0E64  3001               	movlw	1
  4263  0E65                     u1815:
  4264  0E65  36D7               	lsrf	___fltol@f1+3,f
  4265  0E66  0CD6               	rrf	___fltol@f1+2,f
  4266  0E67  0CD5               	rrf	___fltol@f1+1,f
  4267  0E68  0CD4               	rrf	___fltol@f1,f
  4268  0E69  0B89               	decfsz	9,f
  4269  0E6A  2E65               	goto	u1815
  4270  0E6B  3001               	movlw	1
  4271  0E6C  00D8               	movwf	??___fltol
  4272  0E6D  0858               	movf	??___fltol,w
  4273  0E6E  07FB               	addwf	___fltol@exp1,f
  4274  0E6F  1D03               	btfss	3,2
  4275  0E70  2E72               	goto	u1821
  4276  0E71  2E73               	goto	u1820
  4277  0E72                     u1821:
  4278  0E72  2E64               	goto	l2158
  4279  0E73                     u1820:
  4280  0E73  2E89               	goto	l2168
  4281  0E74                     l2160:
  4282  0E74  3020               	movlw	32
  4283  0E75  027B               	subwf	___fltol@exp1,w
  4284  0E76  1C03               	skipc
  4285  0E77  2E79               	goto	u1831
  4286  0E78  2E7A               	goto	u1830
  4287  0E79                     u1831:
  4288  0E79  2E84               	goto	l673
  4289  0E7A                     u1830:
  4290  0E7A  2E31               	goto	l2138
  4291  0E7B                     l2166:
  4292  0E7B  3001               	movlw	1
  4293  0E7C                     u1845:
  4294  0E7C  35D4               	lslf	___fltol@f1,f
  4295  0E7D  0DD5               	rlf	___fltol@f1+1,f
  4296  0E7E  0DD6               	rlf	___fltol@f1+2,f
  4297  0E7F  0DD7               	rlf	___fltol@f1+3,f
  4298  0E80  0B89               	decfsz	9,f
  4299  0E81  2E7C               	goto	u1845
  4300  0E82  3001               	movlw	1
  4301  0E83  02FB               	subwf	___fltol@exp1,f
  4302  0E84                     l673:
  4303  0E84  087B               	movf	___fltol@exp1,w
  4304  0E85  1D03               	btfss	3,2
  4305  0E86  2E88               	goto	u1851
  4306  0E87  2E89               	goto	u1850
  4307  0E88                     u1851:
  4308  0E88  2E7B               	goto	l2166
  4309  0E89                     u1850:
  4310  0E89                     l2168:
  4311  0E89  087A               	movf	___fltol@sign1,w
  4312  0E8A  1903               	btfsc	3,2
  4313  0E8B  2E8D               	goto	u1861
  4314  0E8C  2E8E               	goto	u1860
  4315  0E8D                     u1861:
  4316  0E8D  2E99               	goto	l676
  4317  0E8E                     u1860:
  4318  0E8E                     l2170:
  4319  0E8E  09D4               	comf	___fltol@f1,f
  4320  0E8F  09D5               	comf	___fltol@f1+1,f
  4321  0E90  09D6               	comf	___fltol@f1+2,f
  4322  0E91  09D7               	comf	___fltol@f1+3,f
  4323  0E92  0AD4               	incf	___fltol@f1,f
  4324  0E93  1903               	skipnz
  4325  0E94  0AD5               	incf	___fltol@f1+1,f
  4326  0E95  1903               	skipnz
  4327  0E96  0AD6               	incf	___fltol@f1+2,f
  4328  0E97  1903               	skipnz
  4329  0E98  0AD7               	incf	___fltol@f1+3,f
  4330  0E99                     l676:
  4331  0E99                     l666:
  4332  0E99  0008               	return
  4333  0E9A                     __end_of___fltol:
  4334                           
  4335                           	psect	text9
  4336  0051                     __ptext9:	
  4337 ;; *************** function ___flmul *****************
  4338 ;; Defined at:
  4339 ;;		line 8 in file "C:\Program Files\Microchip\xc8\v2.31\pic\sources\c90\common\sprcmul.c"
  4340 ;; Parameters:    Size  Location     Type
  4341 ;;  b               4    6[BANK0 ] long 
  4342 ;;  a               4   10[BANK0 ] long 
  4343 ;; Auto vars:     Size  Location     Type
  4344 ;;  prod            4   26[BANK0 ] struct .
  4345 ;;  grs             4   20[BANK0 ] unsigned long 
  4346 ;;  temp            2   30[BANK0 ] struct .
  4347 ;;  bexp            1   25[BANK0 ] unsigned char 
  4348 ;;  aexp            1   24[BANK0 ] unsigned char 
  4349 ;;  sign            1   19[BANK0 ] unsigned char 
  4350 ;; Return value:  Size  Location     Type
  4351 ;;                  4    6[BANK0 ] unsigned char 
  4352 ;; Registers used:
  4353 ;;		wreg, status,2, status,0, pclath, cstack
  4354 ;; Tracked objects:
  4355 ;;		On entry : 0/0
  4356 ;;		On exit  : 0/0
  4357 ;;		Unchanged: 0/0
  4358 ;; Data sizes:     COMMON   BANK0   BANK1   BANK2   BANK3   BANK4   BANK5   BANK6   BANK7   BANK8   BANK9  BANK10  BANK1
      +1  BANK12
  4359 ;;      Params:         0       8       0       0       0       0       0       0       0       0       0       0       
      +0       0
  4360 ;;      Locals:         0      13       0       0       0       0       0       0       0       0       0       0       
      +0       0
  4361 ;;      Temps:          0       5       0       0       0       0       0       0       0       0       0       0       
      +0       0
  4362 ;;      Totals:         0      26       0       0       0       0       0       0       0       0       0       0       
      +0       0
  4363 ;;Total ram usage:       26 bytes
  4364 ;; Hardware stack levels used:    1
  4365 ;; Hardware stack levels required when called:    5
  4366 ;; This function calls:
  4367 ;;		__Umul8_16
  4368 ;; This function is called by:
  4369 ;;		_map
  4370 ;; This function uses a non-reentrant model
  4371 ;;
  4372                           
  4373                           
  4374                           ;psect for function ___flmul
  4375  0051                     ___flmul:
  4376  0051                     l2554:	
  4377                           ;incstack = 0
  4378                           ; Regs used in ___flmul: [wreg+status,2+status,0+pclath+cstack]
  4379                           
  4380  0051  0020               	movlb	0	; select bank0
  4381  0052  0829               	movf	___flmul@b+3,w
  4382  0053  3980               	andlw	128
  4383  0054  00AE               	movwf	??___flmul
  4384  0055  082E               	movf	??___flmul,w
  4385  0056  00B3               	movwf	___flmul@sign
  4386  0057                     l2556:
  4387  0057  3529               	lslf	___flmul@b+3,w
  4388  0058  00AE               	movwf	??___flmul
  4389  0059  082E               	movf	??___flmul,w
  4390  005A  00B9               	movwf	___flmul@bexp
  4391  005B                     l2558:
  4392  005B  1FA8               	btfss	___flmul@b+2,7
  4393  005C  285E               	goto	u2721
  4394  005D  285F               	goto	u2720
  4395  005E                     u2721:
  4396  005E  2860               	goto	l2562
  4397  005F                     u2720:
  4398  005F                     l2560:
  4399  005F  1439               	bsf	___flmul@bexp,0
  4400  0060                     l2562:
  4401  0060  0839               	movf	___flmul@bexp,w
  4402  0061  1903               	btfsc	3,2
  4403  0062  2864               	goto	u2731
  4404  0063  2865               	goto	u2730
  4405  0064                     u2731:
  4406  0064  2874               	goto	l2570
  4407  0065                     u2730:
  4408  0065                     l2564:
  4409  0065  0A39               	incf	___flmul@bexp,w
  4410  0066  1D03               	btfss	3,2
  4411  0067  2869               	goto	u2741
  4412  0068  286A               	goto	u2740
  4413  0069                     u2741:
  4414  0069  2872               	goto	l2568
  4415  006A                     u2740:
  4416  006A                     l2566:
  4417  006A  3000               	movlw	0
  4418  006B  00A9               	movwf	___flmul@b+3
  4419  006C  3000               	movlw	0
  4420  006D  00A8               	movwf	___flmul@b+2
  4421  006E  3000               	movlw	0
  4422  006F  00A7               	movwf	___flmul@b+1
  4423  0070  3000               	movlw	0
  4424  0071  00A6               	movwf	___flmul@b
  4425  0072                     l2568:
  4426  0072  17A8               	bsf	___flmul@b+2,7
  4427  0073  287C               	goto	l2572
  4428  0074                     l2570:
  4429  0074  3000               	movlw	0
  4430  0075  00A9               	movwf	___flmul@b+3
  4431  0076  3000               	movlw	0
  4432  0077  00A8               	movwf	___flmul@b+2
  4433  0078  3000               	movlw	0
  4434  0079  00A7               	movwf	___flmul@b+1
  4435  007A  3000               	movlw	0
  4436  007B  00A6               	movwf	___flmul@b
  4437  007C                     l2572:
  4438  007C  082D               	movf	___flmul@a+3,w
  4439  007D  3980               	andlw	128
  4440  007E  00AE               	movwf	??___flmul
  4441  007F  082E               	movf	??___flmul,w
  4442  0080  06B3               	xorwf	___flmul@sign,f
  4443  0081                     l2574:
  4444  0081  352D               	lslf	___flmul@a+3,w
  4445  0082  00AE               	movwf	??___flmul
  4446  0083  082E               	movf	??___flmul,w
  4447  0084  00B8               	movwf	___flmul@aexp
  4448  0085                     l2576:
  4449  0085  1FAC               	btfss	___flmul@a+2,7
  4450  0086  2888               	goto	u2751
  4451  0087  2889               	goto	u2750
  4452  0088                     u2751:
  4453  0088  288A               	goto	l2580
  4454  0089                     u2750:
  4455  0089                     l2578:
  4456  0089  1438               	bsf	___flmul@aexp,0
  4457  008A                     l2580:
  4458  008A  0838               	movf	___flmul@aexp,w
  4459  008B  1903               	btfsc	3,2
  4460  008C  288E               	goto	u2761
  4461  008D  288F               	goto	u2760
  4462  008E                     u2761:
  4463  008E  289E               	goto	l2588
  4464  008F                     u2760:
  4465  008F                     l2582:
  4466  008F  0A38               	incf	___flmul@aexp,w
  4467  0090  1D03               	btfss	3,2
  4468  0091  2893               	goto	u2771
  4469  0092  2894               	goto	u2770
  4470  0093                     u2771:
  4471  0093  289C               	goto	l2586
  4472  0094                     u2770:
  4473  0094                     l2584:
  4474  0094  3000               	movlw	0
  4475  0095  00AD               	movwf	___flmul@a+3
  4476  0096  3000               	movlw	0
  4477  0097  00AC               	movwf	___flmul@a+2
  4478  0098  3000               	movlw	0
  4479  0099  00AB               	movwf	___flmul@a+1
  4480  009A  3000               	movlw	0
  4481  009B  00AA               	movwf	___flmul@a
  4482  009C                     l2586:
  4483  009C  17AC               	bsf	___flmul@a+2,7
  4484  009D  28A6               	goto	l2590
  4485  009E                     l2588:
  4486  009E  3000               	movlw	0
  4487  009F  00AD               	movwf	___flmul@a+3
  4488  00A0  3000               	movlw	0
  4489  00A1  00AC               	movwf	___flmul@a+2
  4490  00A2  3000               	movlw	0
  4491  00A3  00AB               	movwf	___flmul@a+1
  4492  00A4  3000               	movlw	0
  4493  00A5  00AA               	movwf	___flmul@a
  4494  00A6                     l2590:
  4495  00A6  0838               	movf	___flmul@aexp,w
  4496  00A7  1903               	btfsc	3,2
  4497  00A8  28AA               	goto	u2781
  4498  00A9  28AB               	goto	u2780
  4499  00AA                     u2781:
  4500  00AA  28B0               	goto	l2594
  4501  00AB                     u2780:
  4502  00AB                     l2592:
  4503  00AB  0839               	movf	___flmul@bexp,w
  4504  00AC  1D03               	btfss	3,2
  4505  00AD  28AF               	goto	u2791
  4506  00AE  28B0               	goto	u2790
  4507  00AF                     u2791:
  4508  00AF  28B9               	goto	l2598
  4509  00B0                     u2790:
  4510  00B0                     l2594:
  4511  00B0  3000               	movlw	0
  4512  00B1  00A9               	movwf	?___flmul+3
  4513  00B2  3000               	movlw	0
  4514  00B3  00A8               	movwf	?___flmul+2
  4515  00B4  3000               	movlw	0
  4516  00B5  00A7               	movwf	?___flmul+1
  4517  00B6  3000               	movlw	0
  4518  00B7  00A6               	movwf	?___flmul
  4519  00B8  2AA7               	goto	l869
  4520  00B9                     l2598:
  4521  00B9  0826               	movf	___flmul@b,w
  4522  00BA  00AE               	movwf	??___flmul
  4523  00BB  082E               	movf	??___flmul,w
  4524  00BC  00F1               	movwf	__Umul8_16@multiplicand
  4525  00BD  082C               	movf	___flmul@a+2,w
  4526  00BE  318C  24C8  3180   	fcall	__Umul8_16
  4527  00C1  0872               	movf	?__Umul8_16+1,w
  4528  00C2  0020               	movlb	0	; select bank0
  4529  00C3  00BF               	movwf	___flmul@temp+1
  4530  00C4  0871               	movf	?__Umul8_16,w
  4531  00C5  00BE               	movwf	___flmul@temp
  4532  00C6                     l2600:
  4533  00C6  083E               	movf	___flmul@temp,w
  4534  00C7  00AE               	movwf	??___flmul
  4535  00C8  01AF               	clrf	??___flmul+1
  4536  00C9  01B0               	clrf	??___flmul+2
  4537  00CA  01B1               	clrf	??___flmul+3
  4538  00CB  0831               	movf	??___flmul+3,w
  4539  00CC  00B7               	movwf	___flmul@grs+3
  4540  00CD  0830               	movf	??___flmul+2,w
  4541  00CE  00B6               	movwf	___flmul@grs+2
  4542  00CF  082F               	movf	??___flmul+1,w
  4543  00D0  00B5               	movwf	___flmul@grs+1
  4544  00D1  082E               	movf	??___flmul,w
  4545  00D2  00B4               	movwf	___flmul@grs
  4546  00D3                     l2602:
  4547  00D3  083F               	movf	___flmul@temp+1,w
  4548  00D4  00AE               	movwf	??___flmul
  4549  00D5  01AF               	clrf	??___flmul+1
  4550  00D6  01B0               	clrf	??___flmul+2
  4551  00D7  01B1               	clrf	??___flmul+3
  4552  00D8  0831               	movf	??___flmul+3,w
  4553  00D9  00BD               	movwf	___flmul@prod+3
  4554  00DA  0830               	movf	??___flmul+2,w
  4555  00DB  00BC               	movwf	___flmul@prod+2
  4556  00DC  082F               	movf	??___flmul+1,w
  4557  00DD  00BB               	movwf	___flmul@prod+1
  4558  00DE  082E               	movf	??___flmul,w
  4559  00DF  00BA               	movwf	___flmul@prod
  4560  00E0  0827               	movf	___flmul@b+1,w
  4561  00E1  00AE               	movwf	??___flmul
  4562  00E2  082E               	movf	??___flmul,w
  4563  00E3  00F1               	movwf	__Umul8_16@multiplicand
  4564  00E4  082B               	movf	___flmul@a+1,w
  4565  00E5  318C  24C8  3180   	fcall	__Umul8_16
  4566  00E8  0872               	movf	?__Umul8_16+1,w
  4567  00E9  0020               	movlb	0	; select bank0
  4568  00EA  00BF               	movwf	___flmul@temp+1
  4569  00EB  0871               	movf	?__Umul8_16,w
  4570  00EC  00BE               	movwf	___flmul@temp
  4571  00ED                     l2604:
  4572  00ED  083E               	movf	___flmul@temp,w
  4573  00EE  00AE               	movwf	??___flmul
  4574  00EF  01AF               	clrf	??___flmul+1
  4575  00F0  01B0               	clrf	??___flmul+2
  4576  00F1  01B1               	clrf	??___flmul+3
  4577  00F2  082E               	movf	??___flmul,w
  4578  00F3  07B4               	addwf	___flmul@grs,f
  4579  00F4  082F               	movf	??___flmul+1,w
  4580  00F5  3DB5               	addwfc	___flmul@grs+1,f
  4581  00F6  0830               	movf	??___flmul+2,w
  4582  00F7  3DB6               	addwfc	___flmul@grs+2,f
  4583  00F8  0831               	movf	??___flmul+3,w
  4584  00F9  3DB7               	addwfc	___flmul@grs+3,f
  4585  00FA                     l2606:
  4586  00FA  083F               	movf	___flmul@temp+1,w
  4587  00FB  00AE               	movwf	??___flmul
  4588  00FC  01AF               	clrf	??___flmul+1
  4589  00FD  01B0               	clrf	??___flmul+2
  4590  00FE  01B1               	clrf	??___flmul+3
  4591  00FF  082E               	movf	??___flmul,w
  4592  0100  07BA               	addwf	___flmul@prod,f
  4593  0101  082F               	movf	??___flmul+1,w
  4594  0102  3DBB               	addwfc	___flmul@prod+1,f
  4595  0103  0830               	movf	??___flmul+2,w
  4596  0104  3DBC               	addwfc	___flmul@prod+2,f
  4597  0105  0831               	movf	??___flmul+3,w
  4598  0106  3DBD               	addwfc	___flmul@prod+3,f
  4599  0107  0828               	movf	___flmul@b+2,w
  4600  0108  00AE               	movwf	??___flmul
  4601  0109  082E               	movf	??___flmul,w
  4602  010A  00F1               	movwf	__Umul8_16@multiplicand
  4603  010B  082A               	movf	___flmul@a,w
  4604  010C  318C  24C8  3180   	fcall	__Umul8_16
  4605  010F  0872               	movf	?__Umul8_16+1,w
  4606  0110  0020               	movlb	0	; select bank0
  4607  0111  00BF               	movwf	___flmul@temp+1
  4608  0112  0871               	movf	?__Umul8_16,w
  4609  0113  00BE               	movwf	___flmul@temp
  4610  0114                     l2608:
  4611  0114  083E               	movf	___flmul@temp,w
  4612  0115  00AE               	movwf	??___flmul
  4613  0116  01AF               	clrf	??___flmul+1
  4614  0117  01B0               	clrf	??___flmul+2
  4615  0118  01B1               	clrf	??___flmul+3
  4616  0119  082E               	movf	??___flmul,w
  4617  011A  07B4               	addwf	___flmul@grs,f
  4618  011B  082F               	movf	??___flmul+1,w
  4619  011C  3DB5               	addwfc	___flmul@grs+1,f
  4620  011D  0830               	movf	??___flmul+2,w
  4621  011E  3DB6               	addwfc	___flmul@grs+2,f
  4622  011F  0831               	movf	??___flmul+3,w
  4623  0120  3DB7               	addwfc	___flmul@grs+3,f
  4624  0121                     l2610:
  4625  0121  083F               	movf	___flmul@temp+1,w
  4626  0122  00AE               	movwf	??___flmul
  4627  0123  01AF               	clrf	??___flmul+1
  4628  0124  01B0               	clrf	??___flmul+2
  4629  0125  01B1               	clrf	??___flmul+3
  4630  0126  082E               	movf	??___flmul,w
  4631  0127  07BA               	addwf	___flmul@prod,f
  4632  0128  082F               	movf	??___flmul+1,w
  4633  0129  3DBB               	addwfc	___flmul@prod+1,f
  4634  012A  0830               	movf	??___flmul+2,w
  4635  012B  3DBC               	addwfc	___flmul@prod+2,f
  4636  012C  0831               	movf	??___flmul+3,w
  4637  012D  3DBD               	addwfc	___flmul@prod+3,f
  4638  012E                     l2612:
  4639  012E  3008               	movlw	8
  4640  012F                     u2805:
  4641  012F  35B4               	lslf	___flmul@grs,f
  4642  0130  0DB5               	rlf	___flmul@grs+1,f
  4643  0131  0DB6               	rlf	___flmul@grs+2,f
  4644  0132  0DB7               	rlf	___flmul@grs+3,f
  4645  0133  0B89               	decfsz	9,f
  4646  0134  292F               	goto	u2805
  4647  0135                     l2614:
  4648  0135  0827               	movf	___flmul@b+1,w
  4649  0136  00AE               	movwf	??___flmul
  4650  0137  082E               	movf	??___flmul,w
  4651  0138  00F1               	movwf	__Umul8_16@multiplicand
  4652  0139  082A               	movf	___flmul@a,w
  4653  013A  318C  24C8  3180   	fcall	__Umul8_16
  4654  013D  0872               	movf	?__Umul8_16+1,w
  4655  013E  0020               	movlb	0	; select bank0
  4656  013F  00BF               	movwf	___flmul@temp+1
  4657  0140  0871               	movf	?__Umul8_16,w
  4658  0141  00BE               	movwf	___flmul@temp
  4659  0142                     l2616:
  4660  0142  083E               	movf	___flmul@temp,w
  4661  0143  07B4               	addwf	___flmul@grs,f
  4662  0144  083F               	movf	___flmul@temp+1,w
  4663  0145  3DB5               	addwfc	___flmul@grs+1,f
  4664  0146  3000               	movlw	0
  4665  0147  3DB6               	addwfc	___flmul@grs+2,f
  4666  0148  3DB7               	addwfc	___flmul@grs+3,f
  4667  0149                     l2618:
  4668  0149  0826               	movf	___flmul@b,w
  4669  014A  00AE               	movwf	??___flmul
  4670  014B  082E               	movf	??___flmul,w
  4671  014C  00F1               	movwf	__Umul8_16@multiplicand
  4672  014D  082B               	movf	___flmul@a+1,w
  4673  014E  318C  24C8  3180   	fcall	__Umul8_16
  4674  0151  0872               	movf	?__Umul8_16+1,w
  4675  0152  0020               	movlb	0	; select bank0
  4676  0153  00BF               	movwf	___flmul@temp+1
  4677  0154  0871               	movf	?__Umul8_16,w
  4678  0155  00BE               	movwf	___flmul@temp
  4679  0156                     l2620:
  4680  0156  083E               	movf	___flmul@temp,w
  4681  0157  07B4               	addwf	___flmul@grs,f
  4682  0158  083F               	movf	___flmul@temp+1,w
  4683  0159  3DB5               	addwfc	___flmul@grs+1,f
  4684  015A  3000               	movlw	0
  4685  015B  3DB6               	addwfc	___flmul@grs+2,f
  4686  015C  3DB7               	addwfc	___flmul@grs+3,f
  4687  015D                     l2622:
  4688  015D  3008               	movlw	8
  4689  015E                     u2815:
  4690  015E  35B4               	lslf	___flmul@grs,f
  4691  015F  0DB5               	rlf	___flmul@grs+1,f
  4692  0160  0DB6               	rlf	___flmul@grs+2,f
  4693  0161  0DB7               	rlf	___flmul@grs+3,f
  4694  0162  0B89               	decfsz	9,f
  4695  0163  295E               	goto	u2815
  4696  0164  0826               	movf	___flmul@b,w
  4697  0165  00AE               	movwf	??___flmul
  4698  0166  082E               	movf	??___flmul,w
  4699  0167  00F1               	movwf	__Umul8_16@multiplicand
  4700  0168  082A               	movf	___flmul@a,w
  4701  0169  318C  24C8  3180   	fcall	__Umul8_16
  4702  016C  0872               	movf	?__Umul8_16+1,w
  4703  016D  0020               	movlb	0	; select bank0
  4704  016E  00BF               	movwf	___flmul@temp+1
  4705  016F  0871               	movf	?__Umul8_16,w
  4706  0170  00BE               	movwf	___flmul@temp
  4707  0171                     l2624:
  4708  0171  083E               	movf	___flmul@temp,w
  4709  0172  07B4               	addwf	___flmul@grs,f
  4710  0173  083F               	movf	___flmul@temp+1,w
  4711  0174  3DB5               	addwfc	___flmul@grs+1,f
  4712  0175  3000               	movlw	0
  4713  0176  3DB6               	addwfc	___flmul@grs+2,f
  4714  0177  3DB7               	addwfc	___flmul@grs+3,f
  4715  0178                     l2626:
  4716  0178  0827               	movf	___flmul@b+1,w
  4717  0179  00AE               	movwf	??___flmul
  4718  017A  082E               	movf	??___flmul,w
  4719  017B  00F1               	movwf	__Umul8_16@multiplicand
  4720  017C  082C               	movf	___flmul@a+2,w
  4721  017D  318C  24C8  3180   	fcall	__Umul8_16
  4722  0180  0872               	movf	?__Umul8_16+1,w
  4723  0181  0020               	movlb	0	; select bank0
  4724  0182  00BF               	movwf	___flmul@temp+1
  4725  0183  0871               	movf	?__Umul8_16,w
  4726  0184  00BE               	movwf	___flmul@temp
  4727  0185  083E               	movf	___flmul@temp,w
  4728  0186  07BA               	addwf	___flmul@prod,f
  4729  0187  083F               	movf	___flmul@temp+1,w
  4730  0188  3DBB               	addwfc	___flmul@prod+1,f
  4731  0189  3000               	movlw	0
  4732  018A  3DBC               	addwfc	___flmul@prod+2,f
  4733  018B  3DBD               	addwfc	___flmul@prod+3,f
  4734  018C                     l2628:
  4735  018C  0828               	movf	___flmul@b+2,w
  4736  018D  00AE               	movwf	??___flmul
  4737  018E  082E               	movf	??___flmul,w
  4738  018F  00F1               	movwf	__Umul8_16@multiplicand
  4739  0190  082B               	movf	___flmul@a+1,w
  4740  0191  318C  24C8  3180   	fcall	__Umul8_16
  4741  0194  0872               	movf	?__Umul8_16+1,w
  4742  0195  0020               	movlb	0	; select bank0
  4743  0196  00BF               	movwf	___flmul@temp+1
  4744  0197  0871               	movf	?__Umul8_16,w
  4745  0198  00BE               	movwf	___flmul@temp
  4746  0199                     l2630:
  4747  0199  083E               	movf	___flmul@temp,w
  4748  019A  07BA               	addwf	___flmul@prod,f
  4749  019B  083F               	movf	___flmul@temp+1,w
  4750  019C  3DBB               	addwfc	___flmul@prod+1,f
  4751  019D  3000               	movlw	0
  4752  019E  3DBC               	addwfc	___flmul@prod+2,f
  4753  019F  3DBD               	addwfc	___flmul@prod+3,f
  4754  01A0  0828               	movf	___flmul@b+2,w
  4755  01A1  00AE               	movwf	??___flmul
  4756  01A2  082E               	movf	??___flmul,w
  4757  01A3  00F1               	movwf	__Umul8_16@multiplicand
  4758  01A4  082C               	movf	___flmul@a+2,w
  4759  01A5  318C  24C8  3180   	fcall	__Umul8_16
  4760  01A8  0872               	movf	?__Umul8_16+1,w
  4761  01A9  0020               	movlb	0	; select bank0
  4762  01AA  00BF               	movwf	___flmul@temp+1
  4763  01AB  0871               	movf	?__Umul8_16,w
  4764  01AC  00BE               	movwf	___flmul@temp
  4765  01AD                     l2632:
  4766  01AD  083E               	movf	___flmul@temp,w
  4767  01AE  00AE               	movwf	??___flmul
  4768  01AF  083F               	movf	___flmul@temp+1,w
  4769  01B0  00AF               	movwf	??___flmul+1
  4770  01B1  01B0               	clrf	??___flmul+2
  4771  01B2  01B1               	clrf	??___flmul+3
  4772  01B3  3008               	movlw	8
  4773  01B4                     u2825:
  4774  01B4  35AE               	lslf	??___flmul,f
  4775  01B5  0DAF               	rlf	??___flmul+1,f
  4776  01B6  0DB0               	rlf	??___flmul+2,f
  4777  01B7  0DB1               	rlf	??___flmul+3,f
  4778  01B8                     u2820:
  4779  01B8  0B89               	decfsz	9,f
  4780  01B9  29B4               	goto	u2825
  4781  01BA  082E               	movf	??___flmul,w
  4782  01BB  07BA               	addwf	___flmul@prod,f
  4783  01BC  082F               	movf	??___flmul+1,w
  4784  01BD  3DBB               	addwfc	___flmul@prod+1,f
  4785  01BE  0830               	movf	??___flmul+2,w
  4786  01BF  3DBC               	addwfc	___flmul@prod+2,f
  4787  01C0  0831               	movf	??___flmul+3,w
  4788  01C1  3DBD               	addwfc	___flmul@prod+3,f
  4789  01C2                     l2634:
  4790  01C2  0834               	movf	___flmul@grs,w
  4791  01C3  00AE               	movwf	??___flmul
  4792  01C4  0835               	movf	___flmul@grs+1,w
  4793  01C5  00AF               	movwf	??___flmul+1
  4794  01C6  0836               	movf	___flmul@grs+2,w
  4795  01C7  00B0               	movwf	??___flmul+2
  4796  01C8  0837               	movf	___flmul@grs+3,w
  4797  01C9  00B1               	movwf	??___flmul+3
  4798  01CA  3018               	movlw	24
  4799  01CB                     u2835:
  4800  01CB  36B1               	lsrf	??___flmul+3,f
  4801  01CC  0CB0               	rrf	??___flmul+2,f
  4802  01CD  0CAF               	rrf	??___flmul+1,f
  4803  01CE  0CAE               	rrf	??___flmul,f
  4804  01CF                     u2830:
  4805  01CF  0B89               	decfsz	9,f
  4806  01D0  29CB               	goto	u2835
  4807  01D1  082E               	movf	??___flmul,w
  4808  01D2  07BA               	addwf	___flmul@prod,f
  4809  01D3  082F               	movf	??___flmul+1,w
  4810  01D4  3DBB               	addwfc	___flmul@prod+1,f
  4811  01D5  0830               	movf	??___flmul+2,w
  4812  01D6  3DBC               	addwfc	___flmul@prod+2,f
  4813  01D7  0831               	movf	??___flmul+3,w
  4814  01D8  3DBD               	addwfc	___flmul@prod+3,f
  4815  01D9                     l2636:
  4816  01D9  3008               	movlw	8
  4817  01DA                     u2845:
  4818  01DA  35B4               	lslf	___flmul@grs,f
  4819  01DB  0DB5               	rlf	___flmul@grs+1,f
  4820  01DC  0DB6               	rlf	___flmul@grs+2,f
  4821  01DD  0DB7               	rlf	___flmul@grs+3,f
  4822  01DE  0B89               	decfsz	9,f
  4823  01DF  29DA               	goto	u2845
  4824  01E0                     l2638:
  4825  01E0  0839               	movf	___flmul@bexp,w
  4826  01E1  0738               	addwf	___flmul@aexp,w
  4827  01E2  00AE               	movwf	??___flmul
  4828  01E3  01AF               	clrf	??___flmul+1
  4829  01E4  0DAF               	rlf	??___flmul+1,f
  4830  01E5  082E               	movf	??___flmul,w
  4831  01E6  3E82               	addlw	130
  4832  01E7  00BE               	movwf	___flmul@temp
  4833  01E8  30FF               	movlw	255
  4834  01E9  3D2F               	addwfc	??___flmul+1,w
  4835  01EA  00BF               	movwf	___flmul@temp+1
  4836  01EB  2A03               	goto	l2650
  4837  01EC                     l2640:
  4838  01EC  3001               	movlw	1
  4839  01ED                     u2855:
  4840  01ED  35BA               	lslf	___flmul@prod,f
  4841  01EE  0DBB               	rlf	___flmul@prod+1,f
  4842  01EF  0DBC               	rlf	___flmul@prod+2,f
  4843  01F0  0DBD               	rlf	___flmul@prod+3,f
  4844  01F1  0B89               	decfsz	9,f
  4845  01F2  29ED               	goto	u2855
  4846  01F3                     l2642:
  4847  01F3  1FB7               	btfss	___flmul@grs+3,7
  4848  01F4  29F6               	goto	u2861
  4849  01F5  29F7               	goto	u2860
  4850  01F6                     u2861:
  4851  01F6  29F8               	goto	l2646
  4852  01F7                     u2860:
  4853  01F7                     l2644:
  4854  01F7  143A               	bsf	___flmul@prod,0
  4855  01F8                     l2646:
  4856  01F8  3001               	movlw	1
  4857  01F9                     u2875:
  4858  01F9  35B4               	lslf	___flmul@grs,f
  4859  01FA  0DB5               	rlf	___flmul@grs+1,f
  4860  01FB  0DB6               	rlf	___flmul@grs+2,f
  4861  01FC  0DB7               	rlf	___flmul@grs+3,f
  4862  01FD  0B89               	decfsz	9,f
  4863  01FE  29F9               	goto	u2875
  4864  01FF                     l2648:
  4865  01FF  30FF               	movlw	255
  4866  0200  07BE               	addwf	___flmul@temp,f
  4867  0201  30FF               	movlw	255
  4868  0202  3DBF               	addwfc	___flmul@temp+1,f
  4869  0203                     l2650:
  4870  0203  1FBC               	btfss	___flmul@prod+2,7
  4871  0204  2A06               	goto	u2881
  4872  0205  2A07               	goto	u2880
  4873  0206                     u2881:
  4874  0206  29EC               	goto	l2640
  4875  0207                     u2880:
  4876  0207                     l2652:
  4877  0207  01B8               	clrf	___flmul@aexp
  4878  0208                     l2654:
  4879  0208  1FB7               	btfss	___flmul@grs+3,7
  4880  0209  2A0B               	goto	u2891
  4881  020A  2A0C               	goto	u2890
  4882  020B                     u2891:
  4883  020B  2A28               	goto	l2662
  4884  020C                     u2890:
  4885  020C                     l2656:
  4886  020C  30FF               	movlw	255
  4887  020D  0534               	andwf	___flmul@grs,w
  4888  020E  00AE               	movwf	??___flmul
  4889  020F  30FF               	movlw	255
  4890  0210  0535               	andwf	___flmul@grs+1,w
  4891  0211  00AF               	movwf	??___flmul+1
  4892  0212  30FF               	movlw	255
  4893  0213  0536               	andwf	___flmul@grs+2,w
  4894  0214  00B0               	movwf	??___flmul+2
  4895  0215  307F               	movlw	127
  4896  0216  0537               	andwf	___flmul@grs+3,w
  4897  0217  00B1               	movwf	??___flmul+3
  4898  0218  0831               	movf	??___flmul+3,w
  4899  0219  0430               	iorwf	??___flmul+2,w
  4900  021A  042F               	iorwf	??___flmul+1,w
  4901  021B  042E               	iorwf	??___flmul,w
  4902  021C  1903               	skipnz
  4903  021D  2A1F               	goto	u2901
  4904  021E  2A20               	goto	u2900
  4905  021F                     u2901:
  4906  021F  2A23               	goto	l875
  4907  0220                     u2900:
  4908  0220                     l2658:
  4909  0220  01B8               	clrf	___flmul@aexp
  4910  0221  0AB8               	incf	___flmul@aexp,f
  4911  0222  2A28               	goto	l2662
  4912  0223                     l875:
  4913  0223  1C3A               	btfss	___flmul@prod,0
  4914  0224  2A26               	goto	u2911
  4915  0225  2A27               	goto	u2910
  4916  0226                     u2911:
  4917  0226  2A28               	goto	l2662
  4918  0227                     u2910:
  4919  0227  2A20               	goto	l2658
  4920  0228                     l2662:
  4921  0228  0838               	movf	___flmul@aexp,w
  4922  0229  1903               	btfsc	3,2
  4923  022A  2A2C               	goto	u2921
  4924  022B  2A2D               	goto	u2920
  4925  022C                     u2921:
  4926  022C  2A55               	goto	l2672
  4927  022D                     u2920:
  4928  022D                     l2664:
  4929  022D  3001               	movlw	1
  4930  022E  07BA               	addwf	___flmul@prod,f
  4931  022F  3000               	movlw	0
  4932  0230  3DBB               	addwfc	___flmul@prod+1,f
  4933  0231  3000               	movlw	0
  4934  0232  3DBC               	addwfc	___flmul@prod+2,f
  4935  0233  3000               	movlw	0
  4936  0234  3DBD               	addwfc	___flmul@prod+3,f
  4937  0235                     l2666:
  4938  0235  1C3D               	btfss	___flmul@prod+3,0
  4939  0236  2A38               	goto	u2931
  4940  0237  2A39               	goto	u2930
  4941  0238                     u2931:
  4942  0238  2A55               	goto	l2672
  4943  0239                     u2930:
  4944  0239                     l2668:
  4945  0239  083A               	movf	___flmul@prod,w
  4946  023A  00AE               	movwf	??___flmul
  4947  023B  083B               	movf	___flmul@prod+1,w
  4948  023C  00AF               	movwf	??___flmul+1
  4949  023D  083C               	movf	___flmul@prod+2,w
  4950  023E  00B0               	movwf	??___flmul+2
  4951  023F  083D               	movf	___flmul@prod+3,w
  4952  0240  00B1               	movwf	??___flmul+3
  4953  0241  3001               	movlw	1
  4954  0242  00B2               	movwf	??___flmul+4
  4955  0243                     u2945:
  4956  0243  37B1               	asrf	??___flmul+3,f
  4957  0244  0CB0               	rrf	??___flmul+2,f
  4958  0245  0CAF               	rrf	??___flmul+1,f
  4959  0246  0CAE               	rrf	??___flmul,f
  4960  0247                     u2940:
  4961  0247  0BB2               	decfsz	??___flmul+4,f
  4962  0248  2A43               	goto	u2945
  4963  0249  0831               	movf	??___flmul+3,w
  4964  024A  00BD               	movwf	___flmul@prod+3
  4965  024B  0830               	movf	??___flmul+2,w
  4966  024C  00BC               	movwf	___flmul@prod+2
  4967  024D  082F               	movf	??___flmul+1,w
  4968  024E  00BB               	movwf	___flmul@prod+1
  4969  024F  082E               	movf	??___flmul,w
  4970  0250  00BA               	movwf	___flmul@prod
  4971  0251                     l2670:
  4972  0251  3001               	movlw	1
  4973  0252  07BE               	addwf	___flmul@temp,f
  4974  0253  3000               	movlw	0
  4975  0254  3DBF               	addwfc	___flmul@temp+1,f
  4976  0255                     l2672:
  4977  0255  083F               	movf	___flmul@temp+1,w
  4978  0256  3A80               	xorlw	128
  4979  0257  00AE               	movwf	??___flmul
  4980  0258  3080               	movlw	128
  4981  0259  022E               	subwf	??___flmul,w
  4982  025A  1D03               	skipz
  4983  025B  2A5E               	goto	u2955
  4984  025C  30FF               	movlw	255
  4985  025D  023E               	subwf	___flmul@temp,w
  4986  025E                     u2955:
  4987  025E  1C03               	skipc
  4988  025F  2A61               	goto	u2951
  4989  0260  2A62               	goto	u2950
  4990  0261                     u2951:
  4991  0261  2A6C               	goto	l2676
  4992  0262                     u2950:
  4993  0262                     l2674:
  4994  0262  307F               	movlw	127
  4995  0263  0020               	movlb	0	; select bank0
  4996  0264  00BD               	movwf	___flmul@prod+3
  4997  0265  3080               	movlw	128
  4998  0266  00BC               	movwf	___flmul@prod+2
  4999  0267  3000               	movlw	0
  5000  0268  00BB               	movwf	___flmul@prod+1
  5001  0269  3000               	movlw	0
  5002  026A  00BA               	movwf	___flmul@prod
  5003  026B  2A9B               	goto	l881
  5004  026C                     l2676:
  5005  026C  0020               	movlb	0	; select bank0
  5006  026D  083F               	movf	___flmul@temp+1,w
  5007  026E  3A80               	xorlw	128
  5008  026F  00AE               	movwf	??___flmul
  5009  0270  3080               	movlw	128
  5010  0271  022E               	subwf	??___flmul,w
  5011  0272  1D03               	skipz
  5012  0273  2A76               	goto	u2965
  5013  0274  3001               	movlw	1
  5014  0275  023E               	subwf	___flmul@temp,w
  5015  0276                     u2965:
  5016  0276  1803               	skipnc
  5017  0277  2A79               	goto	u2961
  5018  0278  2A7A               	goto	u2960
  5019  0279                     u2961:
  5020  0279  2A85               	goto	l2682
  5021  027A                     u2960:
  5022  027A                     l2678:
  5023  027A  3000               	movlw	0
  5024  027B  0020               	movlb	0	; select bank0
  5025  027C  00BD               	movwf	___flmul@prod+3
  5026  027D  3000               	movlw	0
  5027  027E  00BC               	movwf	___flmul@prod+2
  5028  027F  3000               	movlw	0
  5029  0280  00BB               	movwf	___flmul@prod+1
  5030  0281  3000               	movlw	0
  5031  0282  00BA               	movwf	___flmul@prod
  5032  0283                     l2680:
  5033  0283  01B3               	clrf	___flmul@sign
  5034  0284  2A9B               	goto	l881
  5035  0285                     l2682:
  5036  0285  0020               	movlb	0	; select bank0
  5037  0286  083E               	movf	___flmul@temp,w
  5038  0287  00AE               	movwf	??___flmul
  5039  0288  082E               	movf	??___flmul,w
  5040  0289  00B9               	movwf	___flmul@bexp
  5041  028A  30FF               	movlw	255
  5042  028B  05BA               	andwf	___flmul@prod,f
  5043  028C  30FF               	movlw	255
  5044  028D  05BB               	andwf	___flmul@prod+1,f
  5045  028E  307F               	movlw	127
  5046  028F  05BC               	andwf	___flmul@prod+2,f
  5047  0290  3000               	movlw	0
  5048  0291  05BD               	andwf	___flmul@prod+3,f
  5049  0292                     l2684:
  5050  0292  1C39               	btfss	___flmul@bexp,0
  5051  0293  2A95               	goto	u2971
  5052  0294  2A96               	goto	u2970
  5053  0295                     u2971:
  5054  0295  2A97               	goto	l2688
  5055  0296                     u2970:
  5056  0296                     l2686:
  5057  0296  17BC               	bsf	___flmul@prod+2,7
  5058  0297                     l2688:
  5059  0297  3639               	lsrf	___flmul@bexp,w
  5060  0298  00AE               	movwf	??___flmul
  5061  0299  082E               	movf	??___flmul,w
  5062  029A  00BD               	movwf	___flmul@prod+3
  5063  029B                     l881:
  5064  029B  0833               	movf	___flmul@sign,w
  5065  029C  00AE               	movwf	??___flmul
  5066  029D  082E               	movf	??___flmul,w
  5067  029E  04BD               	iorwf	___flmul@prod+3,f
  5068  029F                     l2690:
  5069  029F  083D               	movf	___flmul@prod+3,w
  5070  02A0  00A9               	movwf	?___flmul+3
  5071  02A1  083C               	movf	___flmul@prod+2,w
  5072  02A2  00A8               	movwf	?___flmul+2
  5073  02A3  083B               	movf	___flmul@prod+1,w
  5074  02A4  00A7               	movwf	?___flmul+1
  5075  02A5  083A               	movf	___flmul@prod,w
  5076  02A6  00A6               	movwf	?___flmul
  5077  02A7                     l869:
  5078  02A7  0008               	return
  5079  02A8                     __end_of___flmul:
  5080                           
  5081                           	psect	text10
  5082  0CC8                     __ptext10:	
  5083 ;; *************** function __Umul8_16 *****************
  5084 ;; Defined at:
  5085 ;;		line 4 in file "C:\Program Files\Microchip\xc8\v2.31\pic\sources\c90\common\Umul8_16.c"
  5086 ;; Parameters:    Size  Location     Type
  5087 ;;  multiplier      1    wreg     unsigned char 
  5088 ;;  multiplicand    1    1[COMMON] unsigned char 
  5089 ;; Auto vars:     Size  Location     Type
  5090 ;;  multiplier      1    9[COMMON] unsigned char 
  5091 ;;  word_mpld       2    7[COMMON] unsigned int 
  5092 ;;  product         2    5[COMMON] unsigned int 
  5093 ;; Return value:  Size  Location     Type
  5094 ;;                  2    1[COMMON] unsigned int 
  5095 ;; Registers used:
  5096 ;;		wreg, status,2, status,0
  5097 ;; Tracked objects:
  5098 ;;		On entry : 0/0
  5099 ;;		On exit  : 0/0
  5100 ;;		Unchanged: 0/0
  5101 ;; Data sizes:     COMMON   BANK0   BANK1   BANK2   BANK3   BANK4   BANK5   BANK6   BANK7   BANK8   BANK9  BANK10  BANK1
      +1  BANK12
  5102 ;;      Params:         2       0       0       0       0       0       0       0       0       0       0       0       
      +0       0
  5103 ;;      Locals:         5       0       0       0       0       0       0       0       0       0       0       0       
      +0       0
  5104 ;;      Temps:          2       0       0       0       0       0       0       0       0       0       0       0       
      +0       0
  5105 ;;      Totals:         9       0       0       0       0       0       0       0       0       0       0       0       
      +0       0
  5106 ;;Total ram usage:        9 bytes
  5107 ;; Hardware stack levels used:    1
  5108 ;; Hardware stack levels required when called:    4
  5109 ;; This function calls:
  5110 ;;		Nothing
  5111 ;; This function is called by:
  5112 ;;		___flmul
  5113 ;; This function uses a non-reentrant model
  5114 ;;
  5115                           
  5116                           
  5117                           ;psect for function __Umul8_16
  5118  0CC8                     __Umul8_16:
  5119                           
  5120                           ;incstack = 0
  5121                           ; Regs used in __Umul8_16: [wreg+status,2+status,0]
  5122                           ;__Umul8_16@multiplier stored from wreg
  5123  0CC8  00F9               	movwf	__Umul8_16@multiplier
  5124  0CC9                     l2010:
  5125  0CC9  01F5               	clrf	__Umul8_16@product
  5126  0CCA  01F6               	clrf	__Umul8_16@product+1
  5127  0CCB                     l2012:
  5128  0CCB  0871               	movf	__Umul8_16@multiplicand,w
  5129  0CCC  00F3               	movwf	??__Umul8_16
  5130  0CCD  01F4               	clrf	??__Umul8_16+1
  5131  0CCE  0873               	movf	??__Umul8_16,w
  5132  0CCF  00F7               	movwf	__Umul8_16@word_mpld
  5133  0CD0  0874               	movf	??__Umul8_16+1,w
  5134  0CD1  00F8               	movwf	__Umul8_16@word_mpld+1
  5135  0CD2                     l2014:
  5136  0CD2  1C79               	btfss	__Umul8_16@multiplier,0
  5137  0CD3  2CD5               	goto	u1731
  5138  0CD4  2CD6               	goto	u1730
  5139  0CD5                     u1731:
  5140  0CD5  2CDA               	goto	l888
  5141  0CD6                     u1730:
  5142  0CD6                     l2016:
  5143  0CD6  0877               	movf	__Umul8_16@word_mpld,w
  5144  0CD7  07F5               	addwf	__Umul8_16@product,f
  5145  0CD8  0878               	movf	__Umul8_16@word_mpld+1,w
  5146  0CD9  3DF6               	addwfc	__Umul8_16@product+1,f
  5147  0CDA                     l888:
  5148  0CDA  3001               	movlw	1
  5149  0CDB                     u1745:
  5150  0CDB  35F7               	lslf	__Umul8_16@word_mpld,f
  5151  0CDC  0DF8               	rlf	__Umul8_16@word_mpld+1,f
  5152  0CDD  0B89               	decfsz	9,f
  5153  0CDE  2CDB               	goto	u1745
  5154  0CDF  1003               	clrc
  5155  0CE0  0CF9               	rrf	__Umul8_16@multiplier,f
  5156  0CE1                     l2018:
  5157  0CE1  0879               	movf	__Umul8_16@multiplier,w
  5158  0CE2  1D03               	btfss	3,2
  5159  0CE3  2CE5               	goto	u1751
  5160  0CE4  2CE6               	goto	u1750
  5161  0CE5                     u1751:
  5162  0CE5  2CD2               	goto	l2014
  5163  0CE6                     u1750:
  5164  0CE6                     l2020:
  5165  0CE6  0876               	movf	__Umul8_16@product+1,w
  5166  0CE7  00F2               	movwf	?__Umul8_16+1
  5167  0CE8  0875               	movf	__Umul8_16@product,w
  5168  0CE9  00F1               	movwf	?__Umul8_16
  5169  0CEA                     l890:
  5170  0CEA  0008               	return
  5171  0CEB                     __end_of__Umul8_16:
  5172                           
  5173                           	psect	text11
  5174  04E0                     __ptext11:	
  5175 ;; *************** function ___fldiv *****************
  5176 ;; Defined at:
  5177 ;;		line 8 in file "C:\Program Files\Microchip\xc8\v2.31\pic\sources\c90\common\sprcdiv.c"
  5178 ;; Parameters:    Size  Location     Type
  5179 ;;  a               4    6[BANK0 ] unsigned int 
  5180 ;;  b               4   10[BANK0 ] unsigned int 
  5181 ;; Auto vars:     Size  Location     Type
  5182 ;;  grs             4   26[BANK0 ] unsigned long 
  5183 ;;  rem             4   19[BANK0 ] unsigned long 
  5184 ;;  new_exp         2   24[BANK0 ] int 
  5185 ;;  aexp            1   31[BANK0 ] unsigned char 
  5186 ;;  bexp            1   30[BANK0 ] unsigned char 
  5187 ;;  sign            1   23[BANK0 ] unsigned char 
  5188 ;; Return value:  Size  Location     Type
  5189 ;;                  4    6[BANK0 ] unsigned char 
  5190 ;; Registers used:
  5191 ;;		wreg, status,2, status,0
  5192 ;; Tracked objects:
  5193 ;;		On entry : 0/0
  5194 ;;		On exit  : 0/0
  5195 ;;		Unchanged: 0/0
  5196 ;; Data sizes:     COMMON   BANK0   BANK1   BANK2   BANK3   BANK4   BANK5   BANK6   BANK7   BANK8   BANK9  BANK10  BANK1
      +1  BANK12
  5197 ;;      Params:         0       8       0       0       0       0       0       0       0       0       0       0       
      +0       0
  5198 ;;      Locals:         0      13       0       0       0       0       0       0       0       0       0       0       
      +0       0
  5199 ;;      Temps:          0       5       0       0       0       0       0       0       0       0       0       0       
      +0       0
  5200 ;;      Totals:         0      26       0       0       0       0       0       0       0       0       0       0       
      +0       0
  5201 ;;Total ram usage:       26 bytes
  5202 ;; Hardware stack levels used:    1
  5203 ;; Hardware stack levels required when called:    4
  5204 ;; This function calls:
  5205 ;;		Nothing
  5206 ;; This function is called by:
  5207 ;;		_map
  5208 ;; This function uses a non-reentrant model
  5209 ;;
  5210                           
  5211                           
  5212                           ;psect for function ___fldiv
  5213  04E0                     ___fldiv:
  5214  04E0                     l2414:	
  5215                           ;incstack = 0
  5216                           ; Regs used in ___fldiv: [wreg+status,2+status,0]
  5217                           
  5218  04E0  0020               	movlb	0	; select bank0
  5219  04E1  082D               	movf	___fldiv@b+3,w
  5220  04E2  3980               	andlw	128
  5221  04E3  00AE               	movwf	??___fldiv
  5222  04E4  082E               	movf	??___fldiv,w
  5223  04E5  00B7               	movwf	___fldiv@sign
  5224  04E6                     l2416:
  5225  04E6  352D               	lslf	___fldiv@b+3,w
  5226  04E7  00AE               	movwf	??___fldiv
  5227  04E8  082E               	movf	??___fldiv,w
  5228  04E9  00BE               	movwf	___fldiv@bexp
  5229  04EA                     l2418:
  5230  04EA  1FAC               	btfss	___fldiv@b+2,7
  5231  04EB  2CED               	goto	u2431
  5232  04EC  2CEE               	goto	u2430
  5233  04ED                     u2431:
  5234  04ED  2CEF               	goto	l2422
  5235  04EE                     u2430:
  5236  04EE                     l2420:
  5237  04EE  143E               	bsf	___fldiv@bexp,0
  5238  04EF                     l2422:
  5239  04EF  083E               	movf	___fldiv@bexp,w
  5240  04F0  1903               	btfsc	3,2
  5241  04F1  2CF3               	goto	u2441
  5242  04F2  2CF4               	goto	u2440
  5243  04F3                     u2441:
  5244  04F3  2D04               	goto	l2432
  5245  04F4                     u2440:
  5246  04F4                     l2424:
  5247  04F4  0A3E               	incf	___fldiv@bexp,w
  5248  04F5  1D03               	btfss	3,2
  5249  04F6  2CF8               	goto	u2451
  5250  04F7  2CF9               	goto	u2450
  5251  04F8                     u2451:
  5252  04F8  2D01               	goto	l2428
  5253  04F9                     u2450:
  5254  04F9                     l2426:
  5255  04F9  3000               	movlw	0
  5256  04FA  00AD               	movwf	___fldiv@b+3
  5257  04FB  3000               	movlw	0
  5258  04FC  00AC               	movwf	___fldiv@b+2
  5259  04FD  3000               	movlw	0
  5260  04FE  00AB               	movwf	___fldiv@b+1
  5261  04FF  3000               	movlw	0
  5262  0500  00AA               	movwf	___fldiv@b
  5263  0501                     l2428:
  5264  0501  17AC               	bsf	___fldiv@b+2,7
  5265  0502                     l2430:
  5266  0502  01AD               	clrf	___fldiv@b+3
  5267  0503  2D0C               	goto	l2434
  5268  0504                     l2432:
  5269  0504  3000               	movlw	0
  5270  0505  00AD               	movwf	___fldiv@b+3
  5271  0506  3000               	movlw	0
  5272  0507  00AC               	movwf	___fldiv@b+2
  5273  0508  3000               	movlw	0
  5274  0509  00AB               	movwf	___fldiv@b+1
  5275  050A  3000               	movlw	0
  5276  050B  00AA               	movwf	___fldiv@b
  5277  050C                     l2434:
  5278  050C  0829               	movf	___fldiv@a+3,w
  5279  050D  3980               	andlw	128
  5280  050E  00AE               	movwf	??___fldiv
  5281  050F  082E               	movf	??___fldiv,w
  5282  0510  06B7               	xorwf	___fldiv@sign,f
  5283  0511                     l2436:
  5284  0511  3529               	lslf	___fldiv@a+3,w
  5285  0512  00AE               	movwf	??___fldiv
  5286  0513  082E               	movf	??___fldiv,w
  5287  0514  00BF               	movwf	___fldiv@aexp
  5288  0515                     l2438:
  5289  0515  1FA8               	btfss	___fldiv@a+2,7
  5290  0516  2D18               	goto	u2461
  5291  0517  2D19               	goto	u2460
  5292  0518                     u2461:
  5293  0518  2D1A               	goto	l2442
  5294  0519                     u2460:
  5295  0519                     l2440:
  5296  0519  143F               	bsf	___fldiv@aexp,0
  5297  051A                     l2442:
  5298  051A  083F               	movf	___fldiv@aexp,w
  5299  051B  1903               	btfsc	3,2
  5300  051C  2D1E               	goto	u2471
  5301  051D  2D1F               	goto	u2470
  5302  051E                     u2471:
  5303  051E  2D2F               	goto	l2452
  5304  051F                     u2470:
  5305  051F                     l2444:
  5306  051F  0A3F               	incf	___fldiv@aexp,w
  5307  0520  1D03               	btfss	3,2
  5308  0521  2D23               	goto	u2481
  5309  0522  2D24               	goto	u2480
  5310  0523                     u2481:
  5311  0523  2D2C               	goto	l2448
  5312  0524                     u2480:
  5313  0524                     l2446:
  5314  0524  3000               	movlw	0
  5315  0525  00A9               	movwf	___fldiv@a+3
  5316  0526  3000               	movlw	0
  5317  0527  00A8               	movwf	___fldiv@a+2
  5318  0528  3000               	movlw	0
  5319  0529  00A7               	movwf	___fldiv@a+1
  5320  052A  3000               	movlw	0
  5321  052B  00A6               	movwf	___fldiv@a
  5322  052C                     l2448:
  5323  052C  17A8               	bsf	___fldiv@a+2,7
  5324  052D                     l2450:
  5325  052D  01A9               	clrf	___fldiv@a+3
  5326  052E  2D37               	goto	l829
  5327  052F                     l2452:
  5328  052F  3000               	movlw	0
  5329  0530  00A9               	movwf	___fldiv@a+3
  5330  0531  3000               	movlw	0
  5331  0532  00A8               	movwf	___fldiv@a+2
  5332  0533  3000               	movlw	0
  5333  0534  00A7               	movwf	___fldiv@a+1
  5334  0535  3000               	movlw	0
  5335  0536  00A6               	movwf	___fldiv@a
  5336  0537                     l829:
  5337  0537  0829               	movf	___fldiv@a+3,w
  5338  0538  0428               	iorwf	___fldiv@a+2,w
  5339  0539  0427               	iorwf	___fldiv@a+1,w
  5340  053A  0426               	iorwf	___fldiv@a,w
  5341  053B  1D03               	skipz
  5342  053C  2D3E               	goto	u2491
  5343  053D  2D3F               	goto	u2490
  5344  053E                     u2491:
  5345  053E  2D58               	goto	l2462
  5346  053F                     u2490:
  5347  053F                     l2454:
  5348  053F  3000               	movlw	0
  5349  0540  00AD               	movwf	___fldiv@b+3
  5350  0541  3000               	movlw	0
  5351  0542  00AC               	movwf	___fldiv@b+2
  5352  0543  3000               	movlw	0
  5353  0544  00AB               	movwf	___fldiv@b+1
  5354  0545  3000               	movlw	0
  5355  0546  00AA               	movwf	___fldiv@b
  5356  0547  3080               	movlw	128
  5357  0548  04AC               	iorwf	___fldiv@b+2,f
  5358  0549  307F               	movlw	127
  5359  054A  04AD               	iorwf	___fldiv@b+3,f
  5360  054B                     l2456:
  5361  054B  0837               	movf	___fldiv@sign,w
  5362  054C  00AE               	movwf	??___fldiv
  5363  054D  082E               	movf	??___fldiv,w
  5364  054E  04AD               	iorwf	___fldiv@b+3,f
  5365  054F                     l2458:
  5366  054F  082D               	movf	___fldiv@b+3,w
  5367  0550  00A9               	movwf	?___fldiv+3
  5368  0551  082C               	movf	___fldiv@b+2,w
  5369  0552  00A8               	movwf	?___fldiv+2
  5370  0553  082B               	movf	___fldiv@b+1,w
  5371  0554  00A7               	movwf	?___fldiv+1
  5372  0555  082A               	movf	___fldiv@b,w
  5373  0556  00A6               	movwf	?___fldiv
  5374  0557  2E93               	goto	l831
  5375  0558                     l2462:
  5376  0558  083E               	movf	___fldiv@bexp,w
  5377  0559  1D03               	btfss	3,2
  5378  055A  2D5C               	goto	u2501
  5379  055B  2D5D               	goto	u2500
  5380  055C                     u2501:
  5381  055C  2D66               	goto	l2468
  5382  055D                     u2500:
  5383  055D                     l2464:
  5384  055D  3000               	movlw	0
  5385  055E  00A9               	movwf	?___fldiv+3
  5386  055F  3000               	movlw	0
  5387  0560  00A8               	movwf	?___fldiv+2
  5388  0561  3000               	movlw	0
  5389  0562  00A7               	movwf	?___fldiv+1
  5390  0563  3000               	movlw	0
  5391  0564  00A6               	movwf	?___fldiv
  5392  0565  2E93               	goto	l831
  5393  0566                     l2468:
  5394  0566  083E               	movf	___fldiv@bexp,w
  5395  0567  00AE               	movwf	??___fldiv
  5396  0568  01AF               	clrf	??___fldiv+1
  5397  0569  082F               	movf	??___fldiv+1,w
  5398  056A  00B1               	movwf	??___fldiv+3
  5399  056B  083F               	movf	___fldiv@aexp,w
  5400  056C  022E               	subwf	??___fldiv,w
  5401  056D  00B0               	movwf	??___fldiv+2
  5402  056E  1C03               	skipc
  5403  056F  03B1               	decf	??___fldiv+3,f
  5404  0570  0830               	movf	??___fldiv+2,w
  5405  0571  3E7F               	addlw	127
  5406  0572  00B8               	movwf	___fldiv@new_exp
  5407  0573  3000               	movlw	0
  5408  0574  3D31               	addwfc	??___fldiv+3,w
  5409  0575  00B9               	movwf	___fldiv@new_exp+1
  5410  0576                     l2470:
  5411  0576  082D               	movf	___fldiv@b+3,w
  5412  0577  00B6               	movwf	___fldiv@rem+3
  5413  0578  082C               	movf	___fldiv@b+2,w
  5414  0579  00B5               	movwf	___fldiv@rem+2
  5415  057A  082B               	movf	___fldiv@b+1,w
  5416  057B  00B4               	movwf	___fldiv@rem+1
  5417  057C  082A               	movf	___fldiv@b,w
  5418  057D  00B3               	movwf	___fldiv@rem
  5419  057E                     l2472:
  5420  057E  3000               	movlw	0
  5421  057F  00AD               	movwf	___fldiv@b+3
  5422  0580  3000               	movlw	0
  5423  0581  00AC               	movwf	___fldiv@b+2
  5424  0582  3000               	movlw	0
  5425  0583  00AB               	movwf	___fldiv@b+1
  5426  0584  3000               	movlw	0
  5427  0585  00AA               	movwf	___fldiv@b
  5428  0586                     l2474:
  5429  0586  3000               	movlw	0
  5430  0587  00BD               	movwf	___fldiv@grs+3
  5431  0588  3000               	movlw	0
  5432  0589  00BC               	movwf	___fldiv@grs+2
  5433  058A  3000               	movlw	0
  5434  058B  00BB               	movwf	___fldiv@grs+1
  5435  058C  3000               	movlw	0
  5436  058D  00BA               	movwf	___fldiv@grs
  5437  058E                     l2476:
  5438  058E  01BF               	clrf	___fldiv@aexp
  5439  058F  2DCE               	goto	l2496
  5440  0590                     l2478:
  5441  0590  083F               	movf	___fldiv@aexp,w
  5442  0591  1903               	btfsc	3,2
  5443  0592  2D94               	goto	u2511
  5444  0593  2D95               	goto	u2510
  5445  0594                     u2511:
  5446  0594  2DAF               	goto	l2488
  5447  0595                     u2510:
  5448  0595                     l2480:
  5449  0595  3001               	movlw	1
  5450  0596                     u2525:
  5451  0596  35B3               	lslf	___fldiv@rem,f
  5452  0597  0DB4               	rlf	___fldiv@rem+1,f
  5453  0598  0DB5               	rlf	___fldiv@rem+2,f
  5454  0599  0DB6               	rlf	___fldiv@rem+3,f
  5455  059A  0B89               	decfsz	9,f
  5456  059B  2D96               	goto	u2525
  5457  059C  3001               	movlw	1
  5458  059D                     u2535:
  5459  059D  35AA               	lslf	___fldiv@b,f
  5460  059E  0DAB               	rlf	___fldiv@b+1,f
  5461  059F  0DAC               	rlf	___fldiv@b+2,f
  5462  05A0  0DAD               	rlf	___fldiv@b+3,f
  5463  05A1  0B89               	decfsz	9,f
  5464  05A2  2D9D               	goto	u2535
  5465  05A3                     l2482:
  5466  05A3  1FBD               	btfss	___fldiv@grs+3,7
  5467  05A4  2DA6               	goto	u2541
  5468  05A5  2DA7               	goto	u2540
  5469  05A6                     u2541:
  5470  05A6  2DA8               	goto	l2486
  5471  05A7                     u2540:
  5472  05A7                     l2484:
  5473  05A7  142A               	bsf	___fldiv@b,0
  5474  05A8                     l2486:
  5475  05A8  3001               	movlw	1
  5476  05A9                     u2555:
  5477  05A9  35BA               	lslf	___fldiv@grs,f
  5478  05AA  0DBB               	rlf	___fldiv@grs+1,f
  5479  05AB  0DBC               	rlf	___fldiv@grs+2,f
  5480  05AC  0DBD               	rlf	___fldiv@grs+3,f
  5481  05AD  0B89               	decfsz	9,f
  5482  05AE  2DA9               	goto	u2555
  5483  05AF                     l2488:
  5484  05AF  0829               	movf	___fldiv@a+3,w
  5485  05B0  0236               	subwf	___fldiv@rem+3,w
  5486  05B1  1D03               	skipz
  5487  05B2  2DBD               	goto	u2565
  5488  05B3  0828               	movf	___fldiv@a+2,w
  5489  05B4  0235               	subwf	___fldiv@rem+2,w
  5490  05B5  1D03               	skipz
  5491  05B6  2DBD               	goto	u2565
  5492  05B7  0827               	movf	___fldiv@a+1,w
  5493  05B8  0234               	subwf	___fldiv@rem+1,w
  5494  05B9  1D03               	skipz
  5495  05BA  2DBD               	goto	u2565
  5496  05BB  0826               	movf	___fldiv@a,w
  5497  05BC  0233               	subwf	___fldiv@rem,w
  5498  05BD                     u2565:
  5499  05BD  1C03               	skipc
  5500  05BE  2DC0               	goto	u2561
  5501  05BF  2DC1               	goto	u2560
  5502  05C0                     u2561:
  5503  05C0  2DCA               	goto	l2494
  5504  05C1                     u2560:
  5505  05C1                     l2490:
  5506  05C1  173D               	bsf	___fldiv@grs+3,6
  5507  05C2                     l2492:
  5508  05C2  0826               	movf	___fldiv@a,w
  5509  05C3  02B3               	subwf	___fldiv@rem,f
  5510  05C4  0827               	movf	___fldiv@a+1,w
  5511  05C5  3BB4               	subwfb	___fldiv@rem+1,f
  5512  05C6  0828               	movf	___fldiv@a+2,w
  5513  05C7  3BB5               	subwfb	___fldiv@rem+2,f
  5514  05C8  0829               	movf	___fldiv@a+3,w
  5515  05C9  3BB6               	subwfb	___fldiv@rem+3,f
  5516  05CA                     l2494:
  5517  05CA  3001               	movlw	1
  5518  05CB  00AE               	movwf	??___fldiv
  5519  05CC  082E               	movf	??___fldiv,w
  5520  05CD  07BF               	addwf	___fldiv@aexp,f
  5521  05CE                     l2496:
  5522  05CE  301A               	movlw	26
  5523  05CF  023F               	subwf	___fldiv@aexp,w
  5524  05D0  1C03               	skipc
  5525  05D1  2DD3               	goto	u2571
  5526  05D2  2DD4               	goto	u2570
  5527  05D3                     u2571:
  5528  05D3  2D90               	goto	l2478
  5529  05D4                     u2570:
  5530  05D4                     l2498:
  5531  05D4  0836               	movf	___fldiv@rem+3,w
  5532  05D5  0435               	iorwf	___fldiv@rem+2,w
  5533  05D6  0434               	iorwf	___fldiv@rem+1,w
  5534  05D7  0433               	iorwf	___fldiv@rem,w
  5535  05D8  1903               	skipnz
  5536  05D9  2DDB               	goto	u2581
  5537  05DA  2DDC               	goto	u2580
  5538  05DB                     u2581:
  5539  05DB  2DF5               	goto	l2512
  5540  05DC                     u2580:
  5541  05DC                     l2500:
  5542  05DC  143A               	bsf	___fldiv@grs,0
  5543  05DD  2DF5               	goto	l2512
  5544  05DE                     l2502:
  5545  05DE  3001               	movlw	1
  5546  05DF                     u2595:
  5547  05DF  35AA               	lslf	___fldiv@b,f
  5548  05E0  0DAB               	rlf	___fldiv@b+1,f
  5549  05E1  0DAC               	rlf	___fldiv@b+2,f
  5550  05E2  0DAD               	rlf	___fldiv@b+3,f
  5551  05E3  0B89               	decfsz	9,f
  5552  05E4  2DDF               	goto	u2595
  5553  05E5                     l2504:
  5554  05E5  1FBD               	btfss	___fldiv@grs+3,7
  5555  05E6  2DE8               	goto	u2601
  5556  05E7  2DE9               	goto	u2600
  5557  05E8                     u2601:
  5558  05E8  2DEA               	goto	l2508
  5559  05E9                     u2600:
  5560  05E9                     l2506:
  5561  05E9  142A               	bsf	___fldiv@b,0
  5562  05EA                     l2508:
  5563  05EA  3001               	movlw	1
  5564  05EB                     u2615:
  5565  05EB  35BA               	lslf	___fldiv@grs,f
  5566  05EC  0DBB               	rlf	___fldiv@grs+1,f
  5567  05ED  0DBC               	rlf	___fldiv@grs+2,f
  5568  05EE  0DBD               	rlf	___fldiv@grs+3,f
  5569  05EF  0B89               	decfsz	9,f
  5570  05F0  2DEB               	goto	u2615
  5571  05F1                     l2510:
  5572  05F1  30FF               	movlw	255
  5573  05F2  07B8               	addwf	___fldiv@new_exp,f
  5574  05F3  30FF               	movlw	255
  5575  05F4  3DB9               	addwfc	___fldiv@new_exp+1,f
  5576  05F5                     l2512:
  5577  05F5  1FAC               	btfss	___fldiv@b+2,7
  5578  05F6  2DF8               	goto	u2621
  5579  05F7  2DF9               	goto	u2620
  5580  05F8                     u2621:
  5581  05F8  2DDE               	goto	l2502
  5582  05F9                     u2620:
  5583  05F9                     l2514:
  5584  05F9  01BF               	clrf	___fldiv@aexp
  5585  05FA                     l2516:
  5586  05FA  1FBD               	btfss	___fldiv@grs+3,7
  5587  05FB  2DFD               	goto	u2631
  5588  05FC  2DFE               	goto	u2630
  5589  05FD                     u2631:
  5590  05FD  2E1A               	goto	l2524
  5591  05FE                     u2630:
  5592  05FE                     l2518:
  5593  05FE  30FF               	movlw	255
  5594  05FF  053A               	andwf	___fldiv@grs,w
  5595  0600  00AE               	movwf	??___fldiv
  5596  0601  30FF               	movlw	255
  5597  0602  053B               	andwf	___fldiv@grs+1,w
  5598  0603  00AF               	movwf	??___fldiv+1
  5599  0604  30FF               	movlw	255
  5600  0605  053C               	andwf	___fldiv@grs+2,w
  5601  0606  00B0               	movwf	??___fldiv+2
  5602  0607  307F               	movlw	127
  5603  0608  053D               	andwf	___fldiv@grs+3,w
  5604  0609  00B1               	movwf	??___fldiv+3
  5605  060A  0831               	movf	??___fldiv+3,w
  5606  060B  0430               	iorwf	??___fldiv+2,w
  5607  060C  042F               	iorwf	??___fldiv+1,w
  5608  060D  042E               	iorwf	??___fldiv,w
  5609  060E  1903               	skipnz
  5610  060F  2E11               	goto	u2641
  5611  0610  2E12               	goto	u2640
  5612  0611                     u2641:
  5613  0611  2E15               	goto	l845
  5614  0612                     u2640:
  5615  0612                     l2520:
  5616  0612  01BF               	clrf	___fldiv@aexp
  5617  0613  0ABF               	incf	___fldiv@aexp,f
  5618  0614  2E1A               	goto	l2524
  5619  0615                     l845:
  5620  0615  1C2A               	btfss	___fldiv@b,0
  5621  0616  2E18               	goto	u2651
  5622  0617  2E19               	goto	u2650
  5623  0618                     u2651:
  5624  0618  2E1A               	goto	l2524
  5625  0619                     u2650:
  5626  0619  2E12               	goto	l2520
  5627  061A                     l2524:
  5628  061A  083F               	movf	___fldiv@aexp,w
  5629  061B  1903               	btfsc	3,2
  5630  061C  2E1E               	goto	u2661
  5631  061D  2E1F               	goto	u2660
  5632  061E                     u2661:
  5633  061E  2E47               	goto	l2534
  5634  061F                     u2660:
  5635  061F                     l2526:
  5636  061F  3001               	movlw	1
  5637  0620  07AA               	addwf	___fldiv@b,f
  5638  0621  3000               	movlw	0
  5639  0622  3DAB               	addwfc	___fldiv@b+1,f
  5640  0623  3000               	movlw	0
  5641  0624  3DAC               	addwfc	___fldiv@b+2,f
  5642  0625  3000               	movlw	0
  5643  0626  3DAD               	addwfc	___fldiv@b+3,f
  5644  0627                     l2528:
  5645  0627  1C2D               	btfss	___fldiv@b+3,0
  5646  0628  2E2A               	goto	u2671
  5647  0629  2E2B               	goto	u2670
  5648  062A                     u2671:
  5649  062A  2E47               	goto	l2534
  5650  062B                     u2670:
  5651  062B                     l2530:
  5652  062B  082A               	movf	___fldiv@b,w
  5653  062C  00AE               	movwf	??___fldiv
  5654  062D  082B               	movf	___fldiv@b+1,w
  5655  062E  00AF               	movwf	??___fldiv+1
  5656  062F  082C               	movf	___fldiv@b+2,w
  5657  0630  00B0               	movwf	??___fldiv+2
  5658  0631  082D               	movf	___fldiv@b+3,w
  5659  0632  00B1               	movwf	??___fldiv+3
  5660  0633  3001               	movlw	1
  5661  0634  00B2               	movwf	??___fldiv+4
  5662  0635                     u2685:
  5663  0635  37B1               	asrf	??___fldiv+3,f
  5664  0636  0CB0               	rrf	??___fldiv+2,f
  5665  0637  0CAF               	rrf	??___fldiv+1,f
  5666  0638  0CAE               	rrf	??___fldiv,f
  5667  0639                     u2680:
  5668  0639  0BB2               	decfsz	??___fldiv+4,f
  5669  063A  2E35               	goto	u2685
  5670  063B  0831               	movf	??___fldiv+3,w
  5671  063C  00AD               	movwf	___fldiv@b+3
  5672  063D  0830               	movf	??___fldiv+2,w
  5673  063E  00AC               	movwf	___fldiv@b+2
  5674  063F  082F               	movf	??___fldiv+1,w
  5675  0640  00AB               	movwf	___fldiv@b+1
  5676  0641  082E               	movf	??___fldiv,w
  5677  0642  00AA               	movwf	___fldiv@b
  5678  0643                     l2532:
  5679  0643  3001               	movlw	1
  5680  0644  07B8               	addwf	___fldiv@new_exp,f
  5681  0645  3000               	movlw	0
  5682  0646  3DB9               	addwfc	___fldiv@new_exp+1,f
  5683  0647                     l2534:
  5684  0647  0839               	movf	___fldiv@new_exp+1,w
  5685  0648  3A80               	xorlw	128
  5686  0649  00AE               	movwf	??___fldiv
  5687  064A  3080               	movlw	128
  5688  064B  022E               	subwf	??___fldiv,w
  5689  064C  1D03               	skipz
  5690  064D  2E50               	goto	u2695
  5691  064E  30FF               	movlw	255
  5692  064F  0238               	subwf	___fldiv@new_exp,w
  5693  0650                     u2695:
  5694  0650  1C03               	skipc
  5695  0651  2E53               	goto	u2691
  5696  0652  2E54               	goto	u2690
  5697  0653                     u2691:
  5698  0653  2E61               	goto	l850
  5699  0654                     u2690:
  5700  0654                     l2536:
  5701  0654  30FF               	movlw	255
  5702  0655  0020               	movlb	0	; select bank0
  5703  0656  00B8               	movwf	___fldiv@new_exp
  5704  0657  3000               	movlw	0
  5705  0658  00B9               	movwf	___fldiv@new_exp+1
  5706  0659  3000               	movlw	0
  5707  065A  00AD               	movwf	___fldiv@b+3
  5708  065B  3000               	movlw	0
  5709  065C  00AC               	movwf	___fldiv@b+2
  5710  065D  3000               	movlw	0
  5711  065E  00AB               	movwf	___fldiv@b+1
  5712  065F  3000               	movlw	0
  5713  0660  00AA               	movwf	___fldiv@b
  5714  0661                     l850:
  5715  0661  0020               	movlb	0	; select bank0
  5716  0662  0839               	movf	___fldiv@new_exp+1,w
  5717  0663  3A80               	xorlw	128
  5718  0664  00AE               	movwf	??___fldiv
  5719  0665  3080               	movlw	128
  5720  0666  022E               	subwf	??___fldiv,w
  5721  0667  1D03               	skipz
  5722  0668  2E6B               	goto	u2705
  5723  0669  3001               	movlw	1
  5724  066A  0238               	subwf	___fldiv@new_exp,w
  5725  066B                     u2705:
  5726  066B  1803               	skipnc
  5727  066C  2E6E               	goto	u2701
  5728  066D  2E6F               	goto	u2700
  5729  066E                     u2701:
  5730  066E  2E7B               	goto	l851
  5731  066F                     u2700:
  5732  066F                     l2538:
  5733  066F  0020               	movlb	0	; select bank0
  5734  0670  01B8               	clrf	___fldiv@new_exp
  5735  0671  01B9               	clrf	___fldiv@new_exp+1
  5736  0672                     l2540:
  5737  0672  3000               	movlw	0
  5738  0673  00AD               	movwf	___fldiv@b+3
  5739  0674  3000               	movlw	0
  5740  0675  00AC               	movwf	___fldiv@b+2
  5741  0676  3000               	movlw	0
  5742  0677  00AB               	movwf	___fldiv@b+1
  5743  0678  3000               	movlw	0
  5744  0679  00AA               	movwf	___fldiv@b
  5745  067A                     l2542:
  5746  067A  01B7               	clrf	___fldiv@sign
  5747  067B                     l851:
  5748  067B  0020               	movlb	0	; select bank0
  5749  067C  0838               	movf	___fldiv@new_exp,w
  5750  067D  00AE               	movwf	??___fldiv
  5751  067E  082E               	movf	??___fldiv,w
  5752  067F  00BE               	movwf	___fldiv@bexp
  5753  0680                     l2544:
  5754  0680  1C3E               	btfss	___fldiv@bexp,0
  5755  0681  2E83               	goto	u2711
  5756  0682  2E84               	goto	u2710
  5757  0683                     u2711:
  5758  0683  2E86               	goto	l2548
  5759  0684                     u2710:
  5760  0684                     l2546:
  5761  0684  17AC               	bsf	___fldiv@b+2,7
  5762  0685  2E8A               	goto	l853
  5763  0686                     l2548:
  5764  0686  307F               	movlw	127
  5765  0687  00AE               	movwf	??___fldiv
  5766  0688  082E               	movf	??___fldiv,w
  5767  0689  05AC               	andwf	___fldiv@b+2,f
  5768  068A                     l853:
  5769  068A  363E               	lsrf	___fldiv@bexp,w
  5770  068B  00AE               	movwf	??___fldiv
  5771  068C  082E               	movf	??___fldiv,w
  5772  068D  00AD               	movwf	___fldiv@b+3
  5773  068E  0837               	movf	___fldiv@sign,w
  5774  068F  00AE               	movwf	??___fldiv
  5775  0690  082E               	movf	??___fldiv,w
  5776  0691  04AD               	iorwf	___fldiv@b+3,f
  5777  0692  2D4F               	goto	l2458
  5778  0693                     l831:
  5779  0693  0008               	return
  5780  0694                     __end_of___fldiv:
  5781                           
  5782                           	psect	text12
  5783  02A8                     __ptext12:	
  5784 ;; *************** function ___fladd *****************
  5785 ;; Defined at:
  5786 ;;		line 10 in file "C:\Program Files\Microchip\xc8\v2.31\pic\sources\c90\common\sprcadd.c"
  5787 ;; Parameters:    Size  Location     Type
  5788 ;;  b               4   32[BANK0 ] unsigned char 
  5789 ;;  a               4   36[BANK0 ] unsigned char 
  5790 ;; Auto vars:     Size  Location     Type
  5791 ;;  grs             1   51[BANK0 ] unsigned char 
  5792 ;;  bexp            1   50[BANK0 ] unsigned char 
  5793 ;;  aexp            1   49[BANK0 ] unsigned char 
  5794 ;;  signs           1   48[BANK0 ] unsigned char 
  5795 ;; Return value:  Size  Location     Type
  5796 ;;                  4   32[BANK0 ] unsigned char 
  5797 ;; Registers used:
  5798 ;;		wreg, status,2, status,0
  5799 ;; Tracked objects:
  5800 ;;		On entry : 0/0
  5801 ;;		On exit  : 0/0
  5802 ;;		Unchanged: 0/0
  5803 ;; Data sizes:     COMMON   BANK0   BANK1   BANK2   BANK3   BANK4   BANK5   BANK6   BANK7   BANK8   BANK9  BANK10  BANK1
      +1  BANK12
  5804 ;;      Params:         0       8       0       0       0       0       0       0       0       0       0       0       
      +0       0
  5805 ;;      Locals:         0       4       0       0       0       0       0       0       0       0       0       0       
      +0       0
  5806 ;;      Temps:          0       8       0       0       0       0       0       0       0       0       0       0       
      +0       0
  5807 ;;      Totals:         0      20       0       0       0       0       0       0       0       0       0       0       
      +0       0
  5808 ;;Total ram usage:       20 bytes
  5809 ;; Hardware stack levels used:    1
  5810 ;; Hardware stack levels required when called:    4
  5811 ;; This function calls:
  5812 ;;		Nothing
  5813 ;; This function is called by:
  5814 ;;		_map
  5815 ;; This function uses a non-reentrant model
  5816 ;;
  5817                           
  5818                           
  5819                           ;psect for function ___fladd
  5820  02A8                     ___fladd:
  5821  02A8                     l2220:	
  5822                           ;incstack = 0
  5823                           ; Regs used in ___fladd: [wreg+status,2+status,0]
  5824                           
  5825  02A8  0020               	movlb	0	; select bank0
  5826  02A9  0843               	movf	___fladd@b+3,w
  5827  02AA  3980               	andlw	128
  5828  02AB  00C8               	movwf	??___fladd
  5829  02AC  0848               	movf	??___fladd,w
  5830  02AD  00D0               	movwf	___fladd@signs
  5831  02AE                     l2222:
  5832  02AE  3543               	lslf	___fladd@b+3,w
  5833  02AF  00C8               	movwf	??___fladd
  5834  02B0  0848               	movf	??___fladd,w
  5835  02B1  00D2               	movwf	___fladd@bexp
  5836  02B2                     l2224:
  5837  02B2  1FC2               	btfss	___fladd@b+2,7
  5838  02B3  2AB5               	goto	u2001
  5839  02B4  2AB6               	goto	u2000
  5840  02B5                     u2001:
  5841  02B5  2AB7               	goto	l2228
  5842  02B6                     u2000:
  5843  02B6                     l2226:
  5844  02B6  1452               	bsf	___fladd@bexp,0
  5845  02B7                     l2228:
  5846  02B7  0852               	movf	___fladd@bexp,w
  5847  02B8  1903               	btfsc	3,2
  5848  02B9  2ABB               	goto	u2011
  5849  02BA  2ABC               	goto	u2010
  5850  02BB                     u2011:
  5851  02BB  2ACC               	goto	l2238
  5852  02BC                     u2010:
  5853  02BC                     l2230:
  5854  02BC  0A52               	incf	___fladd@bexp,w
  5855  02BD  1D03               	btfss	3,2
  5856  02BE  2AC0               	goto	u2021
  5857  02BF  2AC1               	goto	u2020
  5858  02C0                     u2021:
  5859  02C0  2AC9               	goto	l2234
  5860  02C1                     u2020:
  5861  02C1                     l2232:
  5862  02C1  3000               	movlw	0
  5863  02C2  00C3               	movwf	___fladd@b+3
  5864  02C3  3000               	movlw	0
  5865  02C4  00C2               	movwf	___fladd@b+2
  5866  02C5  3000               	movlw	0
  5867  02C6  00C1               	movwf	___fladd@b+1
  5868  02C7  3000               	movlw	0
  5869  02C8  00C0               	movwf	___fladd@b
  5870  02C9                     l2234:
  5871  02C9  17C2               	bsf	___fladd@b+2,7
  5872  02CA                     l2236:
  5873  02CA  01C3               	clrf	___fladd@b+3
  5874  02CB  2AD4               	goto	l2240
  5875  02CC                     l2238:
  5876  02CC  3000               	movlw	0
  5877  02CD  00C3               	movwf	___fladd@b+3
  5878  02CE  3000               	movlw	0
  5879  02CF  00C2               	movwf	___fladd@b+2
  5880  02D0  3000               	movlw	0
  5881  02D1  00C1               	movwf	___fladd@b+1
  5882  02D2  3000               	movlw	0
  5883  02D3  00C0               	movwf	___fladd@b
  5884  02D4                     l2240:
  5885  02D4  0847               	movf	___fladd@a+3,w
  5886  02D5  3980               	andlw	128
  5887  02D6  00C8               	movwf	??___fladd
  5888  02D7  0848               	movf	??___fladd,w
  5889  02D8  00D1               	movwf	___fladd@aexp
  5890  02D9                     l2242:
  5891  02D9  0851               	movf	___fladd@aexp,w
  5892  02DA  0650               	xorwf	___fladd@signs,w
  5893  02DB  1903               	skipnz
  5894  02DC  2ADE               	goto	u2031
  5895  02DD  2ADF               	goto	u2030
  5896  02DE                     u2031:
  5897  02DE  2AE0               	goto	l2246
  5898  02DF                     u2030:
  5899  02DF                     l2244:
  5900  02DF  1750               	bsf	___fladd@signs,6
  5901  02E0                     l2246:
  5902  02E0  3547               	lslf	___fladd@a+3,w
  5903  02E1  00C8               	movwf	??___fladd
  5904  02E2  0848               	movf	??___fladd,w
  5905  02E3  00D1               	movwf	___fladd@aexp
  5906  02E4                     l2248:
  5907  02E4  1FC6               	btfss	___fladd@a+2,7
  5908  02E5  2AE7               	goto	u2041
  5909  02E6  2AE8               	goto	u2040
  5910  02E7                     u2041:
  5911  02E7  2AE9               	goto	l2252
  5912  02E8                     u2040:
  5913  02E8                     l2250:
  5914  02E8  1451               	bsf	___fladd@aexp,0
  5915  02E9                     l2252:
  5916  02E9  0851               	movf	___fladd@aexp,w
  5917  02EA  1903               	btfsc	3,2
  5918  02EB  2AED               	goto	u2051
  5919  02EC  2AEE               	goto	u2050
  5920  02ED                     u2051:
  5921  02ED  2AFE               	goto	l2262
  5922  02EE                     u2050:
  5923  02EE                     l2254:
  5924  02EE  0A51               	incf	___fladd@aexp,w
  5925  02EF  1D03               	btfss	3,2
  5926  02F0  2AF2               	goto	u2061
  5927  02F1  2AF3               	goto	u2060
  5928  02F2                     u2061:
  5929  02F2  2AFB               	goto	l2258
  5930  02F3                     u2060:
  5931  02F3                     l2256:
  5932  02F3  3000               	movlw	0
  5933  02F4  00C7               	movwf	___fladd@a+3
  5934  02F5  3000               	movlw	0
  5935  02F6  00C6               	movwf	___fladd@a+2
  5936  02F7  3000               	movlw	0
  5937  02F8  00C5               	movwf	___fladd@a+1
  5938  02F9  3000               	movlw	0
  5939  02FA  00C4               	movwf	___fladd@a
  5940  02FB                     l2258:
  5941  02FB  17C6               	bsf	___fladd@a+2,7
  5942  02FC                     l2260:
  5943  02FC  01C7               	clrf	___fladd@a+3
  5944  02FD  2B06               	goto	l773
  5945  02FE                     l2262:
  5946  02FE  3000               	movlw	0
  5947  02FF  00C7               	movwf	___fladd@a+3
  5948  0300  3000               	movlw	0
  5949  0301  00C6               	movwf	___fladd@a+2
  5950  0302  3000               	movlw	0
  5951  0303  00C5               	movwf	___fladd@a+1
  5952  0304  3000               	movlw	0
  5953  0305  00C4               	movwf	___fladd@a
  5954  0306                     l773:
  5955  0306  0852               	movf	___fladd@bexp,w
  5956  0307  0251               	subwf	___fladd@aexp,w
  5957  0308  1803               	skipnc
  5958  0309  2B0B               	goto	u2071
  5959  030A  2B0C               	goto	u2070
  5960  030B                     u2071:
  5961  030B  2B50               	goto	l2298
  5962  030C                     u2070:
  5963  030C                     l2264:
  5964  030C  1F50               	btfss	___fladd@signs,6
  5965  030D  2B0F               	goto	u2081
  5966  030E  2B10               	goto	u2080
  5967  030F                     u2081:
  5968  030F  2B14               	goto	l2268
  5969  0310                     u2080:
  5970  0310                     l2266:
  5971  0310  3080               	movlw	128
  5972  0311  00C8               	movwf	??___fladd
  5973  0312  0848               	movf	??___fladd,w
  5974  0313  06D0               	xorwf	___fladd@signs,f
  5975  0314                     l2268:
  5976  0314  0852               	movf	___fladd@bexp,w
  5977  0315  00C8               	movwf	??___fladd
  5978  0316  0848               	movf	??___fladd,w
  5979  0317  00D3               	movwf	___fladd@grs
  5980  0318                     l2270:
  5981  0318  0851               	movf	___fladd@aexp,w
  5982  0319  00C8               	movwf	??___fladd
  5983  031A  0848               	movf	??___fladd,w
  5984  031B  00D2               	movwf	___fladd@bexp
  5985  031C                     l2272:
  5986  031C  0853               	movf	___fladd@grs,w
  5987  031D  00C8               	movwf	??___fladd
  5988  031E  0848               	movf	??___fladd,w
  5989  031F  00D1               	movwf	___fladd@aexp
  5990  0320                     l2274:
  5991  0320  0840               	movf	___fladd@b,w
  5992  0321  00C8               	movwf	??___fladd
  5993  0322  0848               	movf	??___fladd,w
  5994  0323  00D3               	movwf	___fladd@grs
  5995  0324                     l2276:
  5996  0324  0844               	movf	___fladd@a,w
  5997  0325  00C8               	movwf	??___fladd
  5998  0326  0848               	movf	??___fladd,w
  5999  0327  00C0               	movwf	___fladd@b
  6000  0328                     l2278:
  6001  0328  0853               	movf	___fladd@grs,w
  6002  0329  00C8               	movwf	??___fladd
  6003  032A  0848               	movf	??___fladd,w
  6004  032B  00C4               	movwf	___fladd@a
  6005  032C                     l2280:
  6006  032C  0841               	movf	___fladd@b+1,w
  6007  032D  00C8               	movwf	??___fladd
  6008  032E  0848               	movf	??___fladd,w
  6009  032F  00D3               	movwf	___fladd@grs
  6010  0330                     l2282:
  6011  0330  0845               	movf	___fladd@a+1,w
  6012  0331  00C8               	movwf	??___fladd
  6013  0332  0848               	movf	??___fladd,w
  6014  0333  00C1               	movwf	___fladd@b+1
  6015  0334                     l2284:
  6016  0334  0853               	movf	___fladd@grs,w
  6017  0335  00C8               	movwf	??___fladd
  6018  0336  0848               	movf	??___fladd,w
  6019  0337  00C5               	movwf	___fladd@a+1
  6020  0338                     l2286:
  6021  0338  0842               	movf	___fladd@b+2,w
  6022  0339  00C8               	movwf	??___fladd
  6023  033A  0848               	movf	??___fladd,w
  6024  033B  00D3               	movwf	___fladd@grs
  6025  033C                     l2288:
  6026  033C  0846               	movf	___fladd@a+2,w
  6027  033D  00C8               	movwf	??___fladd
  6028  033E  0848               	movf	??___fladd,w
  6029  033F  00C2               	movwf	___fladd@b+2
  6030  0340                     l2290:
  6031  0340  0853               	movf	___fladd@grs,w
  6032  0341  00C8               	movwf	??___fladd
  6033  0342  0848               	movf	??___fladd,w
  6034  0343  00C6               	movwf	___fladd@a+2
  6035  0344                     l2292:
  6036  0344  0843               	movf	___fladd@b+3,w
  6037  0345  00C8               	movwf	??___fladd
  6038  0346  0848               	movf	??___fladd,w
  6039  0347  00D3               	movwf	___fladd@grs
  6040  0348                     l2294:
  6041  0348  0847               	movf	___fladd@a+3,w
  6042  0349  00C8               	movwf	??___fladd
  6043  034A  0848               	movf	??___fladd,w
  6044  034B  00C3               	movwf	___fladd@b+3
  6045  034C                     l2296:
  6046  034C  0853               	movf	___fladd@grs,w
  6047  034D  00C8               	movwf	??___fladd
  6048  034E  0848               	movf	??___fladd,w
  6049  034F  00C7               	movwf	___fladd@a+3
  6050  0350                     l2298:
  6051  0350  01D3               	clrf	___fladd@grs
  6052  0351                     l2300:
  6053  0351  0851               	movf	___fladd@aexp,w
  6054  0352  00C8               	movwf	??___fladd
  6055  0353  01C9               	clrf	??___fladd+1
  6056  0354  0849               	movf	??___fladd+1,w
  6057  0355  00CB               	movwf	??___fladd+3
  6058  0356  0852               	movf	___fladd@bexp,w
  6059  0357  0248               	subwf	??___fladd,w
  6060  0358  00CA               	movwf	??___fladd+2
  6061  0359  1C03               	skipc
  6062  035A  03CB               	decf	??___fladd+3,f
  6063  035B  084B               	movf	??___fladd+3,w
  6064  035C  3A80               	xorlw	128
  6065  035D  00CC               	movwf	??___fladd+4
  6066  035E  3080               	movlw	128
  6067  035F  024C               	subwf	??___fladd+4,w
  6068  0360  1D03               	skipz
  6069  0361  2B64               	goto	u2095
  6070  0362  301A               	movlw	26
  6071  0363  024A               	subwf	??___fladd+2,w
  6072  0364                     u2095:
  6073  0364  1C03               	skipc
  6074  0365  2B67               	goto	u2091
  6075  0366  2B68               	goto	u2090
  6076  0367                     u2091:
  6077  0367  2BA0               	goto	l2316
  6078  0368                     u2090:
  6079  0368                     l2302:
  6080  0368  0020               	movlb	0	; select bank0
  6081  0369  0843               	movf	___fladd@b+3,w
  6082  036A  0442               	iorwf	___fladd@b+2,w
  6083  036B  0441               	iorwf	___fladd@b+1,w
  6084  036C  0440               	iorwf	___fladd@b,w
  6085  036D  1D03               	skipz
  6086  036E  2B70               	goto	u2101
  6087  036F  2B72               	goto	u2100
  6088  0370                     u2101:
  6089  0370  3001               	movlw	1
  6090  0371  2B73               	goto	u2110
  6091  0372                     u2100:
  6092  0372  3000               	movlw	0
  6093  0373                     u2110:
  6094  0373  00C8               	movwf	??___fladd
  6095  0374  0848               	movf	??___fladd,w
  6096  0375  00D3               	movwf	___fladd@grs
  6097  0376  3000               	movlw	0
  6098  0377  00C3               	movwf	___fladd@b+3
  6099  0378  3000               	movlw	0
  6100  0379  00C2               	movwf	___fladd@b+2
  6101  037A  3000               	movlw	0
  6102  037B  00C1               	movwf	___fladd@b+1
  6103  037C  3000               	movlw	0
  6104  037D  00C0               	movwf	___fladd@b
  6105  037E  0851               	movf	___fladd@aexp,w
  6106  037F  00C8               	movwf	??___fladd
  6107  0380  0848               	movf	??___fladd,w
  6108  0381  00D2               	movwf	___fladd@bexp
  6109  0382  2BA7               	goto	l777
  6110  0383                     l779:
  6111  0383  1C53               	btfss	___fladd@grs,0
  6112  0384  2B86               	goto	u2121
  6113  0385  2B87               	goto	u2120
  6114  0386                     u2121:
  6115  0386  2B8D               	goto	l2306
  6116  0387                     u2120:
  6117  0387                     l2304:
  6118  0387  3653               	lsrf	___fladd@grs,w
  6119  0388  3801               	iorlw	1
  6120  0389  00C8               	movwf	??___fladd
  6121  038A  0848               	movf	??___fladd,w
  6122  038B  00D3               	movwf	___fladd@grs
  6123  038C  2B8F               	goto	l2308
  6124  038D                     l2306:
  6125  038D  1003               	clrc
  6126  038E  0CD3               	rrf	___fladd@grs,f
  6127  038F                     l2308:
  6128  038F  1C40               	btfss	___fladd@b,0
  6129  0390  2B92               	goto	u2131
  6130  0391  2B93               	goto	u2130
  6131  0392                     u2131:
  6132  0392  2B94               	goto	l2312
  6133  0393                     u2130:
  6134  0393                     l2310:
  6135  0393  17D3               	bsf	___fladd@grs,7
  6136  0394                     l2312:
  6137  0394  3001               	movlw	1
  6138  0395  00C8               	movwf	??___fladd
  6139  0396                     u2145:
  6140  0396  37C3               	asrf	___fladd@b+3,f
  6141  0397  0CC2               	rrf	___fladd@b+2,f
  6142  0398  0CC1               	rrf	___fladd@b+1,f
  6143  0399  0CC0               	rrf	___fladd@b,f
  6144  039A  0BC8               	decfsz	??___fladd& (0+127),f
  6145  039B  2B96               	goto	u2145
  6146  039C                     l2314:
  6147  039C  3001               	movlw	1
  6148  039D  00C8               	movwf	??___fladd
  6149  039E  0848               	movf	??___fladd,w
  6150  039F  07D2               	addwf	___fladd@bexp,f
  6151  03A0                     l2316:
  6152  03A0  0020               	movlb	0	; select bank0
  6153  03A1  0851               	movf	___fladd@aexp,w
  6154  03A2  0252               	subwf	___fladd@bexp,w
  6155  03A3  1C03               	skipc
  6156  03A4  2BA6               	goto	u2151
  6157  03A5  2BA7               	goto	u2150
  6158  03A6                     u2151:
  6159  03A6  2B83               	goto	l779
  6160  03A7                     u2150:
  6161  03A7                     l777:
  6162  03A7  1B50               	btfsc	___fladd@signs,6
  6163  03A8  2BAA               	goto	u2161
  6164  03A9  2BAB               	goto	u2160
  6165  03AA                     u2161:
  6166  03AA  2BE3               	goto	l2342
  6167  03AB                     u2160:
  6168  03AB                     l2318:
  6169  03AB  0852               	movf	___fladd@bexp,w
  6170  03AC  1D03               	btfss	3,2
  6171  03AD  2BAF               	goto	u2171
  6172  03AE  2BB0               	goto	u2170
  6173  03AF                     u2171:
  6174  03AF  2BB9               	goto	l2324
  6175  03B0                     u2170:
  6176  03B0                     l2320:
  6177  03B0  3000               	movlw	0
  6178  03B1  00C3               	movwf	?___fladd+3
  6179  03B2  3000               	movlw	0
  6180  03B3  00C2               	movwf	?___fladd+2
  6181  03B4  3000               	movlw	0
  6182  03B5  00C1               	movwf	?___fladd+1
  6183  03B6  3000               	movlw	0
  6184  03B7  00C0               	movwf	?___fladd
  6185  03B8  2CDF               	goto	l786
  6186  03B9                     l2324:
  6187  03B9  0844               	movf	___fladd@a,w
  6188  03BA  07C0               	addwf	___fladd@b,f
  6189  03BB  0845               	movf	___fladd@a+1,w
  6190  03BC  3DC1               	addwfc	___fladd@b+1,f
  6191  03BD  0846               	movf	___fladd@a+2,w
  6192  03BE  3DC2               	addwfc	___fladd@b+2,f
  6193  03BF  0847               	movf	___fladd@a+3,w
  6194  03C0  3DC3               	addwfc	___fladd@b+3,f
  6195  03C1                     l2326:
  6196  03C1  1C43               	btfss	___fladd@b+3,0
  6197  03C2  2BC4               	goto	u2181
  6198  03C3  2BC5               	goto	u2180
  6199  03C4                     u2181:
  6200  03C4  2C6F               	goto	l2376
  6201  03C5                     u2180:
  6202  03C5                     l2328:
  6203  03C5  1C53               	btfss	___fladd@grs,0
  6204  03C6  2BC8               	goto	u2191
  6205  03C7  2BC9               	goto	u2190
  6206  03C8                     u2191:
  6207  03C8  2BCF               	goto	l2332
  6208  03C9                     u2190:
  6209  03C9                     l2330:
  6210  03C9  3653               	lsrf	___fladd@grs,w
  6211  03CA  3801               	iorlw	1
  6212  03CB  00C8               	movwf	??___fladd
  6213  03CC  0848               	movf	??___fladd,w
  6214  03CD  00D3               	movwf	___fladd@grs
  6215  03CE  2BD1               	goto	l2334
  6216  03CF                     l2332:
  6217  03CF  1003               	clrc
  6218  03D0  0CD3               	rrf	___fladd@grs,f
  6219  03D1                     l2334:
  6220  03D1  1C40               	btfss	___fladd@b,0
  6221  03D2  2BD4               	goto	u2201
  6222  03D3  2BD5               	goto	u2200
  6223  03D4                     u2201:
  6224  03D4  2BD6               	goto	l2338
  6225  03D5                     u2200:
  6226  03D5                     l2336:
  6227  03D5  17D3               	bsf	___fladd@grs,7
  6228  03D6                     l2338:
  6229  03D6  3001               	movlw	1
  6230  03D7  00C8               	movwf	??___fladd
  6231  03D8                     u2215:
  6232  03D8  37C3               	asrf	___fladd@b+3,f
  6233  03D9  0CC2               	rrf	___fladd@b+2,f
  6234  03DA  0CC1               	rrf	___fladd@b+1,f
  6235  03DB  0CC0               	rrf	___fladd@b,f
  6236  03DC  0BC8               	decfsz	??___fladd& (0+127),f
  6237  03DD  2BD8               	goto	u2215
  6238  03DE                     l2340:
  6239  03DE  3001               	movlw	1
  6240  03DF  00C8               	movwf	??___fladd
  6241  03E0  0848               	movf	??___fladd,w
  6242  03E1  07D2               	addwf	___fladd@bexp,f
  6243  03E2  2C6F               	goto	l2376
  6244  03E3                     l2342:
  6245  03E3  0843               	movf	___fladd@b+3,w
  6246  03E4  3A80               	xorlw	128
  6247  03E5  00C8               	movwf	??___fladd
  6248  03E6  0847               	movf	___fladd@a+3,w
  6249  03E7  3A80               	xorlw	128
  6250  03E8  0248               	subwf	??___fladd,w
  6251  03E9  1D03               	skipz
  6252  03EA  2BF5               	goto	u2223
  6253  03EB  0846               	movf	___fladd@a+2,w
  6254  03EC  0242               	subwf	___fladd@b+2,w
  6255  03ED  1D03               	skipz
  6256  03EE  2BF5               	goto	u2223
  6257  03EF  0845               	movf	___fladd@a+1,w
  6258  03F0  0241               	subwf	___fladd@b+1,w
  6259  03F1  1D03               	skipz
  6260  03F2  2BF5               	goto	u2223
  6261  03F3  0844               	movf	___fladd@a,w
  6262  03F4  0240               	subwf	___fladd@b,w
  6263  03F5                     u2223:
  6264  03F5  1803               	skipnc
  6265  03F6  2BF8               	goto	u2221
  6266  03F7  2BF9               	goto	u2220
  6267  03F8                     u2221:
  6268  03F8  2C31               	goto	l2352
  6269  03F9                     u2220:
  6270  03F9                     l2344:
  6271  03F9  30FF               	movlw	255
  6272  03FA  00C8               	movwf	??___fladd
  6273  03FB  30FF               	movlw	255
  6274  03FC  00C9               	movwf	??___fladd+1
  6275  03FD  30FF               	movlw	255
  6276  03FE  00CA               	movwf	??___fladd+2
  6277  03FF  30FF               	movlw	255
  6278  0400  00CB               	movwf	??___fladd+3
  6279  0401  0840               	movf	___fladd@b,w
  6280  0402  0244               	subwf	___fladd@a,w
  6281  0403  00CC               	movwf	??___fladd+4
  6282  0404  0841               	movf	___fladd@b+1,w
  6283  0405  3B45               	subwfb	___fladd@a+1,w
  6284  0406  00CD               	movwf	??___fladd+5
  6285  0407  0842               	movf	___fladd@b+2,w
  6286  0408  3B46               	subwfb	___fladd@a+2,w
  6287  0409  00CE               	movwf	??___fladd+6
  6288  040A  0843               	movf	___fladd@b+3,w
  6289  040B  3B47               	subwfb	___fladd@a+3,w
  6290  040C  00CF               	movwf	??___fladd+7
  6291  040D  084C               	movf	??___fladd+4,w
  6292  040E  07C8               	addwf	??___fladd,f
  6293  040F  084D               	movf	??___fladd+5,w
  6294  0410  3DC9               	addwfc	??___fladd+1,f
  6295  0411  084E               	movf	??___fladd+6,w
  6296  0412  3DCA               	addwfc	??___fladd+2,f
  6297  0413  084F               	movf	??___fladd+7,w
  6298  0414  3DCB               	addwfc	??___fladd+3,f
  6299  0415  084B               	movf	??___fladd+3,w
  6300  0416  00C3               	movwf	___fladd@b+3
  6301  0417  084A               	movf	??___fladd+2,w
  6302  0418  00C2               	movwf	___fladd@b+2
  6303  0419  0849               	movf	??___fladd+1,w
  6304  041A  00C1               	movwf	___fladd@b+1
  6305  041B  0848               	movf	??___fladd,w
  6306  041C  00C0               	movwf	___fladd@b
  6307  041D                     l2346:
  6308  041D  3080               	movlw	128
  6309  041E  00C8               	movwf	??___fladd
  6310  041F  0848               	movf	??___fladd,w
  6311  0420  06D0               	xorwf	___fladd@signs,f
  6312  0421  09D3               	comf	___fladd@grs,f
  6313  0422  0AD3               	incf	___fladd@grs,f
  6314  0423                     l2348:
  6315  0423  0853               	movf	___fladd@grs,w
  6316  0424  1D03               	btfss	3,2
  6317  0425  2C27               	goto	u2231
  6318  0426  2C28               	goto	u2230
  6319  0427                     u2231:
  6320  0427  2C39               	goto	l794
  6321  0428                     u2230:
  6322  0428                     l2350:
  6323  0428  3001               	movlw	1
  6324  0429  07C0               	addwf	___fladd@b,f
  6325  042A  3000               	movlw	0
  6326  042B  3DC1               	addwfc	___fladd@b+1,f
  6327  042C  3000               	movlw	0
  6328  042D  3DC2               	addwfc	___fladd@b+2,f
  6329  042E  3000               	movlw	0
  6330  042F  3DC3               	addwfc	___fladd@b+3,f
  6331  0430  2C39               	goto	l794
  6332  0431                     l2352:
  6333  0431  0844               	movf	___fladd@a,w
  6334  0432  02C0               	subwf	___fladd@b,f
  6335  0433  0845               	movf	___fladd@a+1,w
  6336  0434  3BC1               	subwfb	___fladd@b+1,f
  6337  0435  0846               	movf	___fladd@a+2,w
  6338  0436  3BC2               	subwfb	___fladd@b+2,f
  6339  0437  0847               	movf	___fladd@a+3,w
  6340  0438  3BC3               	subwfb	___fladd@b+3,f
  6341  0439                     l794:
  6342  0439  0843               	movf	___fladd@b+3,w
  6343  043A  0442               	iorwf	___fladd@b+2,w
  6344  043B  0441               	iorwf	___fladd@b+1,w
  6345  043C  0440               	iorwf	___fladd@b,w
  6346  043D  1D03               	skipz
  6347  043E  2C40               	goto	u2241
  6348  043F  2C41               	goto	u2240
  6349  0440                     u2241:
  6350  0440  2C6B               	goto	l2374
  6351  0441                     u2240:
  6352  0441                     l2354:
  6353  0441  0853               	movf	___fladd@grs,w
  6354  0442  1D03               	btfss	3,2
  6355  0443  2C45               	goto	u2251
  6356  0444  2C46               	goto	u2250
  6357  0445                     u2251:
  6358  0445  2C6B               	goto	l2374
  6359  0446                     u2250:
  6360  0446                     l2356:
  6361  0446  3000               	movlw	0
  6362  0447  00C3               	movwf	?___fladd+3
  6363  0448  3000               	movlw	0
  6364  0449  00C2               	movwf	?___fladd+2
  6365  044A  3000               	movlw	0
  6366  044B  00C1               	movwf	?___fladd+1
  6367  044C  3000               	movlw	0
  6368  044D  00C0               	movwf	?___fladd
  6369  044E  2CDF               	goto	l786
  6370  044F                     l2360:
  6371  044F  3001               	movlw	1
  6372  0450                     u2265:
  6373  0450  35C0               	lslf	___fladd@b,f
  6374  0451  0DC1               	rlf	___fladd@b+1,f
  6375  0452  0DC2               	rlf	___fladd@b+2,f
  6376  0453  0DC3               	rlf	___fladd@b+3,f
  6377  0454  0B89               	decfsz	9,f
  6378  0455  2C50               	goto	u2265
  6379  0456                     l2362:
  6380  0456  1FD3               	btfss	___fladd@grs,7
  6381  0457  2C59               	goto	u2271
  6382  0458  2C5A               	goto	u2270
  6383  0459                     u2271:
  6384  0459  2C5B               	goto	l798
  6385  045A                     u2270:
  6386  045A                     l2364:
  6387  045A  1440               	bsf	___fladd@b,0
  6388  045B                     l798:
  6389  045B  1C53               	btfss	___fladd@grs,0
  6390  045C  2C5E               	goto	u2281
  6391  045D  2C5F               	goto	u2280
  6392  045E                     u2281:
  6393  045E  2C62               	goto	l2368
  6394  045F                     u2280:
  6395  045F                     l2366:
  6396  045F  1403               	setc
  6397  0460  0DD3               	rlf	___fladd@grs,f
  6398  0461  2C64               	goto	l2370
  6399  0462                     l2368:
  6400  0462  1003               	clrc
  6401  0463  0DD3               	rlf	___fladd@grs,f
  6402  0464                     l2370:
  6403  0464  0852               	movf	___fladd@bexp,w
  6404  0465  1903               	btfsc	3,2
  6405  0466  2C68               	goto	u2291
  6406  0467  2C69               	goto	u2290
  6407  0468                     u2291:
  6408  0468  2C6B               	goto	l2374
  6409  0469                     u2290:
  6410  0469                     l2372:
  6411  0469  3001               	movlw	1
  6412  046A  02D2               	subwf	___fladd@bexp,f
  6413  046B                     l2374:
  6414  046B  1FC2               	btfss	___fladd@b+2,7
  6415  046C  2C6E               	goto	u2301
  6416  046D  2C6F               	goto	u2300
  6417  046E                     u2301:
  6418  046E  2C4F               	goto	l2360
  6419  046F                     u2300:
  6420  046F                     l2376:
  6421  046F  01D1               	clrf	___fladd@aexp
  6422  0470                     l2378:
  6423  0470  1FD3               	btfss	___fladd@grs,7
  6424  0471  2C73               	goto	u2311
  6425  0472  2C74               	goto	u2310
  6426  0473                     u2311:
  6427  0473  2C82               	goto	l2386
  6428  0474                     u2310:
  6429  0474                     l2380:
  6430  0474  0853               	movf	___fladd@grs,w
  6431  0475  397F               	andlw	127
  6432  0476  1903               	btfsc	3,2
  6433  0477  2C79               	goto	u2321
  6434  0478  2C7A               	goto	u2320
  6435  0479                     u2321:
  6436  0479  2C7D               	goto	l804
  6437  047A                     u2320:
  6438  047A                     l2382:
  6439  047A  01D1               	clrf	___fladd@aexp
  6440  047B  0AD1               	incf	___fladd@aexp,f
  6441  047C  2C82               	goto	l2386
  6442  047D                     l804:
  6443  047D  1C40               	btfss	___fladd@b,0
  6444  047E  2C80               	goto	u2331
  6445  047F  2C81               	goto	u2330
  6446  0480                     u2331:
  6447  0480  2C82               	goto	l2386
  6448  0481                     u2330:
  6449  0481  2C7A               	goto	l2382
  6450  0482                     l2386:
  6451  0482  0851               	movf	___fladd@aexp,w
  6452  0483  1903               	btfsc	3,2
  6453  0484  2C86               	goto	u2341
  6454  0485  2C87               	goto	u2340
  6455  0486                     u2341:
  6456  0486  2CB4               	goto	l807
  6457  0487                     u2340:
  6458  0487                     l2388:
  6459  0487  3001               	movlw	1
  6460  0488  07C0               	addwf	___fladd@b,f
  6461  0489  3000               	movlw	0
  6462  048A  3DC1               	addwfc	___fladd@b+1,f
  6463  048B  3000               	movlw	0
  6464  048C  3DC2               	addwfc	___fladd@b+2,f
  6465  048D  3000               	movlw	0
  6466  048E  3DC3               	addwfc	___fladd@b+3,f
  6467  048F                     l2390:
  6468  048F  1C43               	btfss	___fladd@b+3,0
  6469  0490  2C92               	goto	u2351
  6470  0491  2C93               	goto	u2350
  6471  0492                     u2351:
  6472  0492  2CB4               	goto	l807
  6473  0493                     u2350:
  6474  0493                     l2392:
  6475  0493  0840               	movf	___fladd@b,w
  6476  0494  00C8               	movwf	??___fladd
  6477  0495  0841               	movf	___fladd@b+1,w
  6478  0496  00C9               	movwf	??___fladd+1
  6479  0497  0842               	movf	___fladd@b+2,w
  6480  0498  00CA               	movwf	??___fladd+2
  6481  0499  0843               	movf	___fladd@b+3,w
  6482  049A  00CB               	movwf	??___fladd+3
  6483  049B  3001               	movlw	1
  6484  049C  00CC               	movwf	??___fladd+4
  6485  049D                     u2365:
  6486  049D  37CB               	asrf	??___fladd+3,f
  6487  049E  0CCA               	rrf	??___fladd+2,f
  6488  049F  0CC9               	rrf	??___fladd+1,f
  6489  04A0  0CC8               	rrf	??___fladd,f
  6490  04A1                     u2360:
  6491  04A1  0BCC               	decfsz	??___fladd+4,f
  6492  04A2  2C9D               	goto	u2365
  6493  04A3  084B               	movf	??___fladd+3,w
  6494  04A4  00C3               	movwf	___fladd@b+3
  6495  04A5  084A               	movf	??___fladd+2,w
  6496  04A6  00C2               	movwf	___fladd@b+2
  6497  04A7  0849               	movf	??___fladd+1,w
  6498  04A8  00C1               	movwf	___fladd@b+1
  6499  04A9  0848               	movf	??___fladd,w
  6500  04AA  00C0               	movwf	___fladd@b
  6501  04AB  0A52               	incf	___fladd@bexp,w
  6502  04AC  1903               	btfsc	3,2
  6503  04AD  2CAF               	goto	u2371
  6504  04AE  2CB0               	goto	u2370
  6505  04AF                     u2371:
  6506  04AF  2CB4               	goto	l807
  6507  04B0                     u2370:
  6508  04B0                     l2394:
  6509  04B0  3001               	movlw	1
  6510  04B1  00C8               	movwf	??___fladd
  6511  04B2  0848               	movf	??___fladd,w
  6512  04B3  07D2               	addwf	___fladd@bexp,f
  6513  04B4                     l807:
  6514  04B4  0A52               	incf	___fladd@bexp,w
  6515  04B5  1903               	btfsc	3,2
  6516  04B6  2CB8               	goto	u2381
  6517  04B7  2CB9               	goto	u2380
  6518  04B8                     u2381:
  6519  04B8  2CBE               	goto	l2398
  6520  04B9                     u2380:
  6521  04B9                     l2396:
  6522  04B9  0852               	movf	___fladd@bexp,w
  6523  04BA  1D03               	btfss	3,2
  6524  04BB  2CBD               	goto	u2391
  6525  04BC  2CBE               	goto	u2390
  6526  04BD                     u2391:
  6527  04BD  2CCC               	goto	l2404
  6528  04BE                     u2390:
  6529  04BE                     l2398:
  6530  04BE  3000               	movlw	0
  6531  04BF  00C3               	movwf	___fladd@b+3
  6532  04C0  3000               	movlw	0
  6533  04C1  00C2               	movwf	___fladd@b+2
  6534  04C2  3000               	movlw	0
  6535  04C3  00C1               	movwf	___fladd@b+1
  6536  04C4  3000               	movlw	0
  6537  04C5  00C0               	movwf	___fladd@b
  6538  04C6                     l2400:
  6539  04C6  0852               	movf	___fladd@bexp,w
  6540  04C7  1D03               	btfss	3,2
  6541  04C8  2CCA               	goto	u2401
  6542  04C9  2CCB               	goto	u2400
  6543  04CA                     u2401:
  6544  04CA  2CCC               	goto	l2404
  6545  04CB                     u2400:
  6546  04CB                     l2402:
  6547  04CB  01D0               	clrf	___fladd@signs
  6548  04CC                     l2404:
  6549  04CC  1C52               	btfss	___fladd@bexp,0
  6550  04CD  2CCF               	goto	u2411
  6551  04CE  2CD0               	goto	u2410
  6552  04CF                     u2411:
  6553  04CF  2CD2               	goto	l2408
  6554  04D0                     u2410:
  6555  04D0                     l2406:
  6556  04D0  17C2               	bsf	___fladd@b+2,7
  6557  04D1  2CD6               	goto	l815
  6558  04D2                     l2408:
  6559  04D2  307F               	movlw	127
  6560  04D3  00C8               	movwf	??___fladd
  6561  04D4  0848               	movf	??___fladd,w
  6562  04D5  05C2               	andwf	___fladd@b+2,f
  6563  04D6                     l815:
  6564  04D6  3652               	lsrf	___fladd@bexp,w
  6565  04D7  00C8               	movwf	??___fladd
  6566  04D8  0848               	movf	??___fladd,w
  6567  04D9  00C3               	movwf	___fladd@b+3
  6568  04DA                     l2410:
  6569  04DA  1FD0               	btfss	___fladd@signs,7
  6570  04DB  2CDD               	goto	u2421
  6571  04DC  2CDE               	goto	u2420
  6572  04DD                     u2421:
  6573  04DD  2CDF               	goto	l816
  6574  04DE                     u2420:
  6575  04DE                     l2412:
  6576  04DE  17C3               	bsf	___fladd@b+3,7
  6577  04DF                     l816:
  6578  04DF                     l786:
  6579  04DF  0008               	return
  6580  04E0                     __end_of___fladd:
  6581                           
  6582                           	psect	text13
  6583  0C5C                     __ptext13:	
  6584 ;; *************** function _SYSTEM_Initialize *****************
  6585 ;; Defined at:
  6586 ;;		line 50 in file "mcc_generated_files/mcc.c"
  6587 ;; Parameters:    Size  Location     Type
  6588 ;;		None
  6589 ;; Auto vars:     Size  Location     Type
  6590 ;;		None
  6591 ;; Return value:  Size  Location     Type
  6592 ;;                  1    wreg      void 
  6593 ;; Registers used:
  6594 ;;		wreg, status,2, status,0, pclath, cstack
  6595 ;; Tracked objects:
  6596 ;;		On entry : 0/0
  6597 ;;		On exit  : 0/0
  6598 ;;		Unchanged: 0/0
  6599 ;; Data sizes:     COMMON   BANK0   BANK1   BANK2   BANK3   BANK4   BANK5   BANK6   BANK7   BANK8   BANK9  BANK10  BANK1
      +1  BANK12
  6600 ;;      Params:         0       0       0       0       0       0       0       0       0       0       0       0       
      +0       0
  6601 ;;      Locals:         0       0       0       0       0       0       0       0       0       0       0       0       
      +0       0
  6602 ;;      Temps:          0       0       0       0       0       0       0       0       0       0       0       0       
      +0       0
  6603 ;;      Totals:         0       0       0       0       0       0       0       0       0       0       0       0       
      +0       0
  6604 ;;Total ram usage:        0 bytes
  6605 ;; Hardware stack levels used:    1
  6606 ;; Hardware stack levels required when called:    6
  6607 ;; This function calls:
  6608 ;;		_ADC_Initialize
  6609 ;;		_EUSART_Initialize
  6610 ;;		_OSCILLATOR_Initialize
  6611 ;;		_PIN_MANAGER_Initialize
  6612 ;;		_PWM1_Initialize
  6613 ;;		_TMR2_Initialize
  6614 ;;		_WDT_Initialize
  6615 ;; This function is called by:
  6616 ;;		_main
  6617 ;; This function uses a non-reentrant model
  6618 ;;
  6619                           
  6620                           
  6621                           ;psect for function _SYSTEM_Initialize
  6622  0C5C                     _SYSTEM_Initialize:
  6623  0C5C                     l2742:	
  6624                           ;incstack = 0
  6625                           ; Regs used in _SYSTEM_Initialize: [wreg+status,2+status,0+pclath+cstack]
  6626                           
  6627                           
  6628                           ;mcc.c: 53: PIN_MANAGER_Initialize();
  6629  0C5C  318C  24EB  318C   	fcall	_PIN_MANAGER_Initialize
  6630                           
  6631                           ;mcc.c: 54: OSCILLATOR_Initialize();
  6632  0C5F  318C  2423  318C   	fcall	_OSCILLATOR_Initialize
  6633                           
  6634                           ;mcc.c: 55: WDT_Initialize();
  6635  0C62  318B  23EF  318C   	fcall	_WDT_Initialize
  6636                           
  6637                           ;mcc.c: 56: PWM1_Initialize();
  6638  0C65  318C  2434  318C   	fcall	_PWM1_Initialize
  6639                           
  6640                           ;mcc.c: 57: ADC_Initialize();
  6641  0C68  318C  242B  318C   	fcall	_ADC_Initialize
  6642                           
  6643                           ;mcc.c: 58: TMR2_Initialize();
  6644  0C6B  318C  244A  318C   	fcall	_TMR2_Initialize
  6645                           
  6646                           ;mcc.c: 59: EUSART_Initialize();
  6647  0C6E  318D  25E6  318C   	fcall	_EUSART_Initialize
  6648  0C71                     l134:
  6649  0C71  0008               	return
  6650  0C72                     __end_of_SYSTEM_Initialize:
  6651                           
  6652                           	psect	text14
  6653  0BEF                     __ptext14:	
  6654 ;; *************** function _WDT_Initialize *****************
  6655 ;; Defined at:
  6656 ;;		line 74 in file "mcc_generated_files/mcc.c"
  6657 ;; Parameters:    Size  Location     Type
  6658 ;;		None
  6659 ;; Auto vars:     Size  Location     Type
  6660 ;;		None
  6661 ;; Return value:  Size  Location     Type
  6662 ;;                  1    wreg      void 
  6663 ;; Registers used:
  6664 ;;		wreg
  6665 ;; Tracked objects:
  6666 ;;		On entry : 0/0
  6667 ;;		On exit  : 0/0
  6668 ;;		Unchanged: 0/0
  6669 ;; Data sizes:     COMMON   BANK0   BANK1   BANK2   BANK3   BANK4   BANK5   BANK6   BANK7   BANK8   BANK9  BANK10  BANK1
      +1  BANK12
  6670 ;;      Params:         0       0       0       0       0       0       0       0       0       0       0       0       
      +0       0
  6671 ;;      Locals:         0       0       0       0       0       0       0       0       0       0       0       0       
      +0       0
  6672 ;;      Temps:          0       0       0       0       0       0       0       0       0       0       0       0       
      +0       0
  6673 ;;      Totals:         0       0       0       0       0       0       0       0       0       0       0       0       
      +0       0
  6674 ;;Total ram usage:        0 bytes
  6675 ;; Hardware stack levels used:    1
  6676 ;; Hardware stack levels required when called:    4
  6677 ;; This function calls:
  6678 ;;		Nothing
  6679 ;; This function is called by:
  6680 ;;		_SYSTEM_Initialize
  6681 ;; This function uses a non-reentrant model
  6682 ;;
  6683                           
  6684                           
  6685                           ;psect for function _WDT_Initialize
  6686  0BEF                     _WDT_Initialize:
  6687  0BEF                     l2086:	
  6688                           ;incstack = 0
  6689                           ; Regs used in _WDT_Initialize: [wreg]
  6690                           
  6691                           
  6692                           ;mcc.c: 77: WDTCON = 0x16;
  6693  0BEF  3016               	movlw	22
  6694  0BF0  0021               	movlb	1	; select bank1
  6695  0BF1  0097               	movwf	23	;volatile
  6696  0BF2                     l140:
  6697  0BF2  0008               	return
  6698  0BF3                     __end_of_WDT_Initialize:
  6699                           
  6700                           	psect	text15
  6701  0C4A                     __ptext15:	
  6702 ;; *************** function _TMR2_Initialize *****************
  6703 ;; Defined at:
  6704 ;;		line 64 in file "mcc_generated_files/tmr2.c"
  6705 ;; Parameters:    Size  Location     Type
  6706 ;;		None
  6707 ;; Auto vars:     Size  Location     Type
  6708 ;;		None
  6709 ;; Return value:  Size  Location     Type
  6710 ;;                  1    wreg      void 
  6711 ;; Registers used:
  6712 ;;		wreg, status,2, status,0, pclath, cstack
  6713 ;; Tracked objects:
  6714 ;;		On entry : 0/0
  6715 ;;		On exit  : 0/0
  6716 ;;		Unchanged: 0/0
  6717 ;; Data sizes:     COMMON   BANK0   BANK1   BANK2   BANK3   BANK4   BANK5   BANK6   BANK7   BANK8   BANK9  BANK10  BANK1
      +1  BANK12
  6718 ;;      Params:         0       0       0       0       0       0       0       0       0       0       0       0       
      +0       0
  6719 ;;      Locals:         0       0       0       0       0       0       0       0       0       0       0       0       
      +0       0
  6720 ;;      Temps:          0       0       0       0       0       0       0       0       0       0       0       0       
      +0       0
  6721 ;;      Totals:         0       0       0       0       0       0       0       0       0       0       0       0       
      +0       0
  6722 ;;Total ram usage:        0 bytes
  6723 ;; Hardware stack levels used:    1
  6724 ;; Hardware stack levels required when called:    5
  6725 ;; This function calls:
  6726 ;;		_TMR2_SetInterruptHandler
  6727 ;; This function is called by:
  6728 ;;		_SYSTEM_Initialize
  6729 ;; This function uses a non-reentrant model
  6730 ;;
  6731                           
  6732                           
  6733                           ;psect for function _TMR2_Initialize
  6734  0C4A                     _TMR2_Initialize:
  6735  0C4A                     l2062:	
  6736                           ;incstack = 0
  6737                           ; Regs used in _TMR2_Initialize: [wreg+status,2+status,0+pclath+cstack]
  6738                           
  6739                           
  6740                           ;tmr2.c: 69: PR2 = 0x03;
  6741  0C4A  3003               	movlw	3
  6742  0C4B  0020               	movlb	0	; select bank0
  6743  0C4C  009B               	movwf	27	;volatile
  6744  0C4D                     l2064:
  6745                           
  6746                           ;tmr2.c: 72: TMR2 = 0x00;
  6747  0C4D  019A               	clrf	26	;volatile
  6748  0C4E                     l2066:
  6749                           
  6750                           ;tmr2.c: 75: PIR1bits.TMR2IF = 0;
  6751  0C4E  1091               	bcf	17,1	;volatile
  6752  0C4F                     l2068:
  6753                           
  6754                           ;tmr2.c: 78: PIE1bits.TMR2IE = 1;
  6755  0C4F  0021               	movlb	1	; select bank1
  6756  0C50  1491               	bsf	17,1	;volatile
  6757  0C51                     l2070:
  6758                           
  6759                           ;tmr2.c: 81: TMR2_SetInterruptHandler(TMR2_DefaultInterruptHandler);
  6760  0C51  30FF               	movlw	low _TMR2_DefaultInterruptHandler
  6761  0C52  00F1               	movwf	TMR2_SetInterruptHandler@InterruptHandler
  6762  0C53  3007               	movlw	high _TMR2_DefaultInterruptHandler
  6763  0C54  00F2               	movwf	TMR2_SetInterruptHandler@InterruptHandler+1
  6764  0C55  318C  2417  318C   	fcall	_TMR2_SetInterruptHandler
  6765  0C58                     l2072:
  6766                           
  6767                           ;tmr2.c: 84: T2CON = 0x1F;
  6768  0C58  301F               	movlw	31
  6769  0C59  0020               	movlb	0	; select bank0
  6770  0C5A  009C               	movwf	28	;volatile
  6771  0C5B                     l79:
  6772  0C5B  0008               	return
  6773  0C5C                     __end_of_TMR2_Initialize:
  6774                           
  6775                           	psect	text16
  6776  0C17                     __ptext16:	
  6777 ;; *************** function _TMR2_SetInterruptHandler *****************
  6778 ;; Defined at:
  6779 ;;		line 140 in file "mcc_generated_files/tmr2.c"
  6780 ;; Parameters:    Size  Location     Type
  6781 ;;  InterruptHan    2    1[COMMON] PTR FTN()void 
  6782 ;;		 -> TMR2_DefaultInterruptHandler(1), 
  6783 ;; Auto vars:     Size  Location     Type
  6784 ;;		None
  6785 ;; Return value:  Size  Location     Type
  6786 ;;                  1    wreg      void 
  6787 ;; Registers used:
  6788 ;;		wreg
  6789 ;; Tracked objects:
  6790 ;;		On entry : 0/0
  6791 ;;		On exit  : 0/0
  6792 ;;		Unchanged: 0/0
  6793 ;; Data sizes:     COMMON   BANK0   BANK1   BANK2   BANK3   BANK4   BANK5   BANK6   BANK7   BANK8   BANK9  BANK10  BANK1
      +1  BANK12
  6794 ;;      Params:         2       0       0       0       0       0       0       0       0       0       0       0       
      +0       0
  6795 ;;      Locals:         0       0       0       0       0       0       0       0       0       0       0       0       
      +0       0
  6796 ;;      Temps:          0       0       0       0       0       0       0       0       0       0       0       0       
      +0       0
  6797 ;;      Totals:         2       0       0       0       0       0       0       0       0       0       0       0       
      +0       0
  6798 ;;Total ram usage:        2 bytes
  6799 ;; Hardware stack levels used:    1
  6800 ;; Hardware stack levels required when called:    4
  6801 ;; This function calls:
  6802 ;;		Nothing
  6803 ;; This function is called by:
  6804 ;;		_TMR2_Initialize
  6805 ;; This function uses a non-reentrant model
  6806 ;;
  6807                           
  6808                           
  6809                           ;psect for function _TMR2_SetInterruptHandler
  6810  0C17                     _TMR2_SetInterruptHandler:
  6811  0C17                     l1970:	
  6812                           ;incstack = 0
  6813                           ; Regs used in _TMR2_SetInterruptHandler: [wreg]
  6814                           
  6815                           
  6816                           ;tmr2.c: 141: TMR2_InterruptHandler = InterruptHandler;
  6817  0C17  0872               	movf	TMR2_SetInterruptHandler@InterruptHandler+1,w
  6818  0C18  0021               	movlb	1	; select bank1
  6819  0C19  00DD               	movwf	(_TMR2_InterruptHandler+1)^(0+128)
  6820  0C1A  0871               	movf	TMR2_SetInterruptHandler@InterruptHandler,w
  6821  0C1B  00DC               	movwf	_TMR2_InterruptHandler^(0+128)
  6822  0C1C                     l104:
  6823  0C1C  0008               	return
  6824  0C1D                     __end_of_TMR2_SetInterruptHandler:
  6825                           
  6826                           	psect	text17
  6827  0C34                     __ptext17:	
  6828 ;; *************** function _PWM1_Initialize *****************
  6829 ;; Defined at:
  6830 ;;		line 64 in file "mcc_generated_files/pwm1.c"
  6831 ;; Parameters:    Size  Location     Type
  6832 ;;		None
  6833 ;; Auto vars:     Size  Location     Type
  6834 ;;		None
  6835 ;; Return value:  Size  Location     Type
  6836 ;;                  1    wreg      void 
  6837 ;; Registers used:
  6838 ;;		wreg, status,2, status,0
  6839 ;; Tracked objects:
  6840 ;;		On entry : 0/0
  6841 ;;		On exit  : 0/0
  6842 ;;		Unchanged: 0/0
  6843 ;; Data sizes:     COMMON   BANK0   BANK1   BANK2   BANK3   BANK4   BANK5   BANK6   BANK7   BANK8   BANK9  BANK10  BANK1
      +1  BANK12
  6844 ;;      Params:         0       0       0       0       0       0       0       0       0       0       0       0       
      +0       0
  6845 ;;      Locals:         0       0       0       0       0       0       0       0       0       0       0       0       
      +0       0
  6846 ;;      Temps:          0       0       0       0       0       0       0       0       0       0       0       0       
      +0       0
  6847 ;;      Totals:         0       0       0       0       0       0       0       0       0       0       0       0       
      +0       0
  6848 ;;Total ram usage:        0 bytes
  6849 ;; Hardware stack levels used:    1
  6850 ;; Hardware stack levels required when called:    4
  6851 ;; This function calls:
  6852 ;;		Nothing
  6853 ;; This function is called by:
  6854 ;;		_SYSTEM_Initialize
  6855 ;; This function uses a non-reentrant model
  6856 ;;
  6857                           
  6858                           
  6859                           ;psect for function _PWM1_Initialize
  6860  0C34                     _PWM1_Initialize:
  6861  0C34                     l2056:	
  6862                           ;incstack = 0
  6863                           ; Regs used in _PWM1_Initialize: [wreg+status,2+status,0]
  6864                           
  6865                           
  6866                           ;pwm1.c: 69: CCP1CON = 0x1C;
  6867  0C34  301C               	movlw	28
  6868  0C35  0025               	movlb	5	; select bank5
  6869  0C36  0093               	movwf	19	;volatile
  6870                           
  6871                           ;pwm1.c: 72: CCPR1L = 0x3E;
  6872  0C37  303E               	movlw	62
  6873  0C38  0091               	movwf	17	;volatile
  6874  0C39                     l2058:
  6875                           
  6876                           ;pwm1.c: 75: CCPR1H = 0x00;
  6877  0C39  0192               	clrf	18	;volatile
  6878  0C3A                     l2060:
  6879                           
  6880                           ;pwm1.c: 78: CCPTMRSbits.C1TSEL = 0x0;
  6881  0C3A  30FC               	movlw	-4
  6882  0C3B  059E               	andwf	30,f	;volatile
  6883  0C3C                     l53:
  6884  0C3C  0008               	return
  6885  0C3D                     __end_of_PWM1_Initialize:
  6886                           
  6887                           	psect	text18
  6888  0CEB                     __ptext18:	
  6889 ;; *************** function _PIN_MANAGER_Initialize *****************
  6890 ;; Defined at:
  6891 ;;		line 55 in file "mcc_generated_files/pin_manager.c"
  6892 ;; Parameters:    Size  Location     Type
  6893 ;;		None
  6894 ;; Auto vars:     Size  Location     Type
  6895 ;;		None
  6896 ;; Return value:  Size  Location     Type
  6897 ;;                  1    wreg      void 
  6898 ;; Registers used:
  6899 ;;		wreg, status,2
  6900 ;; Tracked objects:
  6901 ;;		On entry : 0/0
  6902 ;;		On exit  : 0/0
  6903 ;;		Unchanged: 0/0
  6904 ;; Data sizes:     COMMON   BANK0   BANK1   BANK2   BANK3   BANK4   BANK5   BANK6   BANK7   BANK8   BANK9  BANK10  BANK1
      +1  BANK12
  6905 ;;      Params:         0       0       0       0       0       0       0       0       0       0       0       0       
      +0       0
  6906 ;;      Locals:         0       0       0       0       0       0       0       0       0       0       0       0       
      +0       0
  6907 ;;      Temps:          0       0       0       0       0       0       0       0       0       0       0       0       
      +0       0
  6908 ;;      Totals:         0       0       0       0       0       0       0       0       0       0       0       0       
      +0       0
  6909 ;;Total ram usage:        0 bytes
  6910 ;; Hardware stack levels used:    1
  6911 ;; Hardware stack levels required when called:    4
  6912 ;; This function calls:
  6913 ;;		Nothing
  6914 ;; This function is called by:
  6915 ;;		_SYSTEM_Initialize
  6916 ;; This function uses a non-reentrant model
  6917 ;;
  6918                           
  6919                           
  6920                           ;psect for function _PIN_MANAGER_Initialize
  6921  0CEB                     _PIN_MANAGER_Initialize:
  6922  0CEB                     l2024:	
  6923                           ;incstack = 0
  6924                           ; Regs used in _PIN_MANAGER_Initialize: [wreg+status,2]
  6925                           
  6926                           
  6927                           ;pin_manager.c: 60: LATA = 0x00;
  6928  0CEB  0022               	movlb	2	; select bank2
  6929  0CEC  018C               	clrf	12	;volatile
  6930                           
  6931                           ;pin_manager.c: 61: LATC = 0x00;
  6932  0CED  018E               	clrf	14	;volatile
  6933  0CEE                     l2026:
  6934                           
  6935                           ;pin_manager.c: 66: TRISA = 0x04;
  6936  0CEE  3004               	movlw	4
  6937  0CEF  0021               	movlb	1	; select bank1
  6938  0CF0  008C               	movwf	12	;volatile
  6939  0CF1                     l2028:
  6940                           
  6941                           ;pin_manager.c: 67: TRISC = 0x20;
  6942  0CF1  3020               	movlw	32
  6943  0CF2  008E               	movwf	14	;volatile
  6944                           
  6945                           ;pin_manager.c: 72: ANSELC = 0x00;
  6946  0CF3  0023               	movlb	3	; select bank3
  6947  0CF4  018E               	clrf	14	;volatile
  6948  0CF5                     l2030:
  6949                           
  6950                           ;pin_manager.c: 73: ANSELA = 0x04;
  6951  0CF5  3004               	movlw	4
  6952  0CF6  008C               	movwf	12	;volatile
  6953  0CF7                     l2032:
  6954                           
  6955                           ;pin_manager.c: 78: WPUA = 0x00;
  6956  0CF7  0024               	movlb	4	; select bank4
  6957  0CF8  018C               	clrf	12	;volatile
  6958  0CF9                     l2034:
  6959                           
  6960                           ;pin_manager.c: 79: WPUC = 0x00;
  6961  0CF9  018E               	clrf	14	;volatile
  6962  0CFA                     l2036:
  6963                           
  6964                           ;pin_manager.c: 80: OPTION_REGbits.nWPUEN = 1;
  6965  0CFA  0021               	movlb	1	; select bank1
  6966  0CFB  1795               	bsf	21,7	;volatile
  6967  0CFC                     l2038:
  6968                           
  6969                           ;pin_manager.c: 85: ODCONA = 0x00;
  6970  0CFC  0025               	movlb	5	; select bank5
  6971  0CFD  018C               	clrf	12	;volatile
  6972  0CFE                     l2040:
  6973                           
  6974                           ;pin_manager.c: 86: ODCONC = 0x00;
  6975  0CFE  018E               	clrf	14	;volatile
  6976  0CFF                     l2042:
  6977                           
  6978                           ;pin_manager.c: 91: SLRCONA = 0x37;
  6979  0CFF  3037               	movlw	55
  6980  0D00  0026               	movlb	6	; select bank6
  6981  0D01  008C               	movwf	12	;volatile
  6982  0D02                     l2044:
  6983                           
  6984                           ;pin_manager.c: 92: SLRCONC = 0x3F;
  6985  0D02  303F               	movlw	63
  6986  0D03  008E               	movwf	14	;volatile
  6987  0D04                     l2046:
  6988                           
  6989                           ;pin_manager.c: 97: INLVLA = 0x3F;
  6990  0D04  303F               	movlw	63
  6991  0D05  0027               	movlb	7	; select bank7
  6992  0D06  008C               	movwf	12	;volatile
  6993  0D07                     l2048:
  6994                           
  6995                           ;pin_manager.c: 98: INLVLC = 0x3F;
  6996  0D07  303F               	movlw	63
  6997  0D08  008E               	movwf	14	;volatile
  6998  0D09                     l2050:
  6999                           
  7000                           ;pin_manager.c: 107: RXPPS = 0x15;
  7001  0D09  3015               	movlw	21
  7002  0D0A  003C               	movlb	28	; select bank28
  7003  0D0B  00A4               	movwf	36	;volatile
  7004  0D0C                     l2052:
  7005                           
  7006                           ;pin_manager.c: 108: RC1PPS = 0x0C;
  7007  0D0C  300C               	movlw	12
  7008  0D0D  003D               	movlb	29	; select bank29
  7009  0D0E  00A1               	movwf	33	;volatile
  7010  0D0F                     l2054:
  7011                           
  7012                           ;pin_manager.c: 109: RC4PPS = 0x14;
  7013  0D0F  3014               	movlw	20
  7014  0D10  00A4               	movwf	36	;volatile
  7015  0D11                     l39:
  7016  0D11  0008               	return
  7017  0D12                     __end_of_PIN_MANAGER_Initialize:
  7018                           
  7019                           	psect	text19
  7020  0C23                     __ptext19:	
  7021 ;; *************** function _OSCILLATOR_Initialize *****************
  7022 ;; Defined at:
  7023 ;;		line 62 in file "mcc_generated_files/mcc.c"
  7024 ;; Parameters:    Size  Location     Type
  7025 ;;		None
  7026 ;; Auto vars:     Size  Location     Type
  7027 ;;		None
  7028 ;; Return value:  Size  Location     Type
  7029 ;;                  1    wreg      void 
  7030 ;; Registers used:
  7031 ;;		wreg, status,2
  7032 ;; Tracked objects:
  7033 ;;		On entry : 0/0
  7034 ;;		On exit  : 0/0
  7035 ;;		Unchanged: 0/0
  7036 ;; Data sizes:     COMMON   BANK0   BANK1   BANK2   BANK3   BANK4   BANK5   BANK6   BANK7   BANK8   BANK9  BANK10  BANK1
      +1  BANK12
  7037 ;;      Params:         0       0       0       0       0       0       0       0       0       0       0       0       
      +0       0
  7038 ;;      Locals:         0       0       0       0       0       0       0       0       0       0       0       0       
      +0       0
  7039 ;;      Temps:          0       0       0       0       0       0       0       0       0       0       0       0       
      +0       0
  7040 ;;      Totals:         0       0       0       0       0       0       0       0       0       0       0       0       
      +0       0
  7041 ;;Total ram usage:        0 bytes
  7042 ;; Hardware stack levels used:    1
  7043 ;; Hardware stack levels required when called:    4
  7044 ;; This function calls:
  7045 ;;		Nothing
  7046 ;; This function is called by:
  7047 ;;		_SYSTEM_Initialize
  7048 ;; This function uses a non-reentrant model
  7049 ;;
  7050                           
  7051                           
  7052                           ;psect for function _OSCILLATOR_Initialize
  7053  0C23                     _OSCILLATOR_Initialize:
  7054  0C23                     l2078:	
  7055                           ;incstack = 0
  7056                           ; Regs used in _OSCILLATOR_Initialize: [wreg+status,2]
  7057                           
  7058                           
  7059                           ;mcc.c: 65: OSCCON = 0x6A;
  7060  0C23  306A               	movlw	106
  7061  0C24  0021               	movlb	1	; select bank1
  7062  0C25  0099               	movwf	25	;volatile
  7063  0C26                     l2080:
  7064                           
  7065                           ;mcc.c: 67: OSCSTAT = 0x00;
  7066  0C26  019A               	clrf	26	;volatile
  7067  0C27                     l2082:
  7068                           
  7069                           ;mcc.c: 69: OSCTUNE = 0x00;
  7070  0C27  0198               	clrf	24	;volatile
  7071  0C28                     l2084:
  7072                           
  7073                           ;mcc.c: 71: BORCON = 0x00;
  7074  0C28  0022               	movlb	2	; select bank2
  7075  0C29  0196               	clrf	22	;volatile
  7076  0C2A                     l137:
  7077  0C2A  0008               	return
  7078  0C2B                     __end_of_OSCILLATOR_Initialize:
  7079                           
  7080                           	psect	text20
  7081  0DE6                     __ptext20:	
  7082 ;; *************** function _EUSART_Initialize *****************
  7083 ;; Defined at:
  7084 ;;		line 88 in file "mcc_generated_files/eusart.c"
  7085 ;; Parameters:    Size  Location     Type
  7086 ;;		None
  7087 ;; Auto vars:     Size  Location     Type
  7088 ;;		None
  7089 ;; Return value:  Size  Location     Type
  7090 ;;                  1    wreg      void 
  7091 ;; Registers used:
  7092 ;;		wreg, status,2, status,0, pclath, cstack
  7093 ;; Tracked objects:
  7094 ;;		On entry : 0/0
  7095 ;;		On exit  : 0/0
  7096 ;;		Unchanged: 0/0
  7097 ;; Data sizes:     COMMON   BANK0   BANK1   BANK2   BANK3   BANK4   BANK5   BANK6   BANK7   BANK8   BANK9  BANK10  BANK1
      +1  BANK12
  7098 ;;      Params:         0       0       0       0       0       0       0       0       0       0       0       0       
      +0       0
  7099 ;;      Locals:         0       0       0       0       0       0       0       0       0       0       0       0       
      +0       0
  7100 ;;      Temps:          1       0       0       0       0       0       0       0       0       0       0       0       
      +0       0
  7101 ;;      Totals:         1       0       0       0       0       0       0       0       0       0       0       0       
      +0       0
  7102 ;;Total ram usage:        1 bytes
  7103 ;; Hardware stack levels used:    1
  7104 ;; Hardware stack levels required when called:    5
  7105 ;; This function calls:
  7106 ;;		_EUSART_SetErrorHandler
  7107 ;;		_EUSART_SetFramingErrorHandler
  7108 ;;		_EUSART_SetOverrunErrorHandler
  7109 ;;		_EUSART_SetRxInterruptHandler
  7110 ;;		_EUSART_SetTxInterruptHandler
  7111 ;; This function is called by:
  7112 ;;		_SYSTEM_Initialize
  7113 ;; This function uses a non-reentrant model
  7114 ;;
  7115                           
  7116                           
  7117                           ;psect for function _EUSART_Initialize
  7118  0DE6                     _EUSART_Initialize:
  7119  0DE6                     l2098:	
  7120                           ;incstack = 0
  7121                           ; Regs used in _EUSART_Initialize: [wreg+status,2+status,0+pclath+cstack]
  7122                           
  7123                           
  7124                           ;eusart.c: 91: PIE1bits.RCIE = 0;
  7125  0DE6  0021               	movlb	1	; select bank1
  7126  0DE7  1291               	bcf	17,5	;volatile
  7127  0DE8                     l2100:
  7128                           
  7129                           ;eusart.c: 92: EUSART_SetRxInterruptHandler(EUSART_Receive_ISR);
  7130  0DE8  3071               	movlw	low _EUSART_Receive_ISR
  7131  0DE9  00F1               	movwf	EUSART_SetRxInterruptHandler@interruptHandler
  7132  0DEA  300D               	movlw	high _EUSART_Receive_ISR
  7133  0DEB  00F2               	movwf	EUSART_SetRxInterruptHandler@interruptHandler+1
  7134  0DEC  318C  240B  318D   	fcall	_EUSART_SetRxInterruptHandler
  7135  0DEF                     l2102:
  7136                           
  7137                           ;eusart.c: 93: PIE1bits.TXIE = 0;
  7138  0DEF  0021               	movlb	1	; select bank1
  7139  0DF0  1211               	bcf	17,4	;volatile
  7140                           
  7141                           ;eusart.c: 94: EUSART_SetTxInterruptHandler(EUSART_Transmit_ISR);
  7142  0DF1  30A6               	movlw	low _EUSART_Transmit_ISR
  7143  0DF2  00F1               	movwf	EUSART_SetTxInterruptHandler@interruptHandler
  7144  0DF3  300C               	movlw	high _EUSART_Transmit_ISR
  7145  0DF4  00F2               	movwf	EUSART_SetTxInterruptHandler@interruptHandler+1
  7146  0DF5  318C  2411  318D   	fcall	_EUSART_SetTxInterruptHandler
  7147  0DF8                     l2104:
  7148                           
  7149                           ;eusart.c: 98: BAUD1CON = 0x08;
  7150  0DF8  3008               	movlw	8
  7151  0DF9  0023               	movlb	3	; select bank3
  7152  0DFA  009F               	movwf	31	;volatile
  7153  0DFB                     l2106:
  7154                           
  7155                           ;eusart.c: 101: RC1STA = 0x90;
  7156  0DFB  3090               	movlw	144
  7157  0DFC  009D               	movwf	29	;volatile
  7158  0DFD                     l2108:
  7159                           
  7160                           ;eusart.c: 104: TX1STA = 0x24;
  7161  0DFD  3024               	movlw	36
  7162  0DFE  009E               	movwf	30	;volatile
  7163  0DFF                     l2110:
  7164                           
  7165                           ;eusart.c: 107: SP1BRGL = 0x67;
  7166  0DFF  3067               	movlw	103
  7167  0E00  009B               	movwf	27	;volatile
  7168  0E01                     l2112:
  7169                           
  7170                           ;eusart.c: 110: SP1BRGH = 0x00;
  7171  0E01  019C               	clrf	28	;volatile
  7172  0E02                     l2114:
  7173                           
  7174                           ;eusart.c: 113: EUSART_SetFramingErrorHandler(EUSART_DefaultFramingErrorHandler);
  7175  0E02  3003               	movlw	low _EUSART_DefaultFramingErrorHandler
  7176  0E03  00F1               	movwf	EUSART_SetFramingErrorHandler@interruptHandler
  7177  0E04  3000               	movlw	high _EUSART_DefaultFramingErrorHandler
  7178  0E05  00F2               	movwf	EUSART_SetFramingErrorHandler@interruptHandler+1
  7179  0E06  318B  23FF  318D   	fcall	_EUSART_SetFramingErrorHandler
  7180  0E09                     l2116:
  7181                           
  7182                           ;eusart.c: 114: EUSART_SetOverrunErrorHandler(EUSART_DefaultOverrunErrorHandler);
  7183  0E09  30EB               	movlw	low _EUSART_DefaultOverrunErrorHandler
  7184  0E0A  00F1               	movwf	EUSART_SetOverrunErrorHandler@interruptHandler
  7185  0E0B  300B               	movlw	high _EUSART_DefaultOverrunErrorHandler
  7186  0E0C  00F2               	movwf	EUSART_SetOverrunErrorHandler@interruptHandler+1
  7187  0E0D  318C  2405  318D   	fcall	_EUSART_SetOverrunErrorHandler
  7188  0E10                     l2118:
  7189                           
  7190                           ;eusart.c: 115: EUSART_SetErrorHandler(EUSART_DefaultErrorHandler);
  7191  0E10  30E7               	movlw	low _EUSART_DefaultErrorHandler
  7192  0E11  00F1               	movwf	EUSART_SetErrorHandler@interruptHandler
  7193  0E12  300B               	movlw	high _EUSART_DefaultErrorHandler
  7194  0E13  00F2               	movwf	EUSART_SetErrorHandler@interruptHandler+1
  7195  0E14  318B  23F9  318D   	fcall	_EUSART_SetErrorHandler
  7196                           
  7197                           ;eusart.c: 117: eusartRxLastError.status = 0;
  7198  0E17  0020               	movlb	0	; select bank0
  7199  0E18  01E9               	clrf	_eusartRxLastError	;volatile
  7200                           
  7201                           ;eusart.c: 120: eusartTxHead = 0;
  7202  0E19  01ED               	clrf	_eusartTxHead	;volatile
  7203                           
  7204                           ;eusart.c: 121: eusartTxTail = 0;
  7205  0E1A  01EC               	clrf	_eusartTxTail	;volatile
  7206  0E1B                     l2120:
  7207                           
  7208                           ;eusart.c: 122: eusartTxBufferRemaining = sizeof(eusartTxBuffer);
  7209  0E1B  3008               	movlw	8
  7210  0E1C  00F3               	movwf	??_EUSART_Initialize
  7211  0E1D  0873               	movf	??_EUSART_Initialize,w
  7212  0E1E  00EE               	movwf	_eusartTxBufferRemaining	;volatile
  7213  0E1F                     l2122:
  7214                           
  7215                           ;eusart.c: 124: eusartRxHead = 0;
  7216  0E1F  01FC               	clrf	_eusartRxHead	;volatile
  7217  0E20                     l2124:
  7218                           
  7219                           ;eusart.c: 125: eusartRxTail = 0;
  7220  0E20  01EB               	clrf	_eusartRxTail	;volatile
  7221  0E21                     l2126:
  7222                           
  7223                           ;eusart.c: 126: eusartRxCount = 0;
  7224  0E21  01EA               	clrf	_eusartRxCount	;volatile
  7225  0E22                     l2128:
  7226                           
  7227                           ;eusart.c: 129: PIE1bits.RCIE = 1;
  7228  0E22  0021               	movlb	1	; select bank1
  7229  0E23  1691               	bsf	17,5	;volatile
  7230  0E24                     l255:
  7231  0E24  0008               	return
  7232  0E25                     __end_of_EUSART_Initialize:
  7233                           
  7234                           	psect	text21
  7235  0C11                     __ptext21:	
  7236 ;; *************** function _EUSART_SetTxInterruptHandler *****************
  7237 ;; Defined at:
  7238 ;;		line 285 in file "mcc_generated_files/eusart.c"
  7239 ;; Parameters:    Size  Location     Type
  7240 ;;  interruptHan    2    1[COMMON] PTR FTN()void 
  7241 ;;		 -> EUSART_Transmit_ISR(1), 
  7242 ;; Auto vars:     Size  Location     Type
  7243 ;;		None
  7244 ;; Return value:  Size  Location     Type
  7245 ;;                  1    wreg      void 
  7246 ;; Registers used:
  7247 ;;		wreg
  7248 ;; Tracked objects:
  7249 ;;		On entry : 0/0
  7250 ;;		On exit  : 0/0
  7251 ;;		Unchanged: 0/0
  7252 ;; Data sizes:     COMMON   BANK0   BANK1   BANK2   BANK3   BANK4   BANK5   BANK6   BANK7   BANK8   BANK9  BANK10  BANK1
      +1  BANK12
  7253 ;;      Params:         2       0       0       0       0       0       0       0       0       0       0       0       
      +0       0
  7254 ;;      Locals:         0       0       0       0       0       0       0       0       0       0       0       0       
      +0       0
  7255 ;;      Temps:          0       0       0       0       0       0       0       0       0       0       0       0       
      +0       0
  7256 ;;      Totals:         2       0       0       0       0       0       0       0       0       0       0       0       
      +0       0
  7257 ;;Total ram usage:        2 bytes
  7258 ;; Hardware stack levels used:    1
  7259 ;; Hardware stack levels required when called:    4
  7260 ;; This function calls:
  7261 ;;		Nothing
  7262 ;; This function is called by:
  7263 ;;		_EUSART_Initialize
  7264 ;; This function uses a non-reentrant model
  7265 ;;
  7266                           
  7267                           
  7268                           ;psect for function _EUSART_SetTxInterruptHandler
  7269  0C11                     _EUSART_SetTxInterruptHandler:
  7270  0C11                     l1974:	
  7271                           ;incstack = 0
  7272                           ; Regs used in _EUSART_SetTxInterruptHandler: [wreg]
  7273                           
  7274                           
  7275                           ;eusart.c: 286: EUSART_TxDefaultInterruptHandler = interruptHandler;
  7276  0C11  0872               	movf	EUSART_SetTxInterruptHandler@interruptHandler+1,w
  7277  0C12  0021               	movlb	1	; select bank1
  7278  0C13  00DB               	movwf	(_EUSART_TxDefaultInterruptHandler+1)^(0+128)
  7279  0C14  0871               	movf	EUSART_SetTxInterruptHandler@interruptHandler,w
  7280  0C15  00DA               	movwf	_EUSART_TxDefaultInterruptHandler^(0+128)
  7281  0C16                     l327:
  7282  0C16  0008               	return
  7283  0C17                     __end_of_EUSART_SetTxInterruptHandler:
  7284                           
  7285                           	psect	text22
  7286  0C0B                     __ptext22:	
  7287 ;; *************** function _EUSART_SetRxInterruptHandler *****************
  7288 ;; Defined at:
  7289 ;;		line 289 in file "mcc_generated_files/eusart.c"
  7290 ;; Parameters:    Size  Location     Type
  7291 ;;  interruptHan    2    1[COMMON] PTR FTN()void 
  7292 ;;		 -> EUSART_Receive_ISR(1), 
  7293 ;; Auto vars:     Size  Location     Type
  7294 ;;		None
  7295 ;; Return value:  Size  Location     Type
  7296 ;;                  1    wreg      void 
  7297 ;; Registers used:
  7298 ;;		wreg
  7299 ;; Tracked objects:
  7300 ;;		On entry : 0/0
  7301 ;;		On exit  : 0/0
  7302 ;;		Unchanged: 0/0
  7303 ;; Data sizes:     COMMON   BANK0   BANK1   BANK2   BANK3   BANK4   BANK5   BANK6   BANK7   BANK8   BANK9  BANK10  BANK1
      +1  BANK12
  7304 ;;      Params:         2       0       0       0       0       0       0       0       0       0       0       0       
      +0       0
  7305 ;;      Locals:         0       0       0       0       0       0       0       0       0       0       0       0       
      +0       0
  7306 ;;      Temps:          0       0       0       0       0       0       0       0       0       0       0       0       
      +0       0
  7307 ;;      Totals:         2       0       0       0       0       0       0       0       0       0       0       0       
      +0       0
  7308 ;;Total ram usage:        2 bytes
  7309 ;; Hardware stack levels used:    1
  7310 ;; Hardware stack levels required when called:    4
  7311 ;; This function calls:
  7312 ;;		Nothing
  7313 ;; This function is called by:
  7314 ;;		_EUSART_Initialize
  7315 ;; This function uses a non-reentrant model
  7316 ;;
  7317                           
  7318                           
  7319                           ;psect for function _EUSART_SetRxInterruptHandler
  7320  0C0B                     _EUSART_SetRxInterruptHandler:
  7321  0C0B                     l1972:	
  7322                           ;incstack = 0
  7323                           ; Regs used in _EUSART_SetRxInterruptHandler: [wreg]
  7324                           
  7325                           
  7326                           ;eusart.c: 290: EUSART_RxDefaultInterruptHandler = interruptHandler;
  7327  0C0B  0872               	movf	EUSART_SetRxInterruptHandler@interruptHandler+1,w
  7328  0C0C  0021               	movlb	1	; select bank1
  7329  0C0D  00D9               	movwf	(_EUSART_RxDefaultInterruptHandler+1)^(0+128)
  7330  0C0E  0871               	movf	EUSART_SetRxInterruptHandler@interruptHandler,w
  7331  0C0F  00D8               	movwf	_EUSART_RxDefaultInterruptHandler^(0+128)
  7332  0C10                     l330:
  7333  0C10  0008               	return
  7334  0C11                     __end_of_EUSART_SetRxInterruptHandler:
  7335                           
  7336                           	psect	text23
  7337  0C05                     __ptext23:	
  7338 ;; *************** function _EUSART_SetOverrunErrorHandler *****************
  7339 ;; Defined at:
  7340 ;;		line 277 in file "mcc_generated_files/eusart.c"
  7341 ;; Parameters:    Size  Location     Type
  7342 ;;  interruptHan    2    1[COMMON] PTR FTN()void 
  7343 ;;		 -> EUSART_DefaultOverrunErrorHandler(1), 
  7344 ;; Auto vars:     Size  Location     Type
  7345 ;;		None
  7346 ;; Return value:  Size  Location     Type
  7347 ;;                  1    wreg      void 
  7348 ;; Registers used:
  7349 ;;		wreg
  7350 ;; Tracked objects:
  7351 ;;		On entry : 0/0
  7352 ;;		On exit  : 0/0
  7353 ;;		Unchanged: 0/0
  7354 ;; Data sizes:     COMMON   BANK0   BANK1   BANK2   BANK3   BANK4   BANK5   BANK6   BANK7   BANK8   BANK9  BANK10  BANK1
      +1  BANK12
  7355 ;;      Params:         2       0       0       0       0       0       0       0       0       0       0       0       
      +0       0
  7356 ;;      Locals:         0       0       0       0       0       0       0       0       0       0       0       0       
      +0       0
  7357 ;;      Temps:          0       0       0       0       0       0       0       0       0       0       0       0       
      +0       0
  7358 ;;      Totals:         2       0       0       0       0       0       0       0       0       0       0       0       
      +0       0
  7359 ;;Total ram usage:        2 bytes
  7360 ;; Hardware stack levels used:    1
  7361 ;; Hardware stack levels required when called:    4
  7362 ;; This function calls:
  7363 ;;		Nothing
  7364 ;; This function is called by:
  7365 ;;		_EUSART_Initialize
  7366 ;; This function uses a non-reentrant model
  7367 ;;
  7368                           
  7369                           
  7370                           ;psect for function _EUSART_SetOverrunErrorHandler
  7371  0C05                     _EUSART_SetOverrunErrorHandler:
  7372  0C05                     l1978:	
  7373                           ;incstack = 0
  7374                           ; Regs used in _EUSART_SetOverrunErrorHandler: [wreg]
  7375                           
  7376                           
  7377                           ;eusart.c: 278: EUSART_OverrunErrorHandler = interruptHandler;
  7378  0C05  0872               	movf	EUSART_SetOverrunErrorHandler@interruptHandler+1,w
  7379  0C06  0021               	movlb	1	; select bank1
  7380  0C07  00D5               	movwf	(_EUSART_OverrunErrorHandler+1)^(0+128)
  7381  0C08  0871               	movf	EUSART_SetOverrunErrorHandler@interruptHandler,w
  7382  0C09  00D4               	movwf	_EUSART_OverrunErrorHandler^(0+128)
  7383  0C0A                     l321:
  7384  0C0A  0008               	return
  7385  0C0B                     __end_of_EUSART_SetOverrunErrorHandler:
  7386                           
  7387                           	psect	text24
  7388  0BFF                     __ptext24:	
  7389 ;; *************** function _EUSART_SetFramingErrorHandler *****************
  7390 ;; Defined at:
  7391 ;;		line 273 in file "mcc_generated_files/eusart.c"
  7392 ;; Parameters:    Size  Location     Type
  7393 ;;  interruptHan    2    1[COMMON] PTR FTN()void 
  7394 ;;		 -> EUSART_DefaultFramingErrorHandler(1), 
  7395 ;; Auto vars:     Size  Location     Type
  7396 ;;		None
  7397 ;; Return value:  Size  Location     Type
  7398 ;;                  1    wreg      void 
  7399 ;; Registers used:
  7400 ;;		wreg
  7401 ;; Tracked objects:
  7402 ;;		On entry : 0/0
  7403 ;;		On exit  : 0/0
  7404 ;;		Unchanged: 0/0
  7405 ;; Data sizes:     COMMON   BANK0   BANK1   BANK2   BANK3   BANK4   BANK5   BANK6   BANK7   BANK8   BANK9  BANK10  BANK1
      +1  BANK12
  7406 ;;      Params:         2       0       0       0       0       0       0       0       0       0       0       0       
      +0       0
  7407 ;;      Locals:         0       0       0       0       0       0       0       0       0       0       0       0       
      +0       0
  7408 ;;      Temps:          0       0       0       0       0       0       0       0       0       0       0       0       
      +0       0
  7409 ;;      Totals:         2       0       0       0       0       0       0       0       0       0       0       0       
      +0       0
  7410 ;;Total ram usage:        2 bytes
  7411 ;; Hardware stack levels used:    1
  7412 ;; Hardware stack levels required when called:    4
  7413 ;; This function calls:
  7414 ;;		Nothing
  7415 ;; This function is called by:
  7416 ;;		_EUSART_Initialize
  7417 ;; This function uses a non-reentrant model
  7418 ;;
  7419                           
  7420                           
  7421                           ;psect for function _EUSART_SetFramingErrorHandler
  7422  0BFF                     _EUSART_SetFramingErrorHandler:
  7423  0BFF                     l1976:	
  7424                           ;incstack = 0
  7425                           ; Regs used in _EUSART_SetFramingErrorHandler: [wreg]
  7426                           
  7427                           
  7428                           ;eusart.c: 274: EUSART_FramingErrorHandler = interruptHandler;
  7429  0BFF  0872               	movf	EUSART_SetFramingErrorHandler@interruptHandler+1,w
  7430  0C00  0021               	movlb	1	; select bank1
  7431  0C01  00D7               	movwf	(_EUSART_FramingErrorHandler+1)^(0+128)
  7432  0C02  0871               	movf	EUSART_SetFramingErrorHandler@interruptHandler,w
  7433  0C03  00D6               	movwf	_EUSART_FramingErrorHandler^(0+128)
  7434  0C04                     l318:
  7435  0C04  0008               	return
  7436  0C05                     __end_of_EUSART_SetFramingErrorHandler:
  7437                           
  7438                           	psect	text25
  7439  0BF9                     __ptext25:	
  7440 ;; *************** function _EUSART_SetErrorHandler *****************
  7441 ;; Defined at:
  7442 ;;		line 281 in file "mcc_generated_files/eusart.c"
  7443 ;; Parameters:    Size  Location     Type
  7444 ;;  interruptHan    2    1[COMMON] PTR FTN()void 
  7445 ;;		 -> EUSART_DefaultErrorHandler(1), 
  7446 ;; Auto vars:     Size  Location     Type
  7447 ;;		None
  7448 ;; Return value:  Size  Location     Type
  7449 ;;                  1    wreg      void 
  7450 ;; Registers used:
  7451 ;;		wreg
  7452 ;; Tracked objects:
  7453 ;;		On entry : 0/0
  7454 ;;		On exit  : 0/0
  7455 ;;		Unchanged: 0/0
  7456 ;; Data sizes:     COMMON   BANK0   BANK1   BANK2   BANK3   BANK4   BANK5   BANK6   BANK7   BANK8   BANK9  BANK10  BANK1
      +1  BANK12
  7457 ;;      Params:         2       0       0       0       0       0       0       0       0       0       0       0       
      +0       0
  7458 ;;      Locals:         0       0       0       0       0       0       0       0       0       0       0       0       
      +0       0
  7459 ;;      Temps:          0       0       0       0       0       0       0       0       0       0       0       0       
      +0       0
  7460 ;;      Totals:         2       0       0       0       0       0       0       0       0       0       0       0       
      +0       0
  7461 ;;Total ram usage:        2 bytes
  7462 ;; Hardware stack levels used:    1
  7463 ;; Hardware stack levels required when called:    4
  7464 ;; This function calls:
  7465 ;;		Nothing
  7466 ;; This function is called by:
  7467 ;;		_EUSART_Initialize
  7468 ;; This function uses a non-reentrant model
  7469 ;;
  7470                           
  7471                           
  7472                           ;psect for function _EUSART_SetErrorHandler
  7473  0BF9                     _EUSART_SetErrorHandler:
  7474  0BF9                     l1980:	
  7475                           ;incstack = 0
  7476                           ; Regs used in _EUSART_SetErrorHandler: [wreg]
  7477                           
  7478                           
  7479                           ;eusart.c: 282: EUSART_ErrorHandler = interruptHandler;
  7480  0BF9  0872               	movf	EUSART_SetErrorHandler@interruptHandler+1,w
  7481  0BFA  0021               	movlb	1	; select bank1
  7482  0BFB  00D3               	movwf	(_EUSART_ErrorHandler+1)^(0+128)
  7483  0BFC  0871               	movf	EUSART_SetErrorHandler@interruptHandler,w
  7484  0BFD  00D2               	movwf	_EUSART_ErrorHandler^(0+128)
  7485  0BFE                     l324:
  7486  0BFE  0008               	return
  7487  0BFF                     __end_of_EUSART_SetErrorHandler:
  7488                           
  7489                           	psect	text26
  7490  0C2B                     __ptext26:	
  7491 ;; *************** function _ADC_Initialize *****************
  7492 ;; Defined at:
  7493 ;;		line 67 in file "mcc_generated_files/adc.c"
  7494 ;; Parameters:    Size  Location     Type
  7495 ;;		None
  7496 ;; Auto vars:     Size  Location     Type
  7497 ;;		None
  7498 ;; Return value:  Size  Location     Type
  7499 ;;                  1    wreg      void 
  7500 ;; Registers used:
  7501 ;;		wreg, status,2
  7502 ;; Tracked objects:
  7503 ;;		On entry : 0/0
  7504 ;;		On exit  : 0/0
  7505 ;;		Unchanged: 0/0
  7506 ;; Data sizes:     COMMON   BANK0   BANK1   BANK2   BANK3   BANK4   BANK5   BANK6   BANK7   BANK8   BANK9  BANK10  BANK1
      +1  BANK12
  7507 ;;      Params:         0       0       0       0       0       0       0       0       0       0       0       0       
      +0       0
  7508 ;;      Locals:         0       0       0       0       0       0       0       0       0       0       0       0       
      +0       0
  7509 ;;      Temps:          0       0       0       0       0       0       0       0       0       0       0       0       
      +0       0
  7510 ;;      Totals:         0       0       0       0       0       0       0       0       0       0       0       0       
      +0       0
  7511 ;;Total ram usage:        0 bytes
  7512 ;; Hardware stack levels used:    1
  7513 ;; Hardware stack levels required when called:    4
  7514 ;; This function calls:
  7515 ;;		Nothing
  7516 ;; This function is called by:
  7517 ;;		_SYSTEM_Initialize
  7518 ;; This function uses a non-reentrant model
  7519 ;;
  7520                           
  7521                           
  7522                           ;psect for function _ADC_Initialize
  7523  0C2B                     _ADC_Initialize:
  7524  0C2B                     l2088:	
  7525                           ;incstack = 0
  7526                           ; Regs used in _ADC_Initialize: [wreg+status,2]
  7527                           
  7528                           
  7529                           ;adc.c: 72: ADCON1 = 0xC0;
  7530  0C2B  30C0               	movlw	192
  7531  0C2C  0021               	movlb	1	; select bank1
  7532  0C2D  009E               	movwf	30	;volatile
  7533  0C2E                     l2090:
  7534                           
  7535                           ;adc.c: 75: ADCON2 = 0x00;
  7536  0C2E  019F               	clrf	31	;volatile
  7537  0C2F                     l2092:
  7538                           
  7539                           ;adc.c: 78: ADRESL = 0x00;
  7540  0C2F  019B               	clrf	27	;volatile
  7541  0C30                     l2094:
  7542                           
  7543                           ;adc.c: 81: ADRESH = 0x00;
  7544  0C30  019C               	clrf	28	;volatile
  7545  0C31                     l2096:
  7546                           
  7547                           ;adc.c: 84: ADCON0 = 0x09;
  7548  0C31  3009               	movlw	9
  7549  0C32  009D               	movwf	29	;volatile
  7550  0C33                     l159:
  7551  0C33  0008               	return
  7552  0C34                     __end_of_ADC_Initialize:
  7553                           
  7554                           	psect	text27
  7555  0C8C                     __ptext27:	
  7556 ;; *************** function _ADC_GetConversion *****************
  7557 ;; Defined at:
  7558 ;;		line 115 in file "mcc_generated_files/adc.c"
  7559 ;; Parameters:    Size  Location     Type
  7560 ;;  channel         1    wreg     enum E3994
  7561 ;; Auto vars:     Size  Location     Type
  7562 ;;  channel         1    4[COMMON] enum E3994
  7563 ;; Return value:  Size  Location     Type
  7564 ;;                  2    1[COMMON] unsigned int 
  7565 ;; Registers used:
  7566 ;;		wreg, status,2, status,0
  7567 ;; Tracked objects:
  7568 ;;		On entry : 0/0
  7569 ;;		On exit  : 0/0
  7570 ;;		Unchanged: 0/0
  7571 ;; Data sizes:     COMMON   BANK0   BANK1   BANK2   BANK3   BANK4   BANK5   BANK6   BANK7   BANK8   BANK9  BANK10  BANK1
      +1  BANK12
  7572 ;;      Params:         2       0       0       0       0       0       0       0       0       0       0       0       
      +0       0
  7573 ;;      Locals:         1       0       0       0       0       0       0       0       0       0       0       0       
      +0       0
  7574 ;;      Temps:          1       0       0       0       0       0       0       0       0       0       0       0       
      +0       0
  7575 ;;      Totals:         4       0       0       0       0       0       0       0       0       0       0       0       
      +0       0
  7576 ;;Total ram usage:        4 bytes
  7577 ;; Hardware stack levels used:    1
  7578 ;; Hardware stack levels required when called:    4
  7579 ;; This function calls:
  7580 ;;		Nothing
  7581 ;; This function is called by:
  7582 ;;		_main
  7583 ;; This function uses a non-reentrant model
  7584 ;;
  7585                           
  7586                           
  7587                           ;psect for function _ADC_GetConversion
  7588  0C8C                     _ADC_GetConversion:
  7589                           
  7590                           ;incstack = 0
  7591                           ; Regs used in _ADC_GetConversion: [wreg+status,2+status,0]
  7592                           ;ADC_GetConversion@channel stored from wreg
  7593  0C8C  00F4               	movwf	ADC_GetConversion@channel
  7594  0C8D                     l2744:
  7595                           
  7596                           ;adc.c: 118: ADCON0bits.CHS = channel;
  7597  0C8D  0874               	movf	ADC_GetConversion@channel,w
  7598  0C8E  00F3               	movwf	??_ADC_GetConversion
  7599  0C8F  0DF3               	rlf	??_ADC_GetConversion,f
  7600  0C90  0DF3               	rlf	??_ADC_GetConversion,f
  7601  0C91  0021               	movlb	1	; select bank1
  7602  0C92  081D               	movf	29,w	;volatile
  7603  0C93  0673               	xorwf	??_ADC_GetConversion,w
  7604  0C94  3983               	andlw	-125
  7605  0C95  0673               	xorwf	??_ADC_GetConversion,w
  7606  0C96  009D               	movwf	29	;volatile
  7607  0C97                     l2746:
  7608                           
  7609                           ;adc.c: 121: ADCON0bits.ADON = 1;
  7610  0C97  141D               	bsf	29,0	;volatile
  7611  0C98                     l2748:
  7612                           
  7613                           ;adc.c: 124: _delay((unsigned long)((5)*(4000000/4000000.0)));
  7614  0C98  3200               	nop2	;2 cycle nop
  7615  0C99  3200               	nop2	;2 cycle nop
  7616  0C9A  0000               	nop
  7617  0C9B                     l2750:
  7618                           
  7619                           ;adc.c: 127: ADCON0bits.GO_nDONE = 1;
  7620  0C9B  0021               	movlb	1	; select bank1
  7621  0C9C  149D               	bsf	29,1	;volatile
  7622  0C9D                     l174:	
  7623                           ;adc.c: 131: {
  7624                           
  7625  0C9D  189D               	btfsc	29,1	;volatile
  7626  0C9E  2CA0               	goto	u3121
  7627  0C9F  2CA1               	goto	u3120
  7628  0CA0                     u3121:
  7629  0CA0  2C9D               	goto	l174
  7630  0CA1                     u3120:
  7631  0CA1                     l2752:
  7632                           
  7633                           ;adc.c: 132: };adc.c: 135: return ((adc_result_t)((ADRESH << 8) + ADRESL));
  7634  0CA1  081C               	movf	28,w	;volatile
  7635  0CA2  00F2               	movwf	?_ADC_GetConversion+1
  7636  0CA3  081B               	movf	27,w	;volatile
  7637  0CA4  00F1               	movwf	?_ADC_GetConversion
  7638  0CA5                     l177:
  7639  0CA5  0008               	return
  7640  0CA6                     __end_of_ADC_GetConversion:
  7641                           
  7642                           	psect	intentry
  7643  0004                     __pintentry:	
  7644 ;; *************** function _INTERRUPT_InterruptManager *****************
  7645 ;; Defined at:
  7646 ;;		line 52 in file "mcc_generated_files/interrupt_manager.c"
  7647 ;; Parameters:    Size  Location     Type
  7648 ;;		None
  7649 ;; Auto vars:     Size  Location     Type
  7650 ;;		None
  7651 ;; Return value:  Size  Location     Type
  7652 ;;                  1    wreg      void 
  7653 ;; Registers used:
  7654 ;;		wreg, fsr1l, fsr1h, status,2, status,0, pclath, cstack
  7655 ;; Tracked objects:
  7656 ;;		On entry : 0/0
  7657 ;;		On exit  : 0/0
  7658 ;;		Unchanged: 0/0
  7659 ;; Data sizes:     COMMON   BANK0   BANK1   BANK2   BANK3   BANK4   BANK5   BANK6   BANK7   BANK8   BANK9  BANK10  BANK1
      +1  BANK12
  7660 ;;      Params:         0       0       0       0       0       0       0       0       0       0       0       0       
      +0       0
  7661 ;;      Locals:         0       0       0       0       0       0       0       0       0       0       0       0       
      +0       0
  7662 ;;      Temps:          0       0       0       0       0       0       0       0       0       0       0       0       
      +0       0
  7663 ;;      Totals:         0       0       0       0       0       0       0       0       0       0       0       0       
      +0       0
  7664 ;;Total ram usage:        0 bytes
  7665 ;; Hardware stack levels used:    1
  7666 ;; Hardware stack levels required when called:    3
  7667 ;; This function calls:
  7668 ;;		Absolute function
  7669 ;;		_EUSART_Receive_ISR
  7670 ;;		_EUSART_Transmit_ISR
  7671 ;;		_TMR2_ISR
  7672 ;; This function is called by:
  7673 ;;		Interrupt level 1
  7674 ;; This function uses a non-reentrant model
  7675 ;;
  7676                           
  7677  0004                     _INTERRUPT_InterruptManager:
  7678                           
  7679                           ;incstack = 0
  7680  0004  147E               	bsf	int$flags,0	;set compiler interrupt flag (level 1)
  7681                           
  7682                           ; Regs used in _INTERRUPT_InterruptManager: [wreg+fsr1l+fsr1h+status,2+status,0+pclath+c
      +                          stack]
  7683  0005  3180               	pagesel	$
  7684  0006                     i1l2870:
  7685                           
  7686                           ;interrupt_manager.c: 55: if(INTCONbits.PEIE == 1)
  7687  0006  1F0B               	btfss	11,6	;volatile
  7688  0007  2809               	goto	u327_21
  7689  0008  280A               	goto	u327_20
  7690  0009                     u327_21:
  7691  0009  283A               	goto	i1l355
  7692  000A                     u327_20:
  7693  000A                     i1l2872:
  7694                           
  7695                           ;interrupt_manager.c: 56: {;interrupt_manager.c: 57: if(PIE1bits.TXIE == 1 && PIR1bits.T
      +                          XIF == 1)
  7696  000A  0021               	movlb	1	; select bank1
  7697  000B  1E11               	btfss	17,4	;volatile
  7698  000C  280E               	goto	u328_21
  7699  000D  280F               	goto	u328_20
  7700  000E                     u328_21:
  7701  000E  281B               	goto	i1l348
  7702  000F                     u328_20:
  7703  000F                     i1l2874:
  7704  000F  0020               	movlb	0	; select bank0
  7705  0010  1E11               	btfss	17,4	;volatile
  7706  0011  2813               	goto	u329_21
  7707  0012  2814               	goto	u329_20
  7708  0013                     u329_21:
  7709  0013  281B               	goto	i1l348
  7710  0014                     u329_20:
  7711  0014                     i1l2876:
  7712                           
  7713                           ;interrupt_manager.c: 58: {;interrupt_manager.c: 59: EUSART_TxDefaultInterruptHandler();
  7714  0014  0021               	movlb	1	; select bank1
  7715  0015  085B               	movf	(_EUSART_TxDefaultInterruptHandler+1)^(0+128),w
  7716  0016  008A               	movwf	10
  7717  0017  085A               	movf	_EUSART_TxDefaultInterruptHandler^(0+128),w
  7718  0018  000A               	callw
  7719  0019  3180               	pagesel	$
  7720                           
  7721                           ;interrupt_manager.c: 60: }
  7722  001A  283A               	goto	i1l355
  7723  001B                     i1l348:
  7724                           
  7725                           ;interrupt_manager.c: 61: else if(PIE1bits.RCIE == 1 && PIR1bits.RCIF == 1)
  7726  001B  0021               	movlb	1	; select bank1
  7727  001C  1E91               	btfss	17,5	;volatile
  7728  001D  281F               	goto	u330_21
  7729  001E  2820               	goto	u330_20
  7730  001F                     u330_21:
  7731  001F  282C               	goto	i1l350
  7732  0020                     u330_20:
  7733  0020                     i1l2878:
  7734  0020  0020               	movlb	0	; select bank0
  7735  0021  1E91               	btfss	17,5	;volatile
  7736  0022  2824               	goto	u331_21
  7737  0023  2825               	goto	u331_20
  7738  0024                     u331_21:
  7739  0024  282C               	goto	i1l350
  7740  0025                     u331_20:
  7741  0025                     i1l2880:
  7742                           
  7743                           ;interrupt_manager.c: 62: {;interrupt_manager.c: 63: EUSART_RxDefaultInterruptHandler();
  7744  0025  0021               	movlb	1	; select bank1
  7745  0026  0859               	movf	(_EUSART_RxDefaultInterruptHandler+1)^(0+128),w
  7746  0027  008A               	movwf	10
  7747  0028  0858               	movf	_EUSART_RxDefaultInterruptHandler^(0+128),w
  7748  0029  000A               	callw
  7749  002A  3180               	pagesel	$
  7750                           
  7751                           ;interrupt_manager.c: 64: }
  7752  002B  283A               	goto	i1l355
  7753  002C                     i1l350:
  7754                           
  7755                           ;interrupt_manager.c: 65: else if(PIE1bits.TMR2IE == 1 && PIR1bits.TMR2IF == 1)
  7756  002C  0021               	movlb	1	; select bank1
  7757  002D  1C91               	btfss	17,1	;volatile
  7758  002E  2830               	goto	u332_21
  7759  002F  2831               	goto	u332_20
  7760  0030                     u332_21:
  7761  0030  283A               	goto	i1l349
  7762  0031                     u332_20:
  7763  0031                     i1l2882:
  7764  0031  0020               	movlb	0	; select bank0
  7765  0032  1C91               	btfss	17,1	;volatile
  7766  0033  2835               	goto	u333_21
  7767  0034  2836               	goto	u333_20
  7768  0035                     u333_21:
  7769  0035  283A               	goto	i1l349
  7770  0036                     u333_20:
  7771  0036                     i1l2884:
  7772                           
  7773                           ;interrupt_manager.c: 66: {;interrupt_manager.c: 67: TMR2_ISR();
  7774  0036  318B  23F3  3180   	fcall	_TMR2_ISR
  7775                           
  7776                           ;interrupt_manager.c: 68: }
  7777  0039  283A               	goto	i1l355
  7778  003A                     i1l349:
  7779  003A                     i1l355:	
  7780                           ;interrupt_manager.c: 72: };interrupt_manager.c: 73: }
  7781                           
  7782  003A  107E               	bcf	int$flags,0	;clear compiler interrupt flag (level 1)
  7783  003B  0009               	retfie
  7784  003C                     __end_of_INTERRUPT_InterruptManager:
  7785                           
  7786                           	psect	text29
  7787  0BF3                     __ptext29:	
  7788 ;; *************** function _TMR2_ISR *****************
  7789 ;; Defined at:
  7790 ;;		line 119 in file "mcc_generated_files/tmr2.c"
  7791 ;; Parameters:    Size  Location     Type
  7792 ;;		None
  7793 ;; Auto vars:     Size  Location     Type
  7794 ;;		None
  7795 ;; Return value:  Size  Location     Type
  7796 ;;                  1    wreg      void 
  7797 ;; Registers used:
  7798 ;;		wreg, status,2, status,0, pclath, cstack
  7799 ;; Tracked objects:
  7800 ;;		On entry : 0/0
  7801 ;;		On exit  : 0/0
  7802 ;;		Unchanged: 0/0
  7803 ;; Data sizes:     COMMON   BANK0   BANK1   BANK2   BANK3   BANK4   BANK5   BANK6   BANK7   BANK8   BANK9  BANK10  BANK1
      +1  BANK12
  7804 ;;      Params:         0       0       0       0       0       0       0       0       0       0       0       0       
      +0       0
  7805 ;;      Locals:         0       0       0       0       0       0       0       0       0       0       0       0       
      +0       0
  7806 ;;      Temps:          0       0       0       0       0       0       0       0       0       0       0       0       
      +0       0
  7807 ;;      Totals:         0       0       0       0       0       0       0       0       0       0       0       0       
      +0       0
  7808 ;;Total ram usage:        0 bytes
  7809 ;; Hardware stack levels used:    1
  7810 ;; Hardware stack levels required when called:    2
  7811 ;; This function calls:
  7812 ;;		_TMR2_CallBack
  7813 ;; This function is called by:
  7814 ;;		_INTERRUPT_InterruptManager
  7815 ;; This function uses a non-reentrant model
  7816 ;;
  7817                           
  7818                           
  7819                           ;psect for function _TMR2_ISR
  7820  0BF3                     _TMR2_ISR:
  7821  0BF3                     i1l2738:	
  7822                           ;incstack = 0
  7823                           ; Regs used in _TMR2_ISR: [wreg+status,2+status,0+pclath+cstack]
  7824                           
  7825                           
  7826                           ;tmr2.c: 123: PIR1bits.TMR2IF = 0;
  7827  0BF3  0020               	movlb	0	; select bank0
  7828  0BF4  1091               	bcf	17,1	;volatile
  7829  0BF5                     i1l2740:
  7830                           
  7831                           ;tmr2.c: 127: TMR2_CallBack();
  7832  0BF5  318C  243D  318B   	fcall	_TMR2_CallBack
  7833  0BF8                     i1l97:
  7834  0BF8  0008               	return
  7835  0BF9                     __end_of_TMR2_ISR:
  7836                           
  7837                           	psect	text30
  7838  0C3D                     __ptext30:	
  7839 ;; *************** function _TMR2_CallBack *****************
  7840 ;; Defined at:
  7841 ;;		line 130 in file "mcc_generated_files/tmr2.c"
  7842 ;; Parameters:    Size  Location     Type
  7843 ;;		None
  7844 ;; Auto vars:     Size  Location     Type
  7845 ;;		None
  7846 ;; Return value:  Size  Location     Type
  7847 ;;                  1    wreg      void 
  7848 ;; Registers used:
  7849 ;;		wreg, status,2, status,0, pclath, cstack
  7850 ;; Tracked objects:
  7851 ;;		On entry : 0/0
  7852 ;;		On exit  : 0/0
  7853 ;;		Unchanged: 0/0
  7854 ;; Data sizes:     COMMON   BANK0   BANK1   BANK2   BANK3   BANK4   BANK5   BANK6   BANK7   BANK8   BANK9  BANK10  BANK1
      +1  BANK12
  7855 ;;      Params:         0       0       0       0       0       0       0       0       0       0       0       0       
      +0       0
  7856 ;;      Locals:         0       0       0       0       0       0       0       0       0       0       0       0       
      +0       0
  7857 ;;      Temps:          0       0       0       0       0       0       0       0       0       0       0       0       
      +0       0
  7858 ;;      Totals:         0       0       0       0       0       0       0       0       0       0       0       0       
      +0       0
  7859 ;;Total ram usage:        0 bytes
  7860 ;; Hardware stack levels used:    1
  7861 ;; Hardware stack levels required when called:    1
  7862 ;; This function calls:
  7863 ;;		Absolute function
  7864 ;;		_TMR2_DefaultInterruptHandler
  7865 ;; This function is called by:
  7866 ;;		_TMR2_ISR
  7867 ;; This function uses a non-reentrant model
  7868 ;;
  7869                           
  7870                           
  7871                           ;psect for function _TMR2_CallBack
  7872  0C3D                     _TMR2_CallBack:
  7873  0C3D                     i1l2074:	
  7874                           ;incstack = 0
  7875                           ; Regs used in _TMR2_CallBack: [wreg+status,2+status,0+pclath+cstack]
  7876                           
  7877                           
  7878                           ;tmr2.c: 134: if(TMR2_InterruptHandler)
  7879  0C3D  0021               	movlb	1	; select bank1
  7880  0C3E  085C               	movf	_TMR2_InterruptHandler^(0+128),w
  7881  0C3F  045D               	iorwf	(_TMR2_InterruptHandler+1)^(0+128),w
  7882  0C40  1903               	btfsc	3,2
  7883  0C41  2C43               	goto	u176_21
  7884  0C42  2C44               	goto	u176_20
  7885  0C43                     u176_21:
  7886  0C43  2C49               	goto	i1l101
  7887  0C44                     u176_20:
  7888  0C44                     i1l2076:
  7889                           
  7890                           ;tmr2.c: 135: {;tmr2.c: 136: TMR2_InterruptHandler();
  7891  0C44  085D               	movf	(_TMR2_InterruptHandler+1)^(0+128),w
  7892  0C45  008A               	movwf	10
  7893  0C46  085C               	movf	_TMR2_InterruptHandler^(0+128),w
  7894  0C47  000A               	callw
  7895  0C48  318C               	pagesel	$
  7896  0C49                     i1l101:
  7897  0C49  0008               	return
  7898  0C4A                     __end_of_TMR2_CallBack:
  7899                           
  7900                           	psect	text31
  7901  07FF                     __ptext31:	
  7902 ;; *************** function _TMR2_DefaultInterruptHandler *****************
  7903 ;; Defined at:
  7904 ;;		line 144 in file "mcc_generated_files/tmr2.c"
  7905 ;; Parameters:    Size  Location     Type
  7906 ;;		None
  7907 ;; Auto vars:     Size  Location     Type
  7908 ;;		None
  7909 ;; Return value:  Size  Location     Type
  7910 ;;                  1    wreg      void 
  7911 ;; Registers used:
  7912 ;;		None
  7913 ;; Tracked objects:
  7914 ;;		On entry : 0/0
  7915 ;;		On exit  : 0/0
  7916 ;;		Unchanged: 0/0
  7917 ;; Data sizes:     COMMON   BANK0   BANK1   BANK2   BANK3   BANK4   BANK5   BANK6   BANK7   BANK8   BANK9  BANK10  BANK1
      +1  BANK12
  7918 ;;      Params:         0       0       0       0       0       0       0       0       0       0       0       0       
      +0       0
  7919 ;;      Locals:         0       0       0       0       0       0       0       0       0       0       0       0       
      +0       0
  7920 ;;      Temps:          0       0       0       0       0       0       0       0       0       0       0       0       
      +0       0
  7921 ;;      Totals:         0       0       0       0       0       0       0       0       0       0       0       0       
      +0       0
  7922 ;;Total ram usage:        0 bytes
  7923 ;; Hardware stack levels used:    1
  7924 ;; This function calls:
  7925 ;;		Nothing
  7926 ;; This function is called by:
  7927 ;;		_TMR2_Initialize
  7928 ;;		_TMR2_CallBack
  7929 ;; This function uses a non-reentrant model
  7930 ;;
  7931                           
  7932                           
  7933                           ;psect for function _TMR2_DefaultInterruptHandler
  7934  07FF                     _TMR2_DefaultInterruptHandler:
  7935  07FF                     i1l107:	
  7936                           ;incstack = 0
  7937                           ; Regs used in _TMR2_DefaultInterruptHandler: []
  7938                           
  7939  07FF  0008               	return
  7940  0800                     __end_of_TMR2_DefaultInterruptHandler:
  7941                           
  7942                           	psect	text32
  7943  0CA6                     __ptext32:	
  7944 ;; *************** function _EUSART_Transmit_ISR *****************
  7945 ;; Defined at:
  7946 ;;		line 206 in file "mcc_generated_files/eusart.c"
  7947 ;; Parameters:    Size  Location     Type
  7948 ;;		None
  7949 ;; Auto vars:     Size  Location     Type
  7950 ;;		None
  7951 ;; Return value:  Size  Location     Type
  7952 ;;                  1    wreg      void 
  7953 ;; Registers used:
  7954 ;;		wreg, fsr1l, fsr1h, status,2, status,0
  7955 ;; Tracked objects:
  7956 ;;		On entry : 0/0
  7957 ;;		On exit  : 0/0
  7958 ;;		Unchanged: 0/0
  7959 ;; Data sizes:     COMMON   BANK0   BANK1   BANK2   BANK3   BANK4   BANK5   BANK6   BANK7   BANK8   BANK9  BANK10  BANK1
      +1  BANK12
  7960 ;;      Params:         0       0       0       0       0       0       0       0       0       0       0       0       
      +0       0
  7961 ;;      Locals:         0       0       0       0       0       0       0       0       0       0       0       0       
      +0       0
  7962 ;;      Temps:          1       0       0       0       0       0       0       0       0       0       0       0       
      +0       0
  7963 ;;      Totals:         1       0       0       0       0       0       0       0       0       0       0       0       
      +0       0
  7964 ;;Total ram usage:        1 bytes
  7965 ;; Hardware stack levels used:    1
  7966 ;; This function calls:
  7967 ;;		Nothing
  7968 ;; This function is called by:
  7969 ;;		_EUSART_Initialize
  7970 ;;		_INTERRUPT_InterruptManager
  7971 ;; This function uses a non-reentrant model
  7972 ;;
  7973                           
  7974                           
  7975                           ;psect for function _EUSART_Transmit_ISR
  7976  0CA6                     _EUSART_Transmit_ISR:
  7977  0CA6                     i1l2778:	
  7978                           ;incstack = 0
  7979                           ; Regs used in _EUSART_Transmit_ISR: [wreg+fsr1l+fsr1h+status,2+status,0]
  7980                           
  7981                           
  7982                           ;eusart.c: 210: if(sizeof(eusartTxBuffer) > eusartTxBufferRemaining)
  7983  0CA6  3008               	movlw	8
  7984  0CA7  0020               	movlb	0	; select bank0
  7985  0CA8  026E               	subwf	_eusartTxBufferRemaining,w	;volatile
  7986  0CA9  1803               	skipnc
  7987  0CAA  2CAC               	goto	u315_21
  7988  0CAB  2CAD               	goto	u315_20
  7989  0CAC                     u315_21:
  7990  0CAC  2CC5               	goto	i1l292
  7991  0CAD                     u315_20:
  7992  0CAD                     i1l2780:
  7993                           
  7994                           ;eusart.c: 211: {;eusart.c: 212: TX1REG = eusartTxBuffer[eusartTxTail++];
  7995  0CAD  086C               	movf	_eusartTxTail,w
  7996  0CAE  3EB0               	addlw	(low (_eusartTxBuffer| 0))& (0+255)
  7997  0CAF  0086               	movwf	6
  7998  0CB0  0187               	clrf	7
  7999  0CB1  0801               	movf	1,w
  8000  0CB2  0023               	movlb	3	; select bank3
  8001  0CB3  009A               	movwf	26	;volatile
  8002  0CB4                     i1l2782:
  8003  0CB4  3001               	movlw	1
  8004  0CB5  00F0               	movwf	??_EUSART_Transmit_ISR
  8005  0CB6  0870               	movf	??_EUSART_Transmit_ISR,w
  8006  0CB7  0020               	movlb	0	; select bank0
  8007  0CB8  07EC               	addwf	_eusartTxTail,f	;volatile
  8008  0CB9                     i1l2784:
  8009                           
  8010                           ;eusart.c: 213: if(sizeof(eusartTxBuffer) <= eusartTxTail)
  8011  0CB9  3008               	movlw	8
  8012  0CBA  026C               	subwf	_eusartTxTail,w	;volatile
  8013  0CBB  1C03               	skipc
  8014  0CBC  2CBE               	goto	u316_21
  8015  0CBD  2CBF               	goto	u316_20
  8016  0CBE                     u316_21:
  8017  0CBE  2CC0               	goto	i1l2788
  8018  0CBF                     u316_20:
  8019  0CBF                     i1l2786:
  8020                           
  8021                           ;eusart.c: 214: {;eusart.c: 215: eusartTxTail = 0;
  8022  0CBF  01EC               	clrf	_eusartTxTail	;volatile
  8023  0CC0                     i1l2788:
  8024                           
  8025                           ;eusart.c: 216: };eusart.c: 217: eusartTxBufferRemaining++;
  8026  0CC0  3001               	movlw	1
  8027  0CC1  00F0               	movwf	??_EUSART_Transmit_ISR
  8028  0CC2  0870               	movf	??_EUSART_Transmit_ISR,w
  8029  0CC3  07EE               	addwf	_eusartTxBufferRemaining,f	;volatile
  8030                           
  8031                           ;eusart.c: 218: }
  8032  0CC4  2CC7               	goto	i1l295
  8033  0CC5                     i1l292:
  8034                           
  8035                           ;eusart.c: 219: else;eusart.c: 220: {;eusart.c: 221: PIE1bits.TXIE = 0;
  8036  0CC5  0021               	movlb	1	; select bank1
  8037  0CC6  1211               	bcf	17,4	;volatile
  8038  0CC7                     i1l295:
  8039  0CC7  0008               	return
  8040  0CC8                     __end_of_EUSART_Transmit_ISR:
  8041                           
  8042                           	psect	text33
  8043  0D71                     __ptext33:	
  8044 ;; *************** function _EUSART_Receive_ISR *****************
  8045 ;; Defined at:
  8046 ;;		line 225 in file "mcc_generated_files/eusart.c"
  8047 ;; Parameters:    Size  Location     Type
  8048 ;;		None
  8049 ;; Auto vars:     Size  Location     Type
  8050 ;;		None
  8051 ;; Return value:  Size  Location     Type
  8052 ;;                  1    wreg      void 
  8053 ;; Registers used:
  8054 ;;		wreg, fsr1l, fsr1h, status,2, status,0, pclath, cstack
  8055 ;; Tracked objects:
  8056 ;;		On entry : 0/0
  8057 ;;		On exit  : 0/0
  8058 ;;		Unchanged: 0/0
  8059 ;; Data sizes:     COMMON   BANK0   BANK1   BANK2   BANK3   BANK4   BANK5   BANK6   BANK7   BANK8   BANK9  BANK10  BANK1
      +1  BANK12
  8060 ;;      Params:         0       0       0       0       0       0       0       0       0       0       0       0       
      +0       0
  8061 ;;      Locals:         0       0       0       0       0       0       0       0       0       0       0       0       
      +0       0
  8062 ;;      Temps:          0       0       0       0       0       0       0       0       0       0       0       0       
      +0       0
  8063 ;;      Totals:         0       0       0       0       0       0       0       0       0       0       0       0       
      +0       0
  8064 ;;Total ram usage:        0 bytes
  8065 ;; Hardware stack levels used:    1
  8066 ;; Hardware stack levels required when called:    2
  8067 ;; This function calls:
  8068 ;;		Absolute function
  8069 ;;		_EUSART_DefaultErrorHandler
  8070 ;;		_EUSART_DefaultFramingErrorHandler
  8071 ;;		_EUSART_DefaultOverrunErrorHandler
  8072 ;;		_EUSART_RxDataHandler
  8073 ;; This function is called by:
  8074 ;;		_EUSART_Initialize
  8075 ;;		_INTERRUPT_InterruptManager
  8076 ;; This function uses a non-reentrant model
  8077 ;;
  8078                           
  8079                           
  8080                           ;psect for function _EUSART_Receive_ISR
  8081  0D71                     _EUSART_Receive_ISR:
  8082  0D71                     i1l2790:	
  8083                           ;incstack = 0
  8084                           ; Regs used in _EUSART_Receive_ISR: [wreg+fsr1l+fsr1h+status,2+status,0+pclath+cstack]
  8085                           
  8086                           
  8087                           ;eusart.c: 228: eusartRxStatusBuffer[eusartRxHead].status = 0;
  8088  0D71  087C               	movf	_eusartRxHead,w	;volatile
  8089  0D72  3EA0               	addlw	(low (_eusartRxStatusBuffer| 0))& (0+255)
  8090  0D73  0086               	movwf	6
  8091  0D74  0187               	clrf	7
  8092  0D75  0181               	clrf	1
  8093  0D76                     i1l2792:
  8094                           
  8095                           ;eusart.c: 230: if(RC1STAbits.FERR){
  8096  0D76  0023               	movlb	3	; select bank3
  8097  0D77  1D1D               	btfss	29,2	;volatile
  8098  0D78  2D7A               	goto	u317_21
  8099  0D79  2D7B               	goto	u317_20
  8100  0D7A                     u317_21:
  8101  0D7A  2D86               	goto	i1l2798
  8102  0D7B                     u317_20:
  8103  0D7B                     i1l2794:
  8104                           
  8105                           ;eusart.c: 231: eusartRxStatusBuffer[eusartRxHead].ferr = 1;
  8106  0D7B  087C               	movf	_eusartRxHead,w	;volatile
  8107  0D7C  3EA0               	addlw	(low (_eusartRxStatusBuffer| 0))& (0+255)
  8108  0D7D  0086               	movwf	6
  8109  0D7E  0187               	clrf	7
  8110  0D7F  1481               	bsf	1,1
  8111  0D80                     i1l2796:
  8112                           
  8113                           ;eusart.c: 232: EUSART_FramingErrorHandler();
  8114  0D80  0021               	movlb	1	; select bank1
  8115  0D81  0857               	movf	(_EUSART_FramingErrorHandler+1)^(0+128),w
  8116  0D82  008A               	movwf	10
  8117  0D83  0856               	movf	_EUSART_FramingErrorHandler^(0+128),w
  8118  0D84  000A               	callw
  8119  0D85  318D               	pagesel	$
  8120  0D86                     i1l2798:
  8121                           
  8122                           ;eusart.c: 233: };eusart.c: 235: if(RC1STAbits.OERR){
  8123  0D86  0023               	movlb	3	; select bank3
  8124  0D87  1C9D               	btfss	29,1	;volatile
  8125  0D88  2D8A               	goto	u318_21
  8126  0D89  2D8B               	goto	u318_20
  8127  0D8A                     u318_21:
  8128  0D8A  2D96               	goto	i1l2804
  8129  0D8B                     u318_20:
  8130  0D8B                     i1l2800:
  8131                           
  8132                           ;eusart.c: 236: eusartRxStatusBuffer[eusartRxHead].oerr = 1;
  8133  0D8B  087C               	movf	_eusartRxHead,w	;volatile
  8134  0D8C  3EA0               	addlw	(low (_eusartRxStatusBuffer| 0))& (0+255)
  8135  0D8D  0086               	movwf	6
  8136  0D8E  0187               	clrf	7
  8137  0D8F  1501               	bsf	1,2
  8138  0D90                     i1l2802:
  8139                           
  8140                           ;eusart.c: 237: EUSART_OverrunErrorHandler();
  8141  0D90  0021               	movlb	1	; select bank1
  8142  0D91  0855               	movf	(_EUSART_OverrunErrorHandler+1)^(0+128),w
  8143  0D92  008A               	movwf	10
  8144  0D93  0854               	movf	_EUSART_OverrunErrorHandler^(0+128),w
  8145  0D94  000A               	callw
  8146  0D95  318D               	pagesel	$
  8147  0D96                     i1l2804:
  8148                           
  8149                           ;eusart.c: 238: };eusart.c: 240: if(eusartRxStatusBuffer[eusartRxHead].status){
  8150  0D96  087C               	movf	_eusartRxHead,w	;volatile
  8151  0D97  3EA0               	addlw	(low (_eusartRxStatusBuffer| 0))& (0+255)
  8152  0D98  0086               	movwf	6
  8153  0D99  0187               	clrf	7
  8154  0D9A  0801               	movf	1,w
  8155  0D9B  1903               	btfsc	3,2
  8156  0D9C  2D9E               	goto	u319_21
  8157  0D9D  2D9F               	goto	u319_20
  8158  0D9E                     u319_21:
  8159  0D9E  2DA6               	goto	i1l2808
  8160  0D9F                     u319_20:
  8161  0D9F                     i1l2806:
  8162                           
  8163                           ;eusart.c: 241: EUSART_ErrorHandler();
  8164  0D9F  0021               	movlb	1	; select bank1
  8165  0DA0  0853               	movf	(_EUSART_ErrorHandler+1)^(0+128),w
  8166  0DA1  008A               	movwf	10
  8167  0DA2  0852               	movf	_EUSART_ErrorHandler^(0+128),w
  8168  0DA3  000A               	callw
  8169  0DA4  318D               	pagesel	$
  8170                           
  8171                           ;eusart.c: 242: } else {
  8172  0DA5  2DA9               	goto	i1l302
  8173  0DA6                     i1l2808:
  8174                           
  8175                           ;eusart.c: 243: EUSART_RxDataHandler();
  8176  0DA6  318C  2472  318D   	fcall	_EUSART_RxDataHandler
  8177  0DA9                     i1l302:
  8178  0DA9  0008               	return
  8179  0DAA                     __end_of_EUSART_Receive_ISR:
  8180                           
  8181                           	psect	text34
  8182  0BEB                     __ptext34:	
  8183 ;; *************** function _EUSART_DefaultOverrunErrorHandler *****************
  8184 ;; Defined at:
  8185 ;;		line 261 in file "mcc_generated_files/eusart.c"
  8186 ;; Parameters:    Size  Location     Type
  8187 ;;		None
  8188 ;; Auto vars:     Size  Location     Type
  8189 ;;		None
  8190 ;; Return value:  Size  Location     Type
  8191 ;;                  1    wreg      void 
  8192 ;; Registers used:
  8193 ;;		None
  8194 ;; Tracked objects:
  8195 ;;		On entry : 0/0
  8196 ;;		On exit  : 0/0
  8197 ;;		Unchanged: 0/0
  8198 ;; Data sizes:     COMMON   BANK0   BANK1   BANK2   BANK3   BANK4   BANK5   BANK6   BANK7   BANK8   BANK9  BANK10  BANK1
      +1  BANK12
  8199 ;;      Params:         0       0       0       0       0       0       0       0       0       0       0       0       
      +0       0
  8200 ;;      Locals:         0       0       0       0       0       0       0       0       0       0       0       0       
      +0       0
  8201 ;;      Temps:          0       0       0       0       0       0       0       0       0       0       0       0       
      +0       0
  8202 ;;      Totals:         0       0       0       0       0       0       0       0       0       0       0       0       
      +0       0
  8203 ;;Total ram usage:        0 bytes
  8204 ;; Hardware stack levels used:    1
  8205 ;; This function calls:
  8206 ;;		Nothing
  8207 ;; This function is called by:
  8208 ;;		_EUSART_Initialize
  8209 ;;		_EUSART_Receive_ISR
  8210 ;; This function uses a non-reentrant model
  8211 ;;
  8212                           
  8213                           
  8214                           ;psect for function _EUSART_DefaultOverrunErrorHandler
  8215  0BEB                     _EUSART_DefaultOverrunErrorHandler:
  8216  0BEB                     i1l2132:	
  8217                           ;incstack = 0
  8218                           ; Regs used in _EUSART_DefaultOverrunErrorHandler: []
  8219                           
  8220                           
  8221                           ;eusart.c: 264: RC1STAbits.CREN = 0;
  8222  0BEB  0023               	movlb	3	; select bank3
  8223  0BEC  121D               	bcf	29,4	;volatile
  8224                           
  8225                           ;eusart.c: 265: RC1STAbits.CREN = 1;
  8226  0BED  161D               	bsf	29,4	;volatile
  8227  0BEE                     i1l312:
  8228  0BEE  0008               	return
  8229  0BEF                     __end_of_EUSART_DefaultOverrunErrorHandler:
  8230                           
  8231                           	psect	text35
  8232  0003                     __ptext35:	
  8233 ;; *************** function _EUSART_DefaultFramingErrorHandler *****************
  8234 ;; Defined at:
  8235 ;;		line 259 in file "mcc_generated_files/eusart.c"
  8236 ;; Parameters:    Size  Location     Type
  8237 ;;		None
  8238 ;; Auto vars:     Size  Location     Type
  8239 ;;		None
  8240 ;; Return value:  Size  Location     Type
  8241 ;;                  1    wreg      void 
  8242 ;; Registers used:
  8243 ;;		None
  8244 ;; Tracked objects:
  8245 ;;		On entry : 0/0
  8246 ;;		On exit  : 0/0
  8247 ;;		Unchanged: 0/0
  8248 ;; Data sizes:     COMMON   BANK0   BANK1   BANK2   BANK3   BANK4   BANK5   BANK6   BANK7   BANK8   BANK9  BANK10  BANK1
      +1  BANK12
  8249 ;;      Params:         0       0       0       0       0       0       0       0       0       0       0       0       
      +0       0
  8250 ;;      Locals:         0       0       0       0       0       0       0       0       0       0       0       0       
      +0       0
  8251 ;;      Temps:          0       0       0       0       0       0       0       0       0       0       0       0       
      +0       0
  8252 ;;      Totals:         0       0       0       0       0       0       0       0       0       0       0       0       
      +0       0
  8253 ;;Total ram usage:        0 bytes
  8254 ;; Hardware stack levels used:    1
  8255 ;; This function calls:
  8256 ;;		Nothing
  8257 ;; This function is called by:
  8258 ;;		_EUSART_Initialize
  8259 ;;		_EUSART_Receive_ISR
  8260 ;; This function uses a non-reentrant model
  8261 ;;
  8262                           
  8263                           
  8264                           ;psect for function _EUSART_DefaultFramingErrorHandler
  8265  0003                     _EUSART_DefaultFramingErrorHandler:
  8266  0003                     i1l309:	
  8267                           ;incstack = 0
  8268                           ; Regs used in _EUSART_DefaultFramingErrorHandler: []
  8269                           
  8270  0003  0008               	return
  8271  0004                     __end_of_EUSART_DefaultFramingErrorHandler:
  8272                           
  8273                           	psect	text36
  8274  0BE7                     __ptext36:	
  8275 ;; *************** function _EUSART_DefaultErrorHandler *****************
  8276 ;; Defined at:
  8277 ;;		line 269 in file "mcc_generated_files/eusart.c"
  8278 ;; Parameters:    Size  Location     Type
  8279 ;;		None
  8280 ;; Auto vars:     Size  Location     Type
  8281 ;;		None
  8282 ;; Return value:  Size  Location     Type
  8283 ;;                  1    wreg      void 
  8284 ;; Registers used:
  8285 ;;		wreg, fsr1l, fsr1h, status,2, status,0, pclath, cstack
  8286 ;; Tracked objects:
  8287 ;;		On entry : 0/0
  8288 ;;		On exit  : 0/0
  8289 ;;		Unchanged: 0/0
  8290 ;; Data sizes:     COMMON   BANK0   BANK1   BANK2   BANK3   BANK4   BANK5   BANK6   BANK7   BANK8   BANK9  BANK10  BANK1
      +1  BANK12
  8291 ;;      Params:         0       0       0       0       0       0       0       0       0       0       0       0       
      +0       0
  8292 ;;      Locals:         0       0       0       0       0       0       0       0       0       0       0       0       
      +0       0
  8293 ;;      Temps:          0       0       0       0       0       0       0       0       0       0       0       0       
      +0       0
  8294 ;;      Totals:         0       0       0       0       0       0       0       0       0       0       0       0       
      +0       0
  8295 ;;Total ram usage:        0 bytes
  8296 ;; Hardware stack levels used:    1
  8297 ;; Hardware stack levels required when called:    1
  8298 ;; This function calls:
  8299 ;;		_EUSART_RxDataHandler
  8300 ;; This function is called by:
  8301 ;;		_EUSART_Initialize
  8302 ;;		_EUSART_Receive_ISR
  8303 ;; This function uses a non-reentrant model
  8304 ;;
  8305                           
  8306                           
  8307                           ;psect for function _EUSART_DefaultErrorHandler
  8308  0BE7                     _EUSART_DefaultErrorHandler:
  8309  0BE7                     i1l2134:	
  8310                           ;incstack = 0
  8311                           ; Regs used in _EUSART_DefaultErrorHandler: [wreg+fsr1l+fsr1h+status,2+status,0+pclath+c
      +                          stack]
  8312                           
  8313                           
  8314                           ;eusart.c: 270: EUSART_RxDataHandler();
  8315  0BE7  318C  2472  318B   	fcall	_EUSART_RxDataHandler
  8316  0BEA                     i1l315:
  8317  0BEA  0008               	return
  8318  0BEB                     __end_of_EUSART_DefaultErrorHandler:
  8319                           
  8320                           	psect	text37
  8321  0C72                     __ptext37:	
  8322 ;; *************** function _EUSART_RxDataHandler *****************
  8323 ;; Defined at:
  8324 ;;		line 249 in file "mcc_generated_files/eusart.c"
  8325 ;; Parameters:    Size  Location     Type
  8326 ;;		None
  8327 ;; Auto vars:     Size  Location     Type
  8328 ;;		None
  8329 ;; Return value:  Size  Location     Type
  8330 ;;                  1    wreg      void 
  8331 ;; Registers used:
  8332 ;;		wreg, fsr1l, fsr1h, status,2, status,0
  8333 ;; Tracked objects:
  8334 ;;		On entry : 0/0
  8335 ;;		On exit  : 0/0
  8336 ;;		Unchanged: 0/0
  8337 ;; Data sizes:     COMMON   BANK0   BANK1   BANK2   BANK3   BANK4   BANK5   BANK6   BANK7   BANK8   BANK9  BANK10  BANK1
      +1  BANK12
  8338 ;;      Params:         0       0       0       0       0       0       0       0       0       0       0       0       
      +0       0
  8339 ;;      Locals:         0       0       0       0       0       0       0       0       0       0       0       0       
      +0       0
  8340 ;;      Temps:          1       0       0       0       0       0       0       0       0       0       0       0       
      +0       0
  8341 ;;      Totals:         1       0       0       0       0       0       0       0       0       0       0       0       
      +0       0
  8342 ;;Total ram usage:        1 bytes
  8343 ;; Hardware stack levels used:    1
  8344 ;; This function calls:
  8345 ;;		Nothing
  8346 ;; This function is called by:
  8347 ;;		_EUSART_Receive_ISR
  8348 ;;		_EUSART_DefaultErrorHandler
  8349 ;; This function uses a non-reentrant model
  8350 ;;
  8351                           
  8352                           
  8353                           ;psect for function _EUSART_RxDataHandler
  8354  0C72                     _EUSART_RxDataHandler:
  8355  0C72                     i1l2000:	
  8356                           ;incstack = 0
  8357                           ; Regs used in _EUSART_RxDataHandler: [wreg+fsr1l+fsr1h+status,2+status,0]
  8358                           
  8359                           
  8360                           ;eusart.c: 251: eusartRxBuffer[eusartRxHead++] = RC1REG;
  8361  0C72  0023               	movlb	3	; select bank3
  8362  0C73  0819               	movf	25,w	;volatile
  8363  0C74  00F0               	movwf	??_EUSART_RxDataHandler
  8364  0C75  087C               	movf	_eusartRxHead,w
  8365  0C76  3EA8               	addlw	(low (_eusartRxBuffer| 0))& (0+255)
  8366  0C77  0086               	movwf	6
  8367  0C78  0187               	clrf	7
  8368  0C79  0870               	movf	??_EUSART_RxDataHandler,w
  8369  0C7A  0081               	movwf	1
  8370  0C7B                     i1l2002:
  8371  0C7B  3001               	movlw	1
  8372  0C7C  00F0               	movwf	??_EUSART_RxDataHandler
  8373  0C7D  0870               	movf	??_EUSART_RxDataHandler,w
  8374  0C7E  07FC               	addwf	_eusartRxHead,f	;volatile
  8375  0C7F                     i1l2004:
  8376                           
  8377                           ;eusart.c: 252: if(sizeof(eusartRxBuffer) <= eusartRxHead)
  8378  0C7F  3008               	movlw	8
  8379  0C80  027C               	subwf	_eusartRxHead,w	;volatile
  8380  0C81  1C03               	skipc
  8381  0C82  2C84               	goto	u172_21
  8382  0C83  2C85               	goto	u172_20
  8383  0C84                     u172_21:
  8384  0C84  2C86               	goto	i1l2008
  8385  0C85                     u172_20:
  8386  0C85                     i1l2006:
  8387                           
  8388                           ;eusart.c: 253: {;eusart.c: 254: eusartRxHead = 0;
  8389  0C85  01FC               	clrf	_eusartRxHead	;volatile
  8390  0C86                     i1l2008:
  8391                           
  8392                           ;eusart.c: 255: };eusart.c: 256: eusartRxCount++;
  8393  0C86  3001               	movlw	1
  8394  0C87  00F0               	movwf	??_EUSART_RxDataHandler
  8395  0C88  0870               	movf	??_EUSART_RxDataHandler,w
  8396  0C89  0020               	movlb	0	; select bank0
  8397  0C8A  07EA               	addwf	_eusartRxCount,f	;volatile
  8398  0C8B                     i1l306:
  8399  0C8B  0008               	return
  8400  0C8C                     __end_of_EUSART_RxDataHandler:
  8401  007E                     btemp	set	126	;btemp
  8402  007E                     int$flags	set	126
  8403  007E                     wtemp0	set	126
  8404                           
  8405                           	psect	config
  8406                           
  8407                           ;Config register CONFIG1 @ 0x8007
  8408                           ;	Oscillator Selection Bits
  8409                           ;	FOSC = INTOSC, INTOSC oscillator: I/O function on CLKIN pin
  8410                           ;	Watchdog Timer Enable
  8411                           ;	WDTE = OFF, WDT disabled
  8412                           ;	Power-up Timer Enable
  8413                           ;	PWRTE = OFF, PWRT disabled
  8414                           ;	MCLR Pin Function Select
  8415                           ;	MCLRE = ON, MCLR/VPP pin function is MCLR
  8416                           ;	Flash Program Memory Code Protection
  8417                           ;	CP = OFF, Program memory code protection is disabled
  8418                           ;	Brown-out Reset Enable
  8419                           ;	BOREN = OFF, Brown-out Reset disabled
  8420                           ;	Clock Out Enable
  8421                           ;	CLKOUTEN = OFF, CLKOUT function is disabled. I/O or oscillator function on the CLKOUT 
      +                          pin
  8422                           ;	Internal/External Switchover Mode
  8423                           ;	IESO = ON, Internal/External Switchover Mode is enabled
  8424                           ;	Fail-Safe Clock Monitor Enable
  8425                           ;	FCMEN = ON, Fail-Safe Clock Monitor is enabled
  8426  8007                     	org	32775
  8427  8007  39E4               	dw	14820
  8428                           
  8429                           ;Config register CONFIG2 @ 0x8008
  8430                           ;	Flash Memory Self-Write Protection
  8431                           ;	WRT = OFF, Write protection off
  8432                           ;	Peripheral Pin Select one-way control
  8433                           ;	PPS1WAY = ON, The PPSLOCK bit cannot be cleared once it is set by software
  8434                           ;	Zero-cross detect disable
  8435                           ;	ZCDDIS = ON, Zero-cross detect circuit is disabled at POR
  8436                           ;	Phase Lock Loop enable
  8437                           ;	PLLEN = OFF, 4x PLL is enabled when software sets the SPLLEN bit
  8438                           ;	Stack Overflow/Underflow Reset Enable
  8439                           ;	STVREN = ON, Stack Overflow or Underflow will cause a Reset
  8440                           ;	Brown-out Reset Voltage Selection
  8441                           ;	BORV = LO, Brown-out Reset Voltage (Vbor), low trip point selected.
  8442                           ;	Low-Power Brown Out Reset
  8443                           ;	LPBOR = OFF, Low-Power BOR is disabled
  8444                           ;	Low-Voltage Programming Enable
  8445                           ;	LVP = OFF, High-voltage on MCLR/VPP must be used for programming
  8446  8008                     	org	32776
  8447  8008  1EFF               	dw	7935

Data Sizes:
    Strings     9
    Constant    10
    Data        0
    BSS         32
    Persistent  45
    Stack       0

Auto Spaces:
    Space          Size  Autos    Used
    COMMON           14     12      13
    BANK0            80     73      79
    BANK1            80     24      62
    BANK2            80      0       0
    BANK3            80      0       0
    BANK4            80      0       0
    BANK5            80      0       0
    BANK6            80      0       0
    BANK7            80      0       0
    BANK8            80      0       0
    BANK9            80      0       0
    BANK10           80      0       0
    BANK11           80      0       0
    BANK12           48      0       0

Pointer List with Targets:

    ADC_InterruptHandler	PTR FTN()void  size(2) Largest target is 1
		 -> Absolute function(), 

    printf@f	PTR const unsigned char  size(2) Largest target is 9
		 -> STR_1(CODE[9]), 

    printf@ap	PTR void [1] size(1) Largest target is 2
		 -> ?_printf(BANK0[2]), 

    EUSART_SetRxInterruptHandler@interruptHandler	PTR FTN()void  size(2) Largest target is 1
		 -> EUSART_Receive_ISR(), 

    EUSART_RxDefaultInterruptHandler	PTR FTN()void  size(2) Largest target is 1
		 -> EUSART_Receive_ISR(), Absolute function(), 

    EUSART_SetTxInterruptHandler@interruptHandler	PTR FTN()void  size(2) Largest target is 1
		 -> EUSART_Transmit_ISR(), 

    EUSART_TxDefaultInterruptHandler	PTR FTN()void  size(2) Largest target is 1
		 -> EUSART_Transmit_ISR(), Absolute function(), 

    EUSART_SetErrorHandler@interruptHandler	PTR FTN()void  size(2) Largest target is 1
		 -> EUSART_DefaultErrorHandler(), 

    EUSART_SetOverrunErrorHandler@interruptHandler	PTR FTN()void  size(2) Largest target is 1
		 -> EUSART_DefaultOverrunErrorHandler(), 

    EUSART_SetFramingErrorHandler@interruptHandler	PTR FTN()void  size(2) Largest target is 1
		 -> EUSART_DefaultFramingErrorHandler(), 

    EUSART_ErrorHandler	PTR FTN()void  size(2) Largest target is 1
		 -> EUSART_DefaultErrorHandler(), Absolute function(), 

    EUSART_OverrunErrorHandler	PTR FTN()void  size(2) Largest target is 1
		 -> EUSART_DefaultOverrunErrorHandler(), Absolute function(), 

    EUSART_FramingErrorHandler	PTR FTN()void  size(2) Largest target is 1
		 -> EUSART_DefaultFramingErrorHandler(), Absolute function(), 

    TMR2_SetInterruptHandler@InterruptHandler	PTR FTN()void  size(2) Largest target is 1
		 -> TMR2_DefaultInterruptHandler(), 

    TMR2_InterruptHandler	PTR FTN()void  size(2) Largest target is 1
		 -> Absolute function(), TMR2_DefaultInterruptHandler(), 


Critical Paths under _main in COMMON

    _printf->___lwmod
    _putch->_EUSART_Write
    ___lwmod->___lwdiv
    _map->___fltol
    ___flmul->__Umul8_16
    ___fldiv->___xxtofl
    _SYSTEM_Initialize->_EUSART_Initialize
    _TMR2_Initialize->_TMR2_SetInterruptHandler
    _EUSART_Initialize->_EUSART_SetErrorHandler
    _EUSART_Initialize->_EUSART_SetFramingErrorHandler
    _EUSART_Initialize->_EUSART_SetOverrunErrorHandler
    _EUSART_Initialize->_EUSART_SetRxInterruptHandler
    _EUSART_Initialize->_EUSART_SetTxInterruptHandler

Critical Paths under _INTERRUPT_InterruptManager in COMMON

    _INTERRUPT_InterruptManager->_EUSART_Transmit_ISR
    _EUSART_Receive_ISR->_EUSART_RxDataHandler
    _EUSART_DefaultErrorHandler->_EUSART_RxDataHandler

Critical Paths under _main in BANK0

    _main->_map
    _printf->___lwmod
    _map->___fltol
    ___fltol->___fladd
    ___flmul->___xxtofl
    ___fldiv->___xxtofl
    ___fladd->___flmul

Critical Paths under _INTERRUPT_InterruptManager in BANK0

    None.

Critical Paths under _main in BANK1

    _main->_map

Critical Paths under _INTERRUPT_InterruptManager in BANK1

    None.

Critical Paths under _main in BANK2

    None.

Critical Paths under _INTERRUPT_InterruptManager in BANK2

    None.

Critical Paths under _main in BANK3

    None.

Critical Paths under _INTERRUPT_InterruptManager in BANK3

    None.

Critical Paths under _main in BANK4

    None.

Critical Paths under _INTERRUPT_InterruptManager in BANK4

    None.

Critical Paths under _main in BANK5

    None.

Critical Paths under _INTERRUPT_InterruptManager in BANK5

    None.

Critical Paths under _main in BANK6

    None.

Critical Paths under _INTERRUPT_InterruptManager in BANK6

    None.

Critical Paths under _main in BANK7

    None.

Critical Paths under _INTERRUPT_InterruptManager in BANK7

    None.

Critical Paths under _main in BANK8

    None.

Critical Paths under _INTERRUPT_InterruptManager in BANK8

    None.

Critical Paths under _main in BANK9

    None.

Critical Paths under _INTERRUPT_InterruptManager in BANK9

    None.

Critical Paths under _main in BANK10

    None.

Critical Paths under _INTERRUPT_InterruptManager in BANK10

    None.

Critical Paths under _main in BANK11

    None.

Critical Paths under _INTERRUPT_InterruptManager in BANK11

    None.

Critical Paths under _main in BANK12

    None.

Critical Paths under _INTERRUPT_InterruptManager in BANK12

    None.

Call Graph Tables:

 ---------------------------------------------------------------------------------
 (Depth) Function   	        Calls       Base Space   Used Autos Params    Refs
 ---------------------------------------------------------------------------------
 (0) _main                                                14    14      0   10000
                                             71 BANK0      2     2      0
                                             12 BANK1     12    12      0
                  _ADC_GetConversion
                  _SYSTEM_Initialize
                                _map
                             _printf
 ---------------------------------------------------------------------------------
 (1) _printf                                              24    18      6    1445
                                              4 BANK0     16    10      6
                            ___lwdiv
                            ___lwmod
                              _putch
 ---------------------------------------------------------------------------------
 (2) _putch                                                1     1      0      66
                                              3 COMMON     1     1      0
                       _EUSART_Write
 ---------------------------------------------------------------------------------
 (3) _EUSART_Write                                         2     2      0      44
                                              1 COMMON     2     2      0
 ---------------------------------------------------------------------------------
 (2) ___lwmod                                              6     2      4     412
                                              9 COMMON     2     2      0
                                              0 BANK0      4     0      4
                            ___lwdiv (ARG)
 ---------------------------------------------------------------------------------
 (2) ___lwdiv                                              8     4      4     314
                                              1 COMMON     8     4      4
 ---------------------------------------------------------------------------------
 (1) _map                                                 22    12     10    7456
                                             61 BANK0     10     0     10
                                              0 BANK1     12    12      0
                            ___fladd
                            ___fldiv
                            ___flmul
                            ___fltol
                           ___xxtofl
 ---------------------------------------------------------------------------------
 (2) ___xxtofl                                            14    10      4     550
                                              1 COMMON     8     4      4
                                              0 BANK0      6     6      0
 ---------------------------------------------------------------------------------
 (2) ___fltol                                             11     7      4     305
                                             10 COMMON     2     2      0
                                             52 BANK0      9     5      4
                            ___fladd (ARG)
                            ___flmul (ARG)
                           ___xxtofl (ARG)
 ---------------------------------------------------------------------------------
 (2) ___flmul                                             26    18      8    2417
                                              6 BANK0     26    18      8
                          __Umul8_16
                           ___xxtofl (ARG)
 ---------------------------------------------------------------------------------
 (3) __Umul8_16                                            9     7      2     799
                                              1 COMMON     9     7      2
 ---------------------------------------------------------------------------------
 (2) ___fldiv                                             26    18      8    1273
                                              6 BANK0     26    18      8
                           ___xxtofl (ARG)
 ---------------------------------------------------------------------------------
 (2) ___fladd                                             20    12      8    2262
                                             32 BANK0     20    12      8
                            ___flmul (ARG)
                           ___xxtofl (ARG)
 ---------------------------------------------------------------------------------
 (1) _SYSTEM_Initialize                                    0     0      0     588
                     _ADC_Initialize
                  _EUSART_Initialize
              _OSCILLATOR_Initialize
             _PIN_MANAGER_Initialize
                    _PWM1_Initialize
                    _TMR2_Initialize
                     _WDT_Initialize
 ---------------------------------------------------------------------------------
 (2) _WDT_Initialize                                       0     0      0       0
 ---------------------------------------------------------------------------------
 (2) _TMR2_Initialize                                      0     0      0      98
           _TMR2_SetInterruptHandler
 ---------------------------------------------------------------------------------
 (3) _TMR2_SetInterruptHandler                             2     0      2      98
                                              1 COMMON     2     0      2
 ---------------------------------------------------------------------------------
 (2) _PWM1_Initialize                                      0     0      0       0
 ---------------------------------------------------------------------------------
 (2) _PIN_MANAGER_Initialize                               0     0      0       0
 ---------------------------------------------------------------------------------
 (2) _OSCILLATOR_Initialize                                0     0      0       0
 ---------------------------------------------------------------------------------
 (2) _EUSART_Initialize                                    1     1      0     490
                                              3 COMMON     1     1      0
             _EUSART_SetErrorHandler
      _EUSART_SetFramingErrorHandler
      _EUSART_SetOverrunErrorHandler
       _EUSART_SetRxInterruptHandler
       _EUSART_SetTxInterruptHandler
 ---------------------------------------------------------------------------------
 (3) _EUSART_SetTxInterruptHandler                         2     0      2      98
                                              1 COMMON     2     0      2
 ---------------------------------------------------------------------------------
 (3) _EUSART_SetRxInterruptHandler                         2     0      2      98
                                              1 COMMON     2     0      2
 ---------------------------------------------------------------------------------
 (3) _EUSART_SetOverrunErrorHandler                        2     0      2      98
                                              1 COMMON     2     0      2
 ---------------------------------------------------------------------------------
 (3) _EUSART_SetFramingErrorHandler                        2     0      2      98
                                              1 COMMON     2     0      2
 ---------------------------------------------------------------------------------
 (3) _EUSART_SetErrorHandler                               2     0      2      98
                                              1 COMMON     2     0      2
 ---------------------------------------------------------------------------------
 (2) _ADC_Initialize                                       0     0      0       0
 ---------------------------------------------------------------------------------
 (1) _ADC_GetConversion                                    4     2      2      22
                                              1 COMMON     4     2      2
 ---------------------------------------------------------------------------------
 Estimated maximum stack depth 3
 ---------------------------------------------------------------------------------
 (Depth) Function   	        Calls       Base Space   Used Autos Params    Refs
 ---------------------------------------------------------------------------------
 (4) _INTERRUPT_InterruptManager                           0     0      0       0
                   Absolute function *
                 _EUSART_Receive_ISR *
                _EUSART_Transmit_ISR *
                           _TMR2_ISR
 ---------------------------------------------------------------------------------
 (5) _TMR2_ISR                                             0     0      0       0
                      _TMR2_CallBack
 ---------------------------------------------------------------------------------
 (6) _TMR2_CallBack                                        0     0      0       0
                   Absolute function *
       _TMR2_DefaultInterruptHandler *
 ---------------------------------------------------------------------------------
 (7) _TMR2_DefaultInterruptHandler                         0     0      0       0
 ---------------------------------------------------------------------------------
 (5) _EUSART_Transmit_ISR                                  1     1      0       0
                                              0 COMMON     1     1      0
 ---------------------------------------------------------------------------------
 (5) _EUSART_Receive_ISR                                   0     0      0       0
                   Absolute function *
         _EUSART_DefaultErrorHandler *
  _EUSART_DefaultFramingErrorHandler *
  _EUSART_DefaultOverrunErrorHandler *
               _EUSART_RxDataHandler
 ---------------------------------------------------------------------------------
 (6) _EUSART_DefaultOverrunErrorHandler                    0     0      0       0
 ---------------------------------------------------------------------------------
 (6) _EUSART_DefaultFramingErrorHandler                    0     0      0       0
 ---------------------------------------------------------------------------------
 (6) _EUSART_DefaultErrorHandler                           0     0      0       0
               _EUSART_RxDataHandler
 ---------------------------------------------------------------------------------
 (6) _EUSART_RxDataHandler                                 1     1      0       0
                                              0 COMMON     1     1      0
 ---------------------------------------------------------------------------------
 (7) Absolute function(Fake)                               0     0      0       0
 ---------------------------------------------------------------------------------
 Estimated maximum stack depth 7
 ---------------------------------------------------------------------------------

 Call Graph Graphs:

 _main (ROOT)
   _ADC_GetConversion
   _SYSTEM_Initialize
     _ADC_Initialize
     _EUSART_Initialize
       _EUSART_SetErrorHandler
       _EUSART_SetFramingErrorHandler
       _EUSART_SetOverrunErrorHandler
       _EUSART_SetRxInterruptHandler
       _EUSART_SetTxInterruptHandler
     _OSCILLATOR_Initialize
     _PIN_MANAGER_Initialize
     _PWM1_Initialize
     _TMR2_Initialize
       _TMR2_SetInterruptHandler
     _WDT_Initialize
   _map
     ___fladd
       ___flmul (ARG)
         __Umul8_16
         ___xxtofl (ARG)
       ___xxtofl (ARG)
     ___fldiv
       ___xxtofl (ARG)
     ___flmul
       __Umul8_16
       ___xxtofl (ARG)
     ___fltol
       ___fladd (ARG)
         ___flmul (ARG)
           __Umul8_16
           ___xxtofl (ARG)
         ___xxtofl (ARG)
       ___flmul (ARG)
         __Umul8_16
         ___xxtofl (ARG)
       ___xxtofl (ARG)
     ___xxtofl
   _printf
     ___lwdiv
     ___lwmod
       ___lwdiv (ARG)
     _putch
       _EUSART_Write

 _INTERRUPT_InterruptManager (ROOT)
   Absolute function(Fake) *
   _EUSART_Receive_ISR *
     Absolute function(Fake) *
     _EUSART_DefaultErrorHandler *
       _EUSART_RxDataHandler
     _EUSART_DefaultFramingErrorHandler *
     _EUSART_DefaultOverrunErrorHandler *
     _EUSART_RxDataHandler *
   _EUSART_Transmit_ISR *
   _TMR2_ISR *
     _TMR2_CallBack
       Absolute function(Fake) *
       _TMR2_DefaultInterruptHandler *

 Address spaces:
Name               Size   Autos  Total    Cost      Usage
BIGRAM             3F0      0       0       0        0.0%
NULL                 0      0       0       0        0.0%
CODE                 0      0       0       0        0.0%
BITCOMMON            E      0       0       1        0.0%
BITSFR0              0      0       0       1        0.0%
SFR0                 0      0       0       1        0.0%
COMMON               E      C       D       2       92.9%
BITSFR1              0      0       0       2        0.0%
SFR1                 0      0       0       2        0.0%
BITSFR2              0      0       0       3        0.0%
SFR2                 0      0       0       3        0.0%
STACK                0      0       0       3        0.0%
BITBANK0            50      0       0       4        0.0%
BITSFR3              0      0       0       4        0.0%
SFR3                 0      0       0       4        0.0%
BANK0               50     49      4F       5       98.8%
BITSFR4              0      0       0       5        0.0%
SFR4                 0      0       0       5        0.0%
BITBANK1            50      0       0       6        0.0%
BITSFR5              0      0       0       6        0.0%
SFR5                 0      0       0       6        0.0%
BANK1               50     18      3E       7       77.5%
BITSFR6              0      0       0       7        0.0%
SFR6                 0      0       0       7        0.0%
BITBANK2            50      0       0       8        0.0%
BITSFR7              0      0       0       8        0.0%
SFR7                 0      0       0       8        0.0%
BANK2               50      0       0       9        0.0%
BITSFR8              0      0       0       9        0.0%
SFR8                 0      0       0       9        0.0%
BITBANK3            50      0       0      10        0.0%
BITSFR9              0      0       0      10        0.0%
SFR9                 0      0       0      10        0.0%
BANK3               50      0       0      11        0.0%
BITSFR10             0      0       0      11        0.0%
SFR10                0      0       0      11        0.0%
BITBANK4            50      0       0      12        0.0%
BITSFR11             0      0       0      12        0.0%
SFR11                0      0       0      12        0.0%
BANK4               50      0       0      13        0.0%
BITSFR12             0      0       0      13        0.0%
SFR12                0      0       0      13        0.0%
BITBANK5            50      0       0      14        0.0%
BITSFR13             0      0       0      14        0.0%
SFR13                0      0       0      14        0.0%
BANK5               50      0       0      15        0.0%
BITSFR14             0      0       0      15        0.0%
SFR14                0      0       0      15        0.0%
BITBANK6            50      0       0      16        0.0%
BITSFR15             0      0       0      16        0.0%
SFR15                0      0       0      16        0.0%
BANK6               50      0       0      17        0.0%
BITSFR16             0      0       0      17        0.0%
SFR16                0      0       0      17        0.0%
BITBANK7            50      0       0      18        0.0%
BITSFR17             0      0       0      18        0.0%
SFR17                0      0       0      18        0.0%
BANK7               50      0       0      19        0.0%
BITSFR18             0      0       0      19        0.0%
SFR18                0      0       0      19        0.0%
BITSFR19             0      0       0      20        0.0%
SFR19                0      0       0      20        0.0%
ABS                  0      0      9A      20        0.0%
BITBANK8            50      0       0      21        0.0%
BITSFR20             0      0       0      21        0.0%
SFR20                0      0       0      21        0.0%
BANK8               50      0       0      22        0.0%
BITSFR21             0      0       0      22        0.0%
SFR21                0      0       0      22        0.0%
BITBANK9            50      0       0      23        0.0%
BITSFR22             0      0       0      23        0.0%
SFR22                0      0       0      23        0.0%
BANK9               50      0       0      24        0.0%
BITSFR23             0      0       0      24        0.0%
SFR23                0      0       0      24        0.0%
BITBANK10           50      0       0      25        0.0%
BITSFR24             0      0       0      25        0.0%
SFR24                0      0       0      25        0.0%
BANK10              50      0       0      26        0.0%
BITSFR25             0      0       0      26        0.0%
SFR25                0      0       0      26        0.0%
BITBANK11           50      0       0      27        0.0%
BITSFR26             0      0       0      27        0.0%
SFR26                0      0       0      27        0.0%
BANK11              50      0       0      28        0.0%
BITSFR27             0      0       0      28        0.0%
SFR27                0      0       0      28        0.0%
BITBANK12           30      0       0      29        0.0%
BITSFR28             0      0       0      29        0.0%
SFR28                0      0       0      29        0.0%
BANK12              30      0       0      30        0.0%
BITSFR29             0      0       0      30        0.0%
SFR29                0      0       0      30        0.0%
BITSFR30             0      0       0      31        0.0%
SFR30                0      0       0      31        0.0%
DATA                 0      0      9A      31        0.0%
BITSFR31             0      0       0      32        0.0%
SFR31                0      0       0      32        0.0%


Microchip Technology PIC Macro Assembler V2.31 build 20201012212115 
Symbol Table                                                                                   Fri Feb 05 22:43:58 2021

                ?_EUSART_SetRxInterruptHandler 0071               __end_of_TMR2_SetInterruptHandler 0C1D  
                                 ___fldiv@aexp 003F                                   ___fldiv@bexp 003E  
                                 ___fldiv@sign 0037                                             l53 0C3C  
                                           l39 0D11                                             l79 0C5B  
                          __Umul8_16@word_mpld 0077                                            l104 0C1C  
                                          l140 0BF2                                            l134 0C71  
                                          l321 0C0A                                            l137 0C2A  
                                          l330 0C10                                            l324 0BFE  
                                          l174 0C9D                                            l318 0C04  
                                          l159 0C33                                            l327 0C16  
                                          l255 0E24                                            l280 0D22  
                                          l177 0CA5                                            l283 0D3B  
                                          l372 0FFF                                            l279 0D19  
                                          l289 0C22                                            l377 0770  
                                          l378 0787                                            l804 047D  
                                          l476 0756                                            l815 04D6  
                                          l807 04B4                                            l831 0693  
                                          l816 04DF                                            l752 0DE5  
                                          l673 0E84                                            l913 0EBD  
                                          l850 0661                                            l666 0E99  
                                          l762 0D70                                            l851 067B  
                                          l915 0F46                                            l676 0E99  
                                          l773 0306                                            l853 068A  
                                          l845 0615                                            l829 0537  
                                          l926 0F12                                            l927 0F1E  
                                          l919 0EF8                                            l777 03A7  
                                          l881 029B                                            l794 0439  
                                          l786 04DF                                            l890 0CEA  
                                          l779 0383                                            l875 0223  
                                          l869 02A7                                            l798 045B  
                                          l888 0CDA                                    map@out_diff 00C4  
                                          _PR2 001B                         ??_EUSART_RxDataHandler 0070  
                                          _map 0F47                 ?_EUSART_SetFramingErrorHandler 0071  
                              _TMR2_Initialize 0C4A                                            wreg 0009  
                                map@input_diff 00BE                                   ___flmul@aexp 0038  
                                 ___flmul@bexp 0039                                   ___flmul@sign 0033  
                                 ___flmul@temp 003E                                   ___flmul@prod 003A  
                                map@percentage 00BA                                   ___fltol@exp1 007B  
                                         l2010 0CC9                                           l2100 0DE8  
                                         l2020 0CE6                                           l2012 0CCB  
                                         l2110 0DFF                                           l2102 0DEF  
                                         l2030 0CF5                                           l2014 0CD2  
                                         l2120 0E1B                                           l2112 0E01  
                                         l2104 0DF8                                           l2040 0CFE  
                                         l2032 0CF7                                           l2024 0CEB  
                                         l2016 0CD6                                           l3000 0779  
                                         l2122 0E1F                                           l2114 0E02  
                                         l2106 0DFB                                           l2050 0D09  
                                         l2042 0CFF                                           l2034 0CF9  
                                         l2026 0CEE                                           l2018 0CE1  
                                         l2130 0C1E                                           l3010 07ED  
                                         l3002 0783                                           l2124 0E20  
                                         l2116 0E09                                           l2108 0DFD  
                                         l2052 0D0C                                           l2044 0D02  
                                         l2036 0CFA                                           l2028 0CF1  
                                         l2060 0C3A                                           l2300 0351  
                                         l2220 02A8                                           l3004 0791  
                                         l2126 0E21                                           l2118 0E10  
                                         l2054 0D0F                                           l2046 0D04  
                                         l2038 0CFC                                           l2070 0C51  
                                         l2062 0C4A                                           l2310 0393  
                                         l2302 0368                                           l2230 02BC  
                                         l2222 02AE                                           l2150 0E58  
                                         l2142 0E3A                                           l3006 0795  
                                         l2128 0E22                                           l2080 0C26  
                                         l2048 0D07                                           l2056 0C34  
                                         l2072 0C58                                           l2064 0C4D  
                                         l2400 04C6                                           l2320 03B0  
                                         l2312 0394                                           l2304 0387  
                                         l2240 02D4                                           l2232 02C1  
                                         l2224 02B2                                           l2152 0E5C  
                                         l2160 0E74                                           l2144 0E4D  
                                         l2136 0E25                                           l3008 07D5  
                                         l2090 0C2E                                           l2082 0C27  
                                         l2058 0C39                                           l2066 0C4E  
                                         l2410 04DA                                           l2402 04CB  
                                         l2330 03C9                                           l2314 039C  
                                         l2306 038D                                           l2250 02E8  
                                         l2242 02D9                                           l2234 02C9  
                                         l2226 02B6                                           l2170 0E8E  
                                         l2146 0E4E                                           l2138 0E31  
                                         l2092 0C2F                                           l2084 0C28  
                                         l2068 0C4F                                           l2412 04DE  
                                         l2404 04CC                                           l2340 03DE  
                                         l2332 03CF                                           l2324 03B9  
                                         l2308 038F                                           l2316 03A0  
                                         l2260 02FC                                           l2252 02E9  
                                         l2244 02DF                                           l2236 02CA  
                                         l2228 02B7                                           l2500 05DC  
                                         l2420 04EE                                           l2148 0E56  
                                         l2180 0DBA                                           l2172 0DAA  
                                         l2094 0C30                                           l2078 0C23  
                                         l2086 0BEF                                           l2406 04D0  
                                         l2350 0428                                           l2334 03D1  
                                         l2326 03C1                                           l2318 03AB  
                                         l2342 03E3                                           l2270 0318  
                                         l2254 02EE                                           l2262 02FE  
                                         l2246 02E0                                           l2238 02CC  
                                         l2510 05F1                                           l2502 05DE  
                                         l2430 0502                                           l2422 04EF  
                                         l2414 04E0                                           l2166 0E7B  
                                         l2158 0E64                                           l2190 0DD6  
                                         l2182 0DBE                                           l2174 0DAC  
                                         l2096 0C31                                           l2088 0C2B  
                                         l2408 04D2                                           l2360 044F  
                                         l2344 03F9                                           l2352 0431  
                                         l2336 03D5                                           l2328 03C5  
                                         l2280 032C                                           l2272 031C  
                                         l2264 030C                                           l2256 02F3  
                                         l2248 02E4                                           l2520 0612  
                                         l2504 05E5                                           l2512 05F5  
                                         l2440 0519                                           l2424 04F4  
                                         l2432 0504                                           l2416 04E6  
                                         l2600 00C6                                           l2168 0E89  
                                         l2192 0DDB                                           l2184 0DC2  
                                         l2176 0DB2                                           l2098 0DE6  
                                         l2370 0464                                           l2362 0456  
                                         l2354 0441                                           l2346 041D  
                                         l2338 03D6                                           l2290 0340  
                                         l2282 0330                                           l2274 0320  
                                         l2266 0310                                           l2258 02FB  
                                         l2530 062B                                           l2514 05F9  
                                         l2506 05E9                                           l2450 052D  
                                         l2442 051A                                           l2434 050C  
                                         l2426 04F9                                           l2418 04EA  
                                         l2610 0121                                           l2602 00D3  
                                         l2186 0DD1                                           l2178 0DB5  
                                         l2194 0DE1                                           l2380 0474  
                                         l2372 0469                                           l2364 045A  
                                         l2356 0446                                           l2348 0423  
                                         l2292 0344                                           l2284 0334  
                                         l2276 0324                                           l2268 0314  
                                         l2540 0672                                           l2532 0643  
                                         l2524 061A                                           l2516 05FA  
                                         l2508 05EA                                           l2444 051F  
                                         l2452 052F                                           l2436 0511  
                                         l2428 0501                                           l2620 0156  
                                         l2612 012E                                           l2604 00ED  
                                         l2700 0EB5                                           l2188 0DD5  
                                         l2390 048F                                           l2382 047A  
                                         l2366 045F                                           l2374 046B  
                                         l2294 0348                                           l2286 0338  
                                         l2278 0328                                           l2542 067A  
                                         l2526 061F                                           l2534 0647  
                                         l2518 05FE                                           l2470 0576  
                                         l2454 053F                                           l2462 0558  
                                         l2446 0524                                           l2438 0515  
                                         l2630 0199                                           l2622 015D  
                                         l2614 0135                                           l2606 00FA  
                                         l2710 0EDE                                           l2702 0EC5  
                                         l2392 0493                                           l2368 0462  
                                         l2376 046F                                           l2296 034C  
                                         l2288 033C                                           l2544 0680  
                                         l2536 0654                                           l2528 0627  
                                         l2480 0595                                           l2472 057E  
                                         l2464 055D                                           l2456 054B  
                                         l2448 052C                                           l2640 01EC  
                                         l2632 01AD                                           l2624 0171  
                                         l2616 0142                                           l2608 0114  
                                         l2560 005F                                           l2720 0F08  
                                         l2712 0EE5                                           l2394 04B0  
                                         l2386 0482                                           l2378 0470  
                                         l2298 0350                                           l2546 0684  
                                         l2538 066F                                           l2490 05C1  
                                         l2482 05A3                                           l2474 0586  
                                         l2458 054F                                           l2642 01F3  
                                         l2650 0203                                           l2634 01C2  
                                         l2626 0178                                           l2618 0149  
                                         l2570 0074                                           l2562 0060  
                                         l2554 0051                                           l2730 0F39  
                                         l2722 0F0C                                           l2714 0EE9  
                                         l2706 0ECE                                           l2810 0F47  
                                         l2396 04B9                                           l2388 0487  
                                         l2548 0686                                           l2492 05C2  
                                         l2484 05A7                                           l2476 058E  
                                         l2468 0566                                           l2652 0207  
                                         l2644 01F7                                           l2636 01D9  
                                         l2628 018C                                           l2580 008A  
                                         l2572 007C                                           l2564 0065  
                                         l2556 0057                                           l2732 0F3D  
                                         l2724 0F16                                           l2716 0EF1  
                                         l2708 0ED3                                           l2812 0F65  
                                         l2750 0C9B                                           l2742 0C5C  
                                         l2398 04BE                                           l2494 05CA  
                                         l2486 05A8                                           l2478 0590  
                                         l2670 0251                                           l2662 0228  
                                         l2654 0208                                           l2646 01F8  
                                         l2638 01E0                                           l2590 00A6  
                                         l2582 008F                                           l2574 0081  
                                         l2566 006A                                           l2558 005B  
                                         l2734 0F3E                                           l2726 0F20  
                                         l2718 0EFF                                           l2814 0FA5  
                                         l2752 0CA1                                           l2744 0C8D  
                                         l2488 05AF                                           l2496 05CE  
                                         l2680 0283                                           l2664 022D  
                                         l2672 0255                                           l2656 020C  
                                         l2648 01FF                                           l2592 00AB  
                                         l2584 0094                                           l2576 0085  
                                         l2568 0072                                           l2728 0F34  
                                         l2920 0D4B                                           l2746 0C97  
                                         l1970 0C17                                           l2498 05D4  
                                         l2690 029F                                           l2682 0285  
                                         l2674 0262                                           l2666 0235  
                                         l2658 0220                                           l2594 00B0  
                                         l2586 009C                                           l2578 0089  
                                         l2930 0D66                                           l2922 0D4F  
                                         l2914 0D3C                                           l2748 0C98  
                                         l1980 0BF9                                           l1972 0C0B  
                                         l2684 0292                                           l2676 026C  
                                         l2668 0239                                           l2588 009E  
                                         l2924 0D53                                           l2916 0D43  
                                         l2932 0D6C                                           l2940 06A0  
                                         l1974 0C11                                           l2686 0296  
                                         l2678 027A                                           l2598 00B9  
                                         l2694 0E9C                                           l2926 0D5D  
                                         l2918 0D46                                           l1990 0D2C  
                                         l1982 0D13                                           l2950 06C4  
                                         l2942 06A5                                           ?_map 005D  
                                         l1976 0BFF                                           l2688 0297  
                                         l2696 0EA1                                           l2928 0D61  
                                         l1992 0D30                                           l1984 0D13  
                                         l2952 06C8                                           l2936 0694  
                                         l1978 0C05                                           l2698 0EA5  
                                         l1994 0D36                                           l1986 0D1E  
                                         l2970 06FB                                           l2954 06CC  
                                         l2946 06A6                                           l2938 069A  
                                         l1996 0D37                                           l1988 0D23  
                                         l2980 0737                                           l2972 0701  
                                         l2964 06D7                                           l2956 06D0  
                                         l2948 06BD                                           l1998 0D39  
                                         l2974 0705                                           l2958 06D5  
                                         l2982 0741                                           l2990 075E  
                                         l2976 070B                                           l2968 06F1  
                                         l2992 075F                                           l2984 0757  
                                         l2978 0733                                           l2994 0764  
                                         l2986 075A                                           l2996 0768  
                                         l2988 075D                                           l2998 076C  
                                         STR_1 100A                        __end_of_PWM1_Initialize 0C3D  
                                         u2000 02B6                                           u2001 02B5  
                                         u2010 02BC                                           u2011 02BB  
                                         u2100 0372                                           u2020 02C1  
                                         u2101 0370                                           u2021 02C0  
                                         u2110 0373                                           u2030 02DF  
                                         u2031 02DE                                           u2200 03D5  
                                         u2120 0387                                           u2040 02E8  
                                         u3000 0EC5                                           u2201 03D4  
                                         u2121 0386                                           u2041 02E7  
                                         u3001 0EC4                                           u2130 0393  
                                         u2050 02EE                                           u2131 0392  
                                         u2051 02ED                                           u2300 046F  
                                         u2220 03F9                                           u2060 02F3  
                                         u3100 0F39                                           u3020 0EE4  
                                         u2301 046E                                           u2221 03F8  
                                         u2061 02F2                                           u3101 0F38  
                                         u3021 0EE3                                           _LATA 010C  
                                         u2310 0474                                           u2230 0428  
                                         u2150 03A7                                           u2070 030C  
                                         u3110 0F3D                                           u2311 0473  
                                         u2231 0427                                           u2223 03F5  
                                         u2215 03D8                                           u2151 03A6  
                                         u2071 030B                                           u3111 0F3C  
                                         u3015 0ED8                                           _LATC 010E  
                                         u3120 0CA1                                           u2400 04CB  
                                         u2320 047A                                           u2240 0441  
                                         u2160 03AB                                           u2080 0310  
                                         u3040 0EFE                                           u3121 0CA0  
                                         u2401 04CA                                           u2321 0479  
                                         u2241 0440                                           u2161 03AA  
                                         u2145 0396                                           u2081 030F  
                                         u3041 0EFD                                           u2410 04D0  
                                         u2330 0481                                           u2250 0446  
                                         u2170 03B0                                           u2090 0368  
                                         u2411 04CF                                           u2331 0480  
                                         u2251 0445                                           u2171 03AF  
                                         u2091 0367                                           u3035 0EF2  
                                         u2420 04DE                                           u2340 0487  
                                         u2180 03C5                                           u2500 055D  
                                         u3060 0F0C                                           u1700 0D1E  
                                         u2421 04DD                                           u2341 0486  
                                         u2181 03C4                                           u2501 055C  
                                         u3061 0F0B                                           u1701 0D1D  
                                         u2350 0493                                           u2270 045A  
                                         u2190 03C9                                           u2510 0595  
                                         u2430 04EE                                           u3070 0F12  
                                         u1710 0D36                                           u2351 0492  
                                         u2271 0459                                           u2191 03C8  
                                         u2095 0364                                           u2511 0594  
                                         u2431 04ED                                           u3071 0F11  
                                         u3055 0F02                                           u1711 0D35  
                                         u2360 04A1                                           u2280 045F  
                                         u2600 05E9                                           u2440 04F4  
                                         u1800 0E63                                           u3080 0F16  
                                         u2281 045E                                           u2265 0450  
                                         u2601 05E8                                           u2441 04F3  
                                         u1801 0E62                                           u3081 0F15  
                                         u2370 04B0                                           u2290 0469  
                                         u2450 04F9                                           u1730 0CD6  
                                         u3090 0F2A                                           u3410 0D6C  
                                         u2371 04AF                                           u2291 0468  
                                         u2451 04F8                                           u1731 0CD5  
                                         u3411 0D6B                                           u2380 04B9  
                                         u2700 066F                                           u2620 05F9  
                                         u2540 05A7                                           u2460 0519  
                                         u1820 0E73                                           u3420 06A0  
                                         u3500 0791                                           u2381 04B8  
                                         u2365 049D                                           u2701 066E  
                                         u2621 05F8                                           u2541 05A6  
                                         u2525 0596                                           u2461 0518  
                                         u1821 0E72                                           u3405 0D62  
                                         u3421 069F                                           u3501 0790  
                                         u2390 04BE                                           u2710 0684  
                                         u2630 05FE                                           u2470 051F  
                                         u1750 0CE6                                           u1830 0E7A  
                                         u1910 0DD1                                           u3430 06CC  
                                         u2391 04BD                                           u2711 0683  
                                         u2631 05FD                                           u2615 05EB  
                                         u2535 059D                                           u2471 051E  
                                         u1751 0CE5                                           u1831 0E79  
                                         u1815 0E65                                           u3095 0F26  
                                         u1911 0DD0                                           u3431 06CB  
                                         u2640 0612                                           u2560 05C1  
                                         u2480 0524                                           u2720 005F  
                                         u3360 0D43                                           u3440 06F0  
                                         u2705 066B                                           u2641 0611  
                                         u2561 05C0                                           u2481 0523  
                                         u1745 0CDB                                           u2721 005E  
                                         u1905 0DC3                                           u3361 0D42  
                                         u3441 06EF                                           u3505 078D  
                                         u2650 0619                                           u2570 05D4  
                                         u2490 053F                                           u2730 0065  
                                         u1850 0E89                                           u1770 0E31  
                                         u1930 0DE1                                           u1690 0D19  
                                         u3450 06FB                                           u2651 0618  
                                         u2571 05D3                                           u2555 05A9  
                                         u2491 053E                                           u2731 0064  
                                         u1851 0E88                                           u1771 0E30  
                                         u1931 0DE0                                           u1915 0DCD  
                                         u1691 0D18                                           u3451 06FA  
                                         u2660 061F                                           u2580 05DC  
                                         u2900 0220                                           u2820 01B8  
                                         u2740 006A                                           u1860 0E8E  
                                         u1780 0E47                                           u3380 0D53  
                                         u3460 0701                                           u2661 061E  
                                         u2581 05DB                                           u2565 05BD  
                                         u2901 021F                                           u2805 012F  
                                         u2741 0069                                           u1861 0E8D  
                                         u1845 0E7C                                           u1925 0DD7  
                                         u3381 0D52                                           u3461 0700  
                                         u3445 06EC                                           u3517 07F1  
                                         u2670 062B                                           u2910 0227  
                                         u2830 01CF                                           u2750 0089  
                                         u1790 0E5C                                           u1870 0DB2  
                                         u3390 0D5D                                           u3470 0741  
                                         u2671 062A                                           u2911 0226  
                                         u2815 015E                                           u2751 0088  
                                         u1791 0E5B                                           u1871 0DB1  
                                         u3391 0D5C                                           u3375 0D47  
                                         u3471 0740                                           u2680 0639  
                                         u2920 022D                                           u2760 008F  
                                         u3480 0756                                           u2921 022C  
                                         u2825 01B4                                           u2761 008E  
                                         u1785 0E43                                           u3481 0755  
                                         u2690 0654                                           u2930 0239  
                                         u2770 0094                                           u1890 0DC2  
                                         u3490 0783                                           u2691 0653  
                                         u2595 05DF                                           u2931 0238  
                                         u2835 01CB                                           u2771 0093  
                                         u1891 0DC1                                           u3395 0D59  
                                         u3491 0782                                           u2940 0247  
                                         u2860 01F7                                           u2780 00AB  
                                         u2685 0635                                           u2861 01F6  
                                         u2845 01DA                                           u2781 00AA  
                                         u1885 0DB6                                           u2950 0262  
                                         u2790 00B0                                           u2695 0650  
                                         u2951 0261                                           u2855 01ED  
                                         u2791 00AF                                           u3495 077F  
                                         u2960 027A                                           u2880 0207  
                                         u2961 0279                                           u2945 0243  
                                         u2881 0206                                           u2970 0296  
                                         u2890 020C                                           u2971 0295  
                                         u2955 025E                                           u2891 020B  
                                         u2875 01F9                                           u2980 0EA1  
                                         u2965 0276                                           u2981 0EA0  
                                         u2990 0EA5                                           u2991 0EA4  
                                         i1l97 0BF8                                           _TMR2 001A  
                                         _WPUA 020C                                           _WPUC 020E  
                                         _main 0757                                           fsr0h 0005  
                                         fsr1h 0007                                           indf0 0000  
                                         fsr0l 0004                                           indf1 0001  
                                         fsr1l 0006                                           btemp 007E  
                                map@target_num 005D                                           start 003C  
                              ___fldiv@new_exp 0038                                 map@input_range 00C0  
                                 main@delayMax 00CA                                   main@delayMin 00C8  
                                        ??_map 007C                                  ?_EUSART_Write 0070  
               __size_of_OSCILLATOR_Initialize 0008                  __end_of_OSCILLATOR_Initialize 0C2B  
                                ___fltol@sign1 007A                                __end_of___fladd 04E0  
                                        ?_main 0070                                __end_of___fldiv 0694  
                              __end_of___flmul 02A8                                __end_of___fltol 0E9A  
                                 main@maxLimit 00CE                                          _T2CON 001C  
                              __end_of___lwdiv 0DE6                                          i1l101 0C49  
                                        i1l107 07FF                                          i1l302 0DA9  
                                        i1l312 0BEE                                          i1l306 0C8B  
                                        i1l315 0BEA                                          i1l309 0003  
                                        i1l350 002C                                __end_of___lwmod 0D71  
                                        i1l355 003A                                          i1l292 0CC5  
                                        i1l348 001B                                          i1l349 003A  
                                        i1l295 0CC7                                   main@minLimit 00CC  
                                        _TRISA 008C                                          _TRISC 008E  
                                        _RXPPS 0E24                               __end_of_TMR2_ISR 0BF9  
                              __end_of_dpowers 100A                                 _WDT_Initialize 0BEF  
                                        _putch 0C1D                                          pclath 000A  
                                        status 0003                                          wtemp0 007E  
                              __initialization 003E                                   __end_of_main 07F9  
                               ??_EUSART_Write 0071                        __end_of_TMR2_Initialize 0C5C  
                  ?_INTERRUPT_InterruptManager 0070                 ??_EUSART_SetRxInterruptHandler 0073  
                     _TMR2_SetInterruptHandler 0C17                                         ??_main 0067  
                       __end_of_WDT_Initialize 0BF3      __end_of_EUSART_DefaultFramingErrorHandler 0004  
   __size_of_EUSART_DefaultFramingErrorHandler 0001            ??_EUSART_DefaultFramingErrorHandler 0070  
           ?_EUSART_DefaultFramingErrorHandler 0070              _EUSART_DefaultFramingErrorHandler 0003  
                                       _ADCON0 009D                                         _ADCON1 009E  
                                       _ADCON2 009F                     _EUSART_OverrunErrorHandler 00D4  
                                       _ADRESH 009C                                         _ADRESL 009B  
                                       _CCPR1H 0292                                         _CCPR1L 0291  
                                       _ANSELA 018C                                         ?_putch 0070  
                                       _ANSELC 018E                                         _BORCON 0116  
                                       _RC1REG 0199                                         _RC1PPS 0EA1  
                                       _RC1STA 019D                                         i1l2000 0C72  
                                       i1l2002 0C7B                                         _RC4PPS 0EA4  
                                       i1l2004 0C7F                                         i1l2006 0C85  
                             ?_PWM1_Initialize 0070                                         i1l2008 0C86  
                                       i1l2132 0BEB                                         i1l2134 0BE7  
                                       _ODCONA 028C                                         i1l2074 0C3D  
                                       _ODCONC 028E                                         i1l2076 0C44  
                                       i1l2800 0D8B                                         i1l2802 0D90  
                                       i1l2804 0D96                                         i1l2740 0BF5  
                                       i1l2806 0D9F                                         i1l2808 0DA6  
                                       i1l2738 0BF3                                         i1l2780 0CAD  
                                       i1l2790 0D71                                         i1l2782 0CB4  
                                       i1l2870 0006                                         i1l2792 0D76  
                                       i1l2784 0CB9                                         i1l2880 0025  
                                       i1l2872 000A                                         i1l2794 0D7B  
                                       i1l2786 0CBF                                         i1l2778 0CA6  
                                       i1l2882 0031                                         i1l2874 000F  
                                       i1l2796 0D80                                         i1l2788 0CC0  
                                       i1l2884 0036                                         i1l2876 0014  
                                       i1l2798 0D86                                         i1l2878 0020  
                                       _INLVLA 038C                                         _INLVLC 038E  
                                       u330_20 0020                                         u330_21 001F  
                                       u315_20 0CAD                                         u331_20 0025  
                                       u315_21 0CAC                                         u331_21 0024  
                                       u172_20 0C85                                         u316_20 0CBF  
                                       u332_20 0031                                         u172_21 0C84  
                                       u316_21 0CBE                                         u332_21 0030  
                                       u317_20 0D7B                                         u333_20 0036  
                                       u317_21 0D7A                                         u333_21 0035  
                                       u318_20 0D8B                                         u318_21 0D8A  
                                       u319_20 0D9F                                         u327_20 000A  
                                       u319_21 0D9E                                         u327_21 0009  
                                       u176_20 0C44                                         u328_20 000F  
                                       u176_21 0C43                                         u328_21 000E  
                                       u329_20 0014                                         u329_21 0013  
                                       _OSCCON 0099                                         _TX1REG 019A  
                                       _WDTCON 0097                                         _TX1STA 019E  
                             __end_of___xxtofl 0F47                                      ??___fladd 0048  
                                    ??___fldiv 002E                                      ??___flmul 002E  
                                    ??___fltol 0058                                      ??___lwdiv 0075  
                                    ??___lwmod 0079                            _EUSART_Transmit_ISR 0CA6  
                                       _printf 0694                             __size_of__Umul8_16 0023  
                              ?_WDT_Initialize 0070                       ADC_GetConversion@channel 0074  
     TMR2_SetInterruptHandler@InterruptHandler 0071                           ?_EUSART_Transmit_ISR 0070  
                                 ___xxtofl@arg 0022                                   ___xxtofl@exp 0021  
                            _SYSTEM_Initialize 0C5C                                   ___xxtofl@val 0071  
                      __end_of__initialization 004D                          __end_of_TMR2_CallBack 0C4A  
                           ?_SYSTEM_Initialize 0070                                     ___fltol@f1 0054  
         __end_of_EUSART_SetTxInterruptHandler 0C17          __size_of_EUSART_SetTxInterruptHandler 0006  
                 _EUSART_SetTxInterruptHandler 0C11                                 __pcstackCOMMON 0070  
                          ??_SYSTEM_Initialize 0074                                      ?_TMR2_ISR 0070  
                                __end_of_putch 0C23                               ?_TMR2_Initialize 0070  
                               _OPTION_REGbits 0095                           _eusartRxStatusBuffer 00A0  
              ??_EUSART_SetOverrunErrorHandler 0073                      __end_of_SYSTEM_Initialize 0C72  
                        ??_EUSART_Transmit_ISR 0070                                        ??_putch 0073  
                                   __pbssBANK0 0069                                     __pbssBANK1 00A0  
                         __end_of_EUSART_Write 0D3C                    __size_of_EUSART_Receive_ISR 0039  
                            __end_of__Umul8_16 0CEB                                     __pmaintext 0757  
                ?_EUSART_SetTxInterruptHandler 0071               _EUSART_TxDefaultInterruptHandler 00DA  
                                   ??_TMR2_ISR 0070                                     __pintentry 0004  
                                      _CCP1CON 0293                   ??_EUSART_DefaultErrorHandler 0071  
                                      ?_printf 0024                        __size_of_ADC_Initialize 0009  
                                _eusartRxCount 006A                                      ?___xxtofl 0071  
                                      _SP1BRGH 019C                                        _SP1BRGL 019B  
                __size_of_EUSART_RxDataHandler 001A                                        _OSCSTAT 009A  
                                      _OSCTUNE 0098                                        _SLRCONA 030C  
                                      _SLRCONC 030E                       ??_EUSART_SetErrorHandler 0073  
                         _ADC_InterruptHandler 00B8            __size_of_EUSART_DefaultErrorHandler 0004  
                   ??_TMR2_SetInterruptHandler 0073                                        ___fladd 02A8  
                                      ___fldiv 04E0                                        ___flmul 0051  
                                      ___fltol 0E25                                        ___lwdiv 0DAA  
                                      ___lwmod 0D3C                                        __ptext1 0694  
                                      __ptext2 0C1D                                        __ptext3 0D12  
                                      __ptext4 0D3C                                        __ptext5 0DAA  
                                      __ptext6 0F47                                        __ptext7 0E9A  
                                      __ptext8 0E25                                        __ptext9 0051  
                              __size_of_printf 00C3                                        _dpowers 1000  
                        _OSCILLATOR_Initialize 0C23                                      _T2CONbits 001C  
                                 __size_of_map 00B9                                     ??___xxtofl 0075  
                     ??_PIN_MANAGER_Initialize 0071                     __size_of_SYSTEM_Initialize 0016  
                                      clrloop0 07FA                                        main@val 00D0  
                         end_of_initialization 004D          __end_of_EUSART_SetOverrunErrorHandler 0C0B  
       __size_of_EUSART_SetOverrunErrorHandler 0006                  _EUSART_SetOverrunErrorHandler 0C05  
                            _EUSART_Initialize 0DE6                             ?_EUSART_Initialize 0070  
                                    _RCSTAbits 019D                                        printf@c 0033  
                                      printf@f 0024                            ??_EUSART_Initialize 0073  
                             ??_WDT_Initialize 0071                 ??_EUSART_SetTxInterruptHandler 0073  
                              map@output_range 00C2                                    ___fladd@grs 0053  
                                ___xxtofl@sign 0020                          __size_of_EUSART_Write 002A  
                                  ___fldiv@grs 003A                                    ___fldiv@rem 0033  
              __size_of_EUSART_SetErrorHandler 0006                                     map@out_max 0065  
                                   map@out_min 0063                                    ___flmul@grs 0034  
                    __end_of_EUSART_Initialize 0E25                                      _TXSTAbits 019E  
                     __size_of_PWM1_Initialize 0009           __end_of_TMR2_DefaultInterruptHandler 0800  
        __size_of_TMR2_DefaultInterruptHandler 0001                   _TMR2_DefaultInterruptHandler 07FF  
           __end_of_EUSART_DefaultErrorHandler 0BEB                     _EUSART_DefaultErrorHandler 0BE7  
                                 _EUSART_Write 0D12                              __size_of_TMR2_ISR 0006  
                               _ADC_Initialize 0C2B                         ?_OSCILLATOR_Initialize 0070  
                               __end_of_printf 0757                            start_initialization 003E  
              __size_of_PIN_MANAGER_Initialize 0027                                    __end_of_map 1000  
 EUSART_SetRxInterruptHandler@interruptHandler 0071   EUSART_SetTxInterruptHandler@interruptHandler 0071  
                                  putch@txData 0073                 ?_EUSART_SetOverrunErrorHandler 0071  
                   _EUSART_FramingErrorHandler 00D6                         _EUSART_SetErrorHandler 0BF9  
                                  _CCPTMRSbits 029E                         __end_of_ADC_Initialize 0C34  
                                    __Umul8_16 0CC8                  ?_TMR2_DefaultInterruptHandler 0070  
                                     ??_printf 002A                                      ___fladd@a 0044  
                                    ___fladd@b 0040                                      ___fldiv@a 0026  
                                    ___fldiv@b 002A                         __size_of_TMR2_CallBack 000D  
                  __end_of_EUSART_Transmit_ISR 0CC8                                      ___flmul@a 002A  
                                    ___flmul@b 0026                                    __pbssCOMMON 007C  
                                    ___latbits 0002                                  __pcstackBANK0 0020  
                                __pcstackBANK1 00BA                       __size_of_TMR2_Initialize 0012  
                            __size_of___xxtofl 00AD                     __end_of_EUSART_Receive_ISR 0DAA  
                   __size_of_EUSART_Initialize 003F               _EUSART_RxDefaultInterruptHandler 00D8  
                                    __pnvBANK0 006E                                      __pnvBANK1 00D2  
                 __end_of_EUSART_RxDataHandler 0C8C                               ___lwdiv@dividend 0073  
                       _PIN_MANAGER_Initialize 0CEB                                       ?___fladd 0040  
                                     ?___fldiv 0026                                       ?___flmul 0026  
                                     ?___fltol 0054                                     ?__Umul8_16 0071  
                                     ?___lwdiv 0071                                       ?___lwmod 0020  
                              ?_ADC_Initialize 0070                                   _eusartRxHead 007C  
                                 _eusartTxHead 006D                                   _eusartRxTail 006B  
                                 _eusartTxTail 006C                              ??_PWM1_Initialize 0071  
                 ??_INTERRUPT_InterruptManager 0071                        _eusartTxBufferRemaining 006E  
                                     _BAUD1CON 019F                               ___lwdiv@quotient 0076  
                               __size_of_putch 0006                                 _eusartRxBuffer 00A8  
                               _eusartTxBuffer 00B0         EUSART_SetErrorHandler@interruptHandler 0071  
                                    clear_ram0 07F9                                  _TMR2_CallBack 0C3D  
                                     _PIE1bits 0091                              _eusartRxLastError 0069  
          __size_of_INTERRUPT_InterruptManager 0038                                       _PIR1bits 0011  
              ??_EUSART_SetFramingErrorHandler 0073      __end_of_EUSART_DefaultOverrunErrorHandler 0BEF  
   __size_of_EUSART_DefaultOverrunErrorHandler 0004            ??_EUSART_DefaultOverrunErrorHandler 0070  
           ?_EUSART_DefaultOverrunErrorHandler 0070              _EUSART_DefaultOverrunErrorHandler 0BEB  
                                     _TMR2_ISR 0BF3                                      map@in_max 0061  
                                    map@in_min 005F                                     _ADCON0bits 009D  
                                   printf@flag 002F                                      main@delay 00C6  
                                   printf@prec 0030                 ??_TMR2_DefaultInterruptHandler 0070  
            __size_of_TMR2_SetInterruptHandler 0006                      ?_TMR2_SetInterruptHandler 0071  
                            ??_TMR2_Initialize 0073                                 ?_TMR2_CallBack 0070  
                            _ADC_GetConversion 0C8C                        ??_OSCILLATOR_Initialize 0071  
                                  ??__Umul8_16 0073                            _EUSART_ErrorHandler 00D2  
                           ?_ADC_GetConversion 0071                               __size_of___fladd 0238  
                             __size_of___fldiv 01B4                               __size_of___flmul 0257  
                             __size_of___fltol 0075                    ?_EUSART_DefaultErrorHandler 0070  
                             __size_of___lwdiv 003C                               __size_of___lwmod 0035  
                          ??_ADC_GetConversion 0073                                       ___xxtofl 0E9A  
                              ___lwdiv@divisor 0071                           _EUSART_RxDataHandler 0C72  
                              ___lwdiv@counter 0078                                       __ptext10 0CC8  
                                     __ptext11 04E0                                       __ptext20 0DE6  
                                     __ptext12 02A8                                       __ptext21 0C11  
                                     __ptext13 0C5C                                       __ptext30 0C3D  
                                     __ptext22 0C0B                                       __ptext14 0BEF  
                                     __ptext31 07FF                                       __ptext23 0C05  
                                     __ptext15 0C4A                                       __ptext32 0CA6  
                                     __ptext24 0BFF                                       __ptext16 0C17  
                                     __ptext33 0D71                                       __ptext25 0BF9  
                                     __ptext17 0C34                                       __ptext34 0BEB  
                                     __ptext26 0C2B                                       __ptext18 0CEB  
                                     __ptext35 0003                                       __ptext27 0C8C  
                                     __ptext19 0C23                                       __ptext36 0BE7  
                                     __ptext37 0C72                                       __ptext29 0BF3  
                                __size_of_main 00A2                      __end_of_ADC_GetConversion 0CA6  
                      ?_EUSART_SetErrorHandler 0071                                     _RC1STAbits 019D  
EUSART_SetOverrunErrorHandler@interruptHandler 0071                                       int$flags 007E  
           __end_of_INTERRUPT_InterruptManager 003C                     _INTERRUPT_InterruptManager 0004  
        __end_of_EUSART_SetFramingErrorHandler 0C05         __size_of_EUSART_SetFramingErrorHandler 0006  
                _EUSART_SetFramingErrorHandler 0BFF                                      printf@val 0031  
                                   _INTCONbits 000B                          ?_EUSART_RxDataHandler 0070  
                      __size_of_WDT_Initialize 0004                                       intlevel1 0000  
                              ??_TMR2_CallBack 0070                               ___lwmod@dividend 0022  
                      ?_PIN_MANAGER_Initialize 0070                 __end_of_EUSART_SetErrorHandler 0BFF  
                              _PWM1_Initialize 0C34                               ??_ADC_Initialize 0071  
         __end_of_EUSART_SetRxInterruptHandler 0C11          __size_of_EUSART_SetRxInterruptHandler 0006  
                 _EUSART_SetRxInterruptHandler 0C0B                                       printf@ap 002E  
                           _EUSART_Receive_ISR 0D71  EUSART_SetFramingErrorHandler@interruptHandler 0071  
                                __pstringtext1 1000                                  __pstringtext2 100A  
                                __pstringtext3 0000                         __Umul8_16@multiplicand 0071  
                          ?_EUSART_Receive_ISR 0070                                ___lwmod@divisor 0020  
                              ___lwmod@counter 007A                                     _TX1STAbits 019E  
                                ___fladd@signs 0050                             EUSART_Write@txData 0072  
                 __size_of_EUSART_Transmit_ISR 0022                 __end_of_PIN_MANAGER_Initialize 0D12  
                                 ___fladd@aexp 0051                                   ___fladd@bexp 0052  
                         ??_EUSART_Receive_ISR 0071                           __Umul8_16@multiplier 0079  
                        _TMR2_InterruptHandler 00DC                     __size_of_ADC_GetConversion 001A  
                            __Umul8_16@product 0075  
