

Microchip MPLAB XC8 Assembler V2.31 build 20201012212115 
                                                                                               Wed Feb 03 10:36:17 2021

Microchip MPLAB XC8 C Compiler v2.31 (Free license) build 20201012212115 Og1 
     1                           	processor	16F1705
     2                           	pagewidth 120
     3                           	opt	flic
     4                           	psect	cinit,global,class=CODE,merge=1,delta=2
     5                           	psect	bssCOMMON,global,class=COMMON,space=1,delta=1,noexec
     6                           	psect	cstackCOMMON,global,class=COMMON,space=1,delta=1,noexec
     7                           	psect	maintext,global,class=CODE,merge=1,split=1,delta=2
     8                           	psect	text1,local,class=CODE,merge=1,delta=2
     9                           	psect	text2,local,class=CODE,merge=1,delta=2
    10                           	psect	text3,local,class=CODE,merge=1,delta=2
    11                           	psect	text4,local,class=CODE,merge=1,delta=2
    12                           	psect	text5,local,class=CODE,merge=1,delta=2
    13                           	psect	text6,local,class=CODE,merge=1,delta=2
    14                           	psect	text7,local,class=CODE,merge=1,delta=2
    15                           	psect	config,global,abs,ovrld,class=CONFIG,space=4,delta=2,noexec
    16                           	dabs	1,0x7E,2
    17  0000                     
    18                           ; Version 2.20
    19                           ; Generated 12/02/2020 GMT
    20                           ; 
    21                           ; Copyright © 2020, Microchip Technology Inc. and its subsidiaries ("Microchip")
    22                           ; All rights reserved.
    23                           ; 
    24                           ; This software is developed by Microchip Technology Inc. and its subsidiaries ("Microch
      +                          ip").
    25                           ; 
    26                           ; Redistribution and use in source and binary forms, with or without modification, are
    27                           ; permitted provided that the following conditions are met:
    28                           ; 
    29                           ;     1. Redistributions of source code must retain the above copyright notice, this lis
      +                          t of
    30                           ;        conditions and the following disclaimer.
    31                           ; 
    32                           ;     2. Redistributions in binary form must reproduce the above copyright notice, this 
      +                          list
    33                           ;        of conditions and the following disclaimer in the documentation and/or other
    34                           ;        materials provided with the distribution.
    35                           ; 
    36                           ;     3. Microchip's name may not be used to endorse or promote products derived from th
      +                          is
    37                           ;        software without specific prior written permission.
    38                           ; 
    39                           ; THIS SOFTWARE IS PROVIDED BY MICROCHIP "AS IS" AND ANY EXPRESS OR IMPLIED WARRANTIES,
    40                           ; INCLUDING, BUT NOT LIMITED TO, THE IMPLIED WARRANTIES OF MERCHANTABILITY AND FITNESS F
      +                          OR
    41                           ; PURPOSE ARE DISCLAIMED.  IN NO EVENT SHALL MICROCHIP BE LIABLE FOR ANY DIRECT, INDIREC
      +                          T,
    42                           ; INCIDENTAL, SPECIAL, EXEMPLARY, OR CONSEQUENTIAL DAMAGES (INCLUDING BUT NOT LIMITED TO
    43                           ; PROCUREMENT OF SUBSTITUTE GOODS OR SERVICES; LOSS OF USE, DATA OR PROFITS; OR BUSINESS
    44                           ; INTERRUPTION) HOWSOEVER CAUSED AND ON ANY THEORY OF LIABILITY, WHETHER IN CONTRACT, ST
      +                          RICT
    45                           ; LIABILITY, OR TORT (INCLUDING NEGLIGENCE OR OTHERWISE) ARISING IN ANY WAY OUT OF THE U
      +                          SE OF
    46                           ; THIS SOFTWARE, EVEN IF ADVISED OF THE POSSIBILITY OF SUCH DAMAGE.
    47                           ; 
    48                           ; 
    49                           ; Code-generator required, PIC16F1705 Definitions
    50                           ; 
    51                           ; SFR Addresses
    52  0000                     	;# 
    53  0001                     	;# 
    54  0002                     	;# 
    55  0003                     	;# 
    56  0004                     	;# 
    57  0005                     	;# 
    58  0006                     	;# 
    59  0007                     	;# 
    60  0008                     	;# 
    61  0009                     	;# 
    62  000A                     	;# 
    63  000B                     	;# 
    64  000C                     	;# 
    65  000E                     	;# 
    66  0011                     	;# 
    67  0012                     	;# 
    68  0013                     	;# 
    69  0015                     	;# 
    70  0016                     	;# 
    71  0016                     	;# 
    72  0017                     	;# 
    73  0018                     	;# 
    74  0019                     	;# 
    75  001A                     	;# 
    76  001B                     	;# 
    77  001C                     	;# 
    78  008C                     	;# 
    79  008E                     	;# 
    80  0091                     	;# 
    81  0092                     	;# 
    82  0093                     	;# 
    83  0095                     	;# 
    84  0096                     	;# 
    85  0097                     	;# 
    86  0098                     	;# 
    87  0099                     	;# 
    88  009A                     	;# 
    89  009B                     	;# 
    90  009B                     	;# 
    91  009C                     	;# 
    92  009D                     	;# 
    93  009E                     	;# 
    94  009F                     	;# 
    95  010C                     	;# 
    96  010E                     	;# 
    97  0111                     	;# 
    98  0112                     	;# 
    99  0113                     	;# 
   100  0114                     	;# 
   101  0115                     	;# 
   102  0116                     	;# 
   103  0117                     	;# 
   104  0118                     	;# 
   105  0119                     	;# 
   106  011C                     	;# 
   107  018C                     	;# 
   108  018E                     	;# 
   109  0191                     	;# 
   110  0191                     	;# 
   111  0192                     	;# 
   112  0193                     	;# 
   113  0193                     	;# 
   114  0194                     	;# 
   115  0195                     	;# 
   116  0196                     	;# 
   117  0197                     	;# 
   118  0199                     	;# 
   119  0199                     	;# 
   120  0199                     	;# 
   121  019A                     	;# 
   122  019A                     	;# 
   123  019A                     	;# 
   124  019B                     	;# 
   125  019B                     	;# 
   126  019B                     	;# 
   127  019B                     	;# 
   128  019B                     	;# 
   129  019C                     	;# 
   130  019C                     	;# 
   131  019C                     	;# 
   132  019D                     	;# 
   133  019D                     	;# 
   134  019D                     	;# 
   135  019E                     	;# 
   136  019E                     	;# 
   137  019E                     	;# 
   138  019F                     	;# 
   139  019F                     	;# 
   140  019F                     	;# 
   141  019F                     	;# 
   142  019F                     	;# 
   143  020C                     	;# 
   144  020E                     	;# 
   145  0211                     	;# 
   146  0211                     	;# 
   147  0212                     	;# 
   148  0212                     	;# 
   149  0213                     	;# 
   150  0213                     	;# 
   151  0214                     	;# 
   152  0214                     	;# 
   153  0215                     	;# 
   154  0215                     	;# 
   155  0215                     	;# 
   156  0215                     	;# 
   157  0216                     	;# 
   158  0216                     	;# 
   159  0217                     	;# 
   160  0217                     	;# 
   161  028C                     	;# 
   162  028E                     	;# 
   163  0291                     	;# 
   164  0291                     	;# 
   165  0292                     	;# 
   166  0293                     	;# 
   167  0293                     	;# 
   168  0298                     	;# 
   169  0298                     	;# 
   170  0299                     	;# 
   171  029A                     	;# 
   172  029A                     	;# 
   173  029E                     	;# 
   174  030C                     	;# 
   175  030E                     	;# 
   176  038C                     	;# 
   177  038E                     	;# 
   178  0391                     	;# 
   179  0392                     	;# 
   180  0393                     	;# 
   181  0397                     	;# 
   182  0398                     	;# 
   183  0399                     	;# 
   184  0415                     	;# 
   185  0416                     	;# 
   186  0417                     	;# 
   187  041C                     	;# 
   188  041D                     	;# 
   189  041E                     	;# 
   190  0511                     	;# 
   191  0515                     	;# 
   192  0617                     	;# 
   193  0618                     	;# 
   194  0619                     	;# 
   195  0619                     	;# 
   196  061A                     	;# 
   197  061B                     	;# 
   198  061C                     	;# 
   199  061C                     	;# 
   200  0691                     	;# 
   201  0692                     	;# 
   202  0693                     	;# 
   203  0694                     	;# 
   204  0695                     	;# 
   205  0696                     	;# 
   206  0697                     	;# 
   207  0698                     	;# 
   208  0699                     	;# 
   209  069A                     	;# 
   210  069B                     	;# 
   211  069C                     	;# 
   212  069D                     	;# 
   213  069E                     	;# 
   214  069F                     	;# 
   215  0E0F                     	;# 
   216  0E10                     	;# 
   217  0E11                     	;# 
   218  0E12                     	;# 
   219  0E13                     	;# 
   220  0E14                     	;# 
   221  0E15                     	;# 
   222  0E17                     	;# 
   223  0E20                     	;# 
   224  0E21                     	;# 
   225  0E22                     	;# 
   226  0E24                     	;# 
   227  0E25                     	;# 
   228  0E28                     	;# 
   229  0E29                     	;# 
   230  0E2A                     	;# 
   231  0E2B                     	;# 
   232  0E90                     	;# 
   233  0E91                     	;# 
   234  0E92                     	;# 
   235  0E94                     	;# 
   236  0E95                     	;# 
   237  0EA0                     	;# 
   238  0EA1                     	;# 
   239  0EA2                     	;# 
   240  0EA3                     	;# 
   241  0EA4                     	;# 
   242  0EA5                     	;# 
   243  0F0F                     	;# 
   244  0F10                     	;# 
   245  0F11                     	;# 
   246  0F12                     	;# 
   247  0F13                     	;# 
   248  0F14                     	;# 
   249  0F15                     	;# 
   250  0F16                     	;# 
   251  0F17                     	;# 
   252  0F18                     	;# 
   253  0F19                     	;# 
   254  0F1A                     	;# 
   255  0F1B                     	;# 
   256  0F1C                     	;# 
   257  0F1D                     	;# 
   258  0F1E                     	;# 
   259  0F1F                     	;# 
   260  0F20                     	;# 
   261  0F21                     	;# 
   262  0F22                     	;# 
   263  0F23                     	;# 
   264  0F24                     	;# 
   265  0F25                     	;# 
   266  0F26                     	;# 
   267  0F27                     	;# 
   268  0F28                     	;# 
   269  0F29                     	;# 
   270  0F2A                     	;# 
   271  0F2B                     	;# 
   272  0F2C                     	;# 
   273  0F2D                     	;# 
   274  0F9E                     	;# 
   275  0FE4                     	;# 
   276  0FE5                     	;# 
   277  0FE6                     	;# 
   278  0FE7                     	;# 
   279  0FE8                     	;# 
   280  0FE9                     	;# 
   281  0FEA                     	;# 
   282  0FEB                     	;# 
   283  0FED                     	;# 
   284  0FEE                     	;# 
   285  0FEF                     	;# 
   286  0000                     	;# 
   287  0001                     	;# 
   288  0002                     	;# 
   289  0003                     	;# 
   290  0004                     	;# 
   291  0005                     	;# 
   292  0006                     	;# 
   293  0007                     	;# 
   294  0008                     	;# 
   295  0009                     	;# 
   296  000A                     	;# 
   297  000B                     	;# 
   298  000C                     	;# 
   299  000E                     	;# 
   300  0011                     	;# 
   301  0012                     	;# 
   302  0013                     	;# 
   303  0015                     	;# 
   304  0016                     	;# 
   305  0016                     	;# 
   306  0017                     	;# 
   307  0018                     	;# 
   308  0019                     	;# 
   309  001A                     	;# 
   310  001B                     	;# 
   311  001C                     	;# 
   312  008C                     	;# 
   313  008E                     	;# 
   314  0091                     	;# 
   315  0092                     	;# 
   316  0093                     	;# 
   317  0095                     	;# 
   318  0096                     	;# 
   319  0097                     	;# 
   320  0098                     	;# 
   321  0099                     	;# 
   322  009A                     	;# 
   323  009B                     	;# 
   324  009B                     	;# 
   325  009C                     	;# 
   326  009D                     	;# 
   327  009E                     	;# 
   328  009F                     	;# 
   329  010C                     	;# 
   330  010E                     	;# 
   331  0111                     	;# 
   332  0112                     	;# 
   333  0113                     	;# 
   334  0114                     	;# 
   335  0115                     	;# 
   336  0116                     	;# 
   337  0117                     	;# 
   338  0118                     	;# 
   339  0119                     	;# 
   340  011C                     	;# 
   341  018C                     	;# 
   342  018E                     	;# 
   343  0191                     	;# 
   344  0191                     	;# 
   345  0192                     	;# 
   346  0193                     	;# 
   347  0193                     	;# 
   348  0194                     	;# 
   349  0195                     	;# 
   350  0196                     	;# 
   351  0197                     	;# 
   352  0199                     	;# 
   353  0199                     	;# 
   354  0199                     	;# 
   355  019A                     	;# 
   356  019A                     	;# 
   357  019A                     	;# 
   358  019B                     	;# 
   359  019B                     	;# 
   360  019B                     	;# 
   361  019B                     	;# 
   362  019B                     	;# 
   363  019C                     	;# 
   364  019C                     	;# 
   365  019C                     	;# 
   366  019D                     	;# 
   367  019D                     	;# 
   368  019D                     	;# 
   369  019E                     	;# 
   370  019E                     	;# 
   371  019E                     	;# 
   372  019F                     	;# 
   373  019F                     	;# 
   374  019F                     	;# 
   375  019F                     	;# 
   376  019F                     	;# 
   377  020C                     	;# 
   378  020E                     	;# 
   379  0211                     	;# 
   380  0211                     	;# 
   381  0212                     	;# 
   382  0212                     	;# 
   383  0213                     	;# 
   384  0213                     	;# 
   385  0214                     	;# 
   386  0214                     	;# 
   387  0215                     	;# 
   388  0215                     	;# 
   389  0215                     	;# 
   390  0215                     	;# 
   391  0216                     	;# 
   392  0216                     	;# 
   393  0217                     	;# 
   394  0217                     	;# 
   395  028C                     	;# 
   396  028E                     	;# 
   397  0291                     	;# 
   398  0291                     	;# 
   399  0292                     	;# 
   400  0293                     	;# 
   401  0293                     	;# 
   402  0298                     	;# 
   403  0298                     	;# 
   404  0299                     	;# 
   405  029A                     	;# 
   406  029A                     	;# 
   407  029E                     	;# 
   408  030C                     	;# 
   409  030E                     	;# 
   410  038C                     	;# 
   411  038E                     	;# 
   412  0391                     	;# 
   413  0392                     	;# 
   414  0393                     	;# 
   415  0397                     	;# 
   416  0398                     	;# 
   417  0399                     	;# 
   418  0415                     	;# 
   419  0416                     	;# 
   420  0417                     	;# 
   421  041C                     	;# 
   422  041D                     	;# 
   423  041E                     	;# 
   424  0511                     	;# 
   425  0515                     	;# 
   426  0617                     	;# 
   427  0618                     	;# 
   428  0619                     	;# 
   429  0619                     	;# 
   430  061A                     	;# 
   431  061B                     	;# 
   432  061C                     	;# 
   433  061C                     	;# 
   434  0691                     	;# 
   435  0692                     	;# 
   436  0693                     	;# 
   437  0694                     	;# 
   438  0695                     	;# 
   439  0696                     	;# 
   440  0697                     	;# 
   441  0698                     	;# 
   442  0699                     	;# 
   443  069A                     	;# 
   444  069B                     	;# 
   445  069C                     	;# 
   446  069D                     	;# 
   447  069E                     	;# 
   448  069F                     	;# 
   449  0E0F                     	;# 
   450  0E10                     	;# 
   451  0E11                     	;# 
   452  0E12                     	;# 
   453  0E13                     	;# 
   454  0E14                     	;# 
   455  0E15                     	;# 
   456  0E17                     	;# 
   457  0E20                     	;# 
   458  0E21                     	;# 
   459  0E22                     	;# 
   460  0E24                     	;# 
   461  0E25                     	;# 
   462  0E28                     	;# 
   463  0E29                     	;# 
   464  0E2A                     	;# 
   465  0E2B                     	;# 
   466  0E90                     	;# 
   467  0E91                     	;# 
   468  0E92                     	;# 
   469  0E94                     	;# 
   470  0E95                     	;# 
   471  0EA0                     	;# 
   472  0EA1                     	;# 
   473  0EA2                     	;# 
   474  0EA3                     	;# 
   475  0EA4                     	;# 
   476  0EA5                     	;# 
   477  0F0F                     	;# 
   478  0F10                     	;# 
   479  0F11                     	;# 
   480  0F12                     	;# 
   481  0F13                     	;# 
   482  0F14                     	;# 
   483  0F15                     	;# 
   484  0F16                     	;# 
   485  0F17                     	;# 
   486  0F18                     	;# 
   487  0F19                     	;# 
   488  0F1A                     	;# 
   489  0F1B                     	;# 
   490  0F1C                     	;# 
   491  0F1D                     	;# 
   492  0F1E                     	;# 
   493  0F1F                     	;# 
   494  0F20                     	;# 
   495  0F21                     	;# 
   496  0F22                     	;# 
   497  0F23                     	;# 
   498  0F24                     	;# 
   499  0F25                     	;# 
   500  0F26                     	;# 
   501  0F27                     	;# 
   502  0F28                     	;# 
   503  0F29                     	;# 
   504  0F2A                     	;# 
   505  0F2B                     	;# 
   506  0F2C                     	;# 
   507  0F2D                     	;# 
   508  0F9E                     	;# 
   509  0FE4                     	;# 
   510  0FE5                     	;# 
   511  0FE6                     	;# 
   512  0FE7                     	;# 
   513  0FE8                     	;# 
   514  0FE9                     	;# 
   515  0FEA                     	;# 
   516  0FEB                     	;# 
   517  0FED                     	;# 
   518  0FEE                     	;# 
   519  0FEF                     	;# 
   520  0000                     	;# 
   521  0001                     	;# 
   522  0002                     	;# 
   523  0003                     	;# 
   524  0004                     	;# 
   525  0005                     	;# 
   526  0006                     	;# 
   527  0007                     	;# 
   528  0008                     	;# 
   529  0009                     	;# 
   530  000A                     	;# 
   531  000B                     	;# 
   532  000C                     	;# 
   533  000E                     	;# 
   534  0011                     	;# 
   535  0012                     	;# 
   536  0013                     	;# 
   537  0015                     	;# 
   538  0016                     	;# 
   539  0016                     	;# 
   540  0017                     	;# 
   541  0018                     	;# 
   542  0019                     	;# 
   543  001A                     	;# 
   544  001B                     	;# 
   545  001C                     	;# 
   546  008C                     	;# 
   547  008E                     	;# 
   548  0091                     	;# 
   549  0092                     	;# 
   550  0093                     	;# 
   551  0095                     	;# 
   552  0096                     	;# 
   553  0097                     	;# 
   554  0098                     	;# 
   555  0099                     	;# 
   556  009A                     	;# 
   557  009B                     	;# 
   558  009B                     	;# 
   559  009C                     	;# 
   560  009D                     	;# 
   561  009E                     	;# 
   562  009F                     	;# 
   563  010C                     	;# 
   564  010E                     	;# 
   565  0111                     	;# 
   566  0112                     	;# 
   567  0113                     	;# 
   568  0114                     	;# 
   569  0115                     	;# 
   570  0116                     	;# 
   571  0117                     	;# 
   572  0118                     	;# 
   573  0119                     	;# 
   574  011C                     	;# 
   575  018C                     	;# 
   576  018E                     	;# 
   577  0191                     	;# 
   578  0191                     	;# 
   579  0192                     	;# 
   580  0193                     	;# 
   581  0193                     	;# 
   582  0194                     	;# 
   583  0195                     	;# 
   584  0196                     	;# 
   585  0197                     	;# 
   586  0199                     	;# 
   587  0199                     	;# 
   588  0199                     	;# 
   589  019A                     	;# 
   590  019A                     	;# 
   591  019A                     	;# 
   592  019B                     	;# 
   593  019B                     	;# 
   594  019B                     	;# 
   595  019B                     	;# 
   596  019B                     	;# 
   597  019C                     	;# 
   598  019C                     	;# 
   599  019C                     	;# 
   600  019D                     	;# 
   601  019D                     	;# 
   602  019D                     	;# 
   603  019E                     	;# 
   604  019E                     	;# 
   605  019E                     	;# 
   606  019F                     	;# 
   607  019F                     	;# 
   608  019F                     	;# 
   609  019F                     	;# 
   610  019F                     	;# 
   611  020C                     	;# 
   612  020E                     	;# 
   613  0211                     	;# 
   614  0211                     	;# 
   615  0212                     	;# 
   616  0212                     	;# 
   617  0213                     	;# 
   618  0213                     	;# 
   619  0214                     	;# 
   620  0214                     	;# 
   621  0215                     	;# 
   622  0215                     	;# 
   623  0215                     	;# 
   624  0215                     	;# 
   625  0216                     	;# 
   626  0216                     	;# 
   627  0217                     	;# 
   628  0217                     	;# 
   629  028C                     	;# 
   630  028E                     	;# 
   631  0291                     	;# 
   632  0291                     	;# 
   633  0292                     	;# 
   634  0293                     	;# 
   635  0293                     	;# 
   636  0298                     	;# 
   637  0298                     	;# 
   638  0299                     	;# 
   639  029A                     	;# 
   640  029A                     	;# 
   641  029E                     	;# 
   642  030C                     	;# 
   643  030E                     	;# 
   644  038C                     	;# 
   645  038E                     	;# 
   646  0391                     	;# 
   647  0392                     	;# 
   648  0393                     	;# 
   649  0397                     	;# 
   650  0398                     	;# 
   651  0399                     	;# 
   652  0415                     	;# 
   653  0416                     	;# 
   654  0417                     	;# 
   655  041C                     	;# 
   656  041D                     	;# 
   657  041E                     	;# 
   658  0511                     	;# 
   659  0515                     	;# 
   660  0617                     	;# 
   661  0618                     	;# 
   662  0619                     	;# 
   663  0619                     	;# 
   664  061A                     	;# 
   665  061B                     	;# 
   666  061C                     	;# 
   667  061C                     	;# 
   668  0691                     	;# 
   669  0692                     	;# 
   670  0693                     	;# 
   671  0694                     	;# 
   672  0695                     	;# 
   673  0696                     	;# 
   674  0697                     	;# 
   675  0698                     	;# 
   676  0699                     	;# 
   677  069A                     	;# 
   678  069B                     	;# 
   679  069C                     	;# 
   680  069D                     	;# 
   681  069E                     	;# 
   682  069F                     	;# 
   683  0E0F                     	;# 
   684  0E10                     	;# 
   685  0E11                     	;# 
   686  0E12                     	;# 
   687  0E13                     	;# 
   688  0E14                     	;# 
   689  0E15                     	;# 
   690  0E17                     	;# 
   691  0E20                     	;# 
   692  0E21                     	;# 
   693  0E22                     	;# 
   694  0E24                     	;# 
   695  0E25                     	;# 
   696  0E28                     	;# 
   697  0E29                     	;# 
   698  0E2A                     	;# 
   699  0E2B                     	;# 
   700  0E90                     	;# 
   701  0E91                     	;# 
   702  0E92                     	;# 
   703  0E94                     	;# 
   704  0E95                     	;# 
   705  0EA0                     	;# 
   706  0EA1                     	;# 
   707  0EA2                     	;# 
   708  0EA3                     	;# 
   709  0EA4                     	;# 
   710  0EA5                     	;# 
   711  0F0F                     	;# 
   712  0F10                     	;# 
   713  0F11                     	;# 
   714  0F12                     	;# 
   715  0F13                     	;# 
   716  0F14                     	;# 
   717  0F15                     	;# 
   718  0F16                     	;# 
   719  0F17                     	;# 
   720  0F18                     	;# 
   721  0F19                     	;# 
   722  0F1A                     	;# 
   723  0F1B                     	;# 
   724  0F1C                     	;# 
   725  0F1D                     	;# 
   726  0F1E                     	;# 
   727  0F1F                     	;# 
   728  0F20                     	;# 
   729  0F21                     	;# 
   730  0F22                     	;# 
   731  0F23                     	;# 
   732  0F24                     	;# 
   733  0F25                     	;# 
   734  0F26                     	;# 
   735  0F27                     	;# 
   736  0F28                     	;# 
   737  0F29                     	;# 
   738  0F2A                     	;# 
   739  0F2B                     	;# 
   740  0F2C                     	;# 
   741  0F2D                     	;# 
   742  0F9E                     	;# 
   743  0FE4                     	;# 
   744  0FE5                     	;# 
   745  0FE6                     	;# 
   746  0FE7                     	;# 
   747  0FE8                     	;# 
   748  0FE9                     	;# 
   749  0FEA                     	;# 
   750  0FEB                     	;# 
   751  0FED                     	;# 
   752  0FEE                     	;# 
   753  0FEF                     	;# 
   754  0000                     	;# 
   755  0001                     	;# 
   756  0002                     	;# 
   757  0003                     	;# 
   758  0004                     	;# 
   759  0005                     	;# 
   760  0006                     	;# 
   761  0007                     	;# 
   762  0008                     	;# 
   763  0009                     	;# 
   764  000A                     	;# 
   765  000B                     	;# 
   766  000C                     	;# 
   767  000E                     	;# 
   768  0011                     	;# 
   769  0012                     	;# 
   770  0013                     	;# 
   771  0015                     	;# 
   772  0016                     	;# 
   773  0016                     	;# 
   774  0017                     	;# 
   775  0018                     	;# 
   776  0019                     	;# 
   777  001A                     	;# 
   778  001B                     	;# 
   779  001C                     	;# 
   780  008C                     	;# 
   781  008E                     	;# 
   782  0091                     	;# 
   783  0092                     	;# 
   784  0093                     	;# 
   785  0095                     	;# 
   786  0096                     	;# 
   787  0097                     	;# 
   788  0098                     	;# 
   789  0099                     	;# 
   790  009A                     	;# 
   791  009B                     	;# 
   792  009B                     	;# 
   793  009C                     	;# 
   794  009D                     	;# 
   795  009E                     	;# 
   796  009F                     	;# 
   797  010C                     	;# 
   798  010E                     	;# 
   799  0111                     	;# 
   800  0112                     	;# 
   801  0113                     	;# 
   802  0114                     	;# 
   803  0115                     	;# 
   804  0116                     	;# 
   805  0117                     	;# 
   806  0118                     	;# 
   807  0119                     	;# 
   808  011C                     	;# 
   809  018C                     	;# 
   810  018E                     	;# 
   811  0191                     	;# 
   812  0191                     	;# 
   813  0192                     	;# 
   814  0193                     	;# 
   815  0193                     	;# 
   816  0194                     	;# 
   817  0195                     	;# 
   818  0196                     	;# 
   819  0197                     	;# 
   820  0199                     	;# 
   821  0199                     	;# 
   822  0199                     	;# 
   823  019A                     	;# 
   824  019A                     	;# 
   825  019A                     	;# 
   826  019B                     	;# 
   827  019B                     	;# 
   828  019B                     	;# 
   829  019B                     	;# 
   830  019B                     	;# 
   831  019C                     	;# 
   832  019C                     	;# 
   833  019C                     	;# 
   834  019D                     	;# 
   835  019D                     	;# 
   836  019D                     	;# 
   837  019E                     	;# 
   838  019E                     	;# 
   839  019E                     	;# 
   840  019F                     	;# 
   841  019F                     	;# 
   842  019F                     	;# 
   843  019F                     	;# 
   844  019F                     	;# 
   845  020C                     	;# 
   846  020E                     	;# 
   847  0211                     	;# 
   848  0211                     	;# 
   849  0212                     	;# 
   850  0212                     	;# 
   851  0213                     	;# 
   852  0213                     	;# 
   853  0214                     	;# 
   854  0214                     	;# 
   855  0215                     	;# 
   856  0215                     	;# 
   857  0215                     	;# 
   858  0215                     	;# 
   859  0216                     	;# 
   860  0216                     	;# 
   861  0217                     	;# 
   862  0217                     	;# 
   863  028C                     	;# 
   864  028E                     	;# 
   865  0291                     	;# 
   866  0291                     	;# 
   867  0292                     	;# 
   868  0293                     	;# 
   869  0293                     	;# 
   870  0298                     	;# 
   871  0298                     	;# 
   872  0299                     	;# 
   873  029A                     	;# 
   874  029A                     	;# 
   875  029E                     	;# 
   876  030C                     	;# 
   877  030E                     	;# 
   878  038C                     	;# 
   879  038E                     	;# 
   880  0391                     	;# 
   881  0392                     	;# 
   882  0393                     	;# 
   883  0397                     	;# 
   884  0398                     	;# 
   885  0399                     	;# 
   886  0415                     	;# 
   887  0416                     	;# 
   888  0417                     	;# 
   889  041C                     	;# 
   890  041D                     	;# 
   891  041E                     	;# 
   892  0511                     	;# 
   893  0515                     	;# 
   894  0617                     	;# 
   895  0618                     	;# 
   896  0619                     	;# 
   897  0619                     	;# 
   898  061A                     	;# 
   899  061B                     	;# 
   900  061C                     	;# 
   901  061C                     	;# 
   902  0691                     	;# 
   903  0692                     	;# 
   904  0693                     	;# 
   905  0694                     	;# 
   906  0695                     	;# 
   907  0696                     	;# 
   908  0697                     	;# 
   909  0698                     	;# 
   910  0699                     	;# 
   911  069A                     	;# 
   912  069B                     	;# 
   913  069C                     	;# 
   914  069D                     	;# 
   915  069E                     	;# 
   916  069F                     	;# 
   917  0E0F                     	;# 
   918  0E10                     	;# 
   919  0E11                     	;# 
   920  0E12                     	;# 
   921  0E13                     	;# 
   922  0E14                     	;# 
   923  0E15                     	;# 
   924  0E17                     	;# 
   925  0E20                     	;# 
   926  0E21                     	;# 
   927  0E22                     	;# 
   928  0E24                     	;# 
   929  0E25                     	;# 
   930  0E28                     	;# 
   931  0E29                     	;# 
   932  0E2A                     	;# 
   933  0E2B                     	;# 
   934  0E90                     	;# 
   935  0E91                     	;# 
   936  0E92                     	;# 
   937  0E94                     	;# 
   938  0E95                     	;# 
   939  0EA0                     	;# 
   940  0EA1                     	;# 
   941  0EA2                     	;# 
   942  0EA3                     	;# 
   943  0EA4                     	;# 
   944  0EA5                     	;# 
   945  0F0F                     	;# 
   946  0F10                     	;# 
   947  0F11                     	;# 
   948  0F12                     	;# 
   949  0F13                     	;# 
   950  0F14                     	;# 
   951  0F15                     	;# 
   952  0F16                     	;# 
   953  0F17                     	;# 
   954  0F18                     	;# 
   955  0F19                     	;# 
   956  0F1A                     	;# 
   957  0F1B                     	;# 
   958  0F1C                     	;# 
   959  0F1D                     	;# 
   960  0F1E                     	;# 
   961  0F1F                     	;# 
   962  0F20                     	;# 
   963  0F21                     	;# 
   964  0F22                     	;# 
   965  0F23                     	;# 
   966  0F24                     	;# 
   967  0F25                     	;# 
   968  0F26                     	;# 
   969  0F27                     	;# 
   970  0F28                     	;# 
   971  0F29                     	;# 
   972  0F2A                     	;# 
   973  0F2B                     	;# 
   974  0F2C                     	;# 
   975  0F2D                     	;# 
   976  0F9E                     	;# 
   977  0FE4                     	;# 
   978  0FE5                     	;# 
   979  0FE6                     	;# 
   980  0FE7                     	;# 
   981  0FE8                     	;# 
   982  0FE9                     	;# 
   983  0FEA                     	;# 
   984  0FEB                     	;# 
   985  0FED                     	;# 
   986  0FEE                     	;# 
   987  0FEF                     	;# 
   988  0000                     	;# 
   989  0001                     	;# 
   990  0002                     	;# 
   991  0003                     	;# 
   992  0004                     	;# 
   993  0005                     	;# 
   994  0006                     	;# 
   995  0007                     	;# 
   996  0008                     	;# 
   997  0009                     	;# 
   998  000A                     	;# 
   999  000B                     	;# 
  1000  000C                     	;# 
  1001  000E                     	;# 
  1002  0011                     	;# 
  1003  0012                     	;# 
  1004  0013                     	;# 
  1005  0015                     	;# 
  1006  0016                     	;# 
  1007  0016                     	;# 
  1008  0017                     	;# 
  1009  0018                     	;# 
  1010  0019                     	;# 
  1011  001A                     	;# 
  1012  001B                     	;# 
  1013  001C                     	;# 
  1014  008C                     	;# 
  1015  008E                     	;# 
  1016  0091                     	;# 
  1017  0092                     	;# 
  1018  0093                     	;# 
  1019  0095                     	;# 
  1020  0096                     	;# 
  1021  0097                     	;# 
  1022  0098                     	;# 
  1023  0099                     	;# 
  1024  009A                     	;# 
  1025  009B                     	;# 
  1026  009B                     	;# 
  1027  009C                     	;# 
  1028  009D                     	;# 
  1029  009E                     	;# 
  1030  009F                     	;# 
  1031  010C                     	;# 
  1032  010E                     	;# 
  1033  0111                     	;# 
  1034  0112                     	;# 
  1035  0113                     	;# 
  1036  0114                     	;# 
  1037  0115                     	;# 
  1038  0116                     	;# 
  1039  0117                     	;# 
  1040  0118                     	;# 
  1041  0119                     	;# 
  1042  011C                     	;# 
  1043  018C                     	;# 
  1044  018E                     	;# 
  1045  0191                     	;# 
  1046  0191                     	;# 
  1047  0192                     	;# 
  1048  0193                     	;# 
  1049  0193                     	;# 
  1050  0194                     	;# 
  1051  0195                     	;# 
  1052  0196                     	;# 
  1053  0197                     	;# 
  1054  0199                     	;# 
  1055  0199                     	;# 
  1056  0199                     	;# 
  1057  019A                     	;# 
  1058  019A                     	;# 
  1059  019A                     	;# 
  1060  019B                     	;# 
  1061  019B                     	;# 
  1062  019B                     	;# 
  1063  019B                     	;# 
  1064  019B                     	;# 
  1065  019C                     	;# 
  1066  019C                     	;# 
  1067  019C                     	;# 
  1068  019D                     	;# 
  1069  019D                     	;# 
  1070  019D                     	;# 
  1071  019E                     	;# 
  1072  019E                     	;# 
  1073  019E                     	;# 
  1074  019F                     	;# 
  1075  019F                     	;# 
  1076  019F                     	;# 
  1077  019F                     	;# 
  1078  019F                     	;# 
  1079  020C                     	;# 
  1080  020E                     	;# 
  1081  0211                     	;# 
  1082  0211                     	;# 
  1083  0212                     	;# 
  1084  0212                     	;# 
  1085  0213                     	;# 
  1086  0213                     	;# 
  1087  0214                     	;# 
  1088  0214                     	;# 
  1089  0215                     	;# 
  1090  0215                     	;# 
  1091  0215                     	;# 
  1092  0215                     	;# 
  1093  0216                     	;# 
  1094  0216                     	;# 
  1095  0217                     	;# 
  1096  0217                     	;# 
  1097  028C                     	;# 
  1098  028E                     	;# 
  1099  0291                     	;# 
  1100  0291                     	;# 
  1101  0292                     	;# 
  1102  0293                     	;# 
  1103  0293                     	;# 
  1104  0298                     	;# 
  1105  0298                     	;# 
  1106  0299                     	;# 
  1107  029A                     	;# 
  1108  029A                     	;# 
  1109  029E                     	;# 
  1110  030C                     	;# 
  1111  030E                     	;# 
  1112  038C                     	;# 
  1113  038E                     	;# 
  1114  0391                     	;# 
  1115  0392                     	;# 
  1116  0393                     	;# 
  1117  0397                     	;# 
  1118  0398                     	;# 
  1119  0399                     	;# 
  1120  0415                     	;# 
  1121  0416                     	;# 
  1122  0417                     	;# 
  1123  041C                     	;# 
  1124  041D                     	;# 
  1125  041E                     	;# 
  1126  0511                     	;# 
  1127  0515                     	;# 
  1128  0617                     	;# 
  1129  0618                     	;# 
  1130  0619                     	;# 
  1131  0619                     	;# 
  1132  061A                     	;# 
  1133  061B                     	;# 
  1134  061C                     	;# 
  1135  061C                     	;# 
  1136  0691                     	;# 
  1137  0692                     	;# 
  1138  0693                     	;# 
  1139  0694                     	;# 
  1140  0695                     	;# 
  1141  0696                     	;# 
  1142  0697                     	;# 
  1143  0698                     	;# 
  1144  0699                     	;# 
  1145  069A                     	;# 
  1146  069B                     	;# 
  1147  069C                     	;# 
  1148  069D                     	;# 
  1149  069E                     	;# 
  1150  069F                     	;# 
  1151  0E0F                     	;# 
  1152  0E10                     	;# 
  1153  0E11                     	;# 
  1154  0E12                     	;# 
  1155  0E13                     	;# 
  1156  0E14                     	;# 
  1157  0E15                     	;# 
  1158  0E17                     	;# 
  1159  0E20                     	;# 
  1160  0E21                     	;# 
  1161  0E22                     	;# 
  1162  0E24                     	;# 
  1163  0E25                     	;# 
  1164  0E28                     	;# 
  1165  0E29                     	;# 
  1166  0E2A                     	;# 
  1167  0E2B                     	;# 
  1168  0E90                     	;# 
  1169  0E91                     	;# 
  1170  0E92                     	;# 
  1171  0E94                     	;# 
  1172  0E95                     	;# 
  1173  0EA0                     	;# 
  1174  0EA1                     	;# 
  1175  0EA2                     	;# 
  1176  0EA3                     	;# 
  1177  0EA4                     	;# 
  1178  0EA5                     	;# 
  1179  0F0F                     	;# 
  1180  0F10                     	;# 
  1181  0F11                     	;# 
  1182  0F12                     	;# 
  1183  0F13                     	;# 
  1184  0F14                     	;# 
  1185  0F15                     	;# 
  1186  0F16                     	;# 
  1187  0F17                     	;# 
  1188  0F18                     	;# 
  1189  0F19                     	;# 
  1190  0F1A                     	;# 
  1191  0F1B                     	;# 
  1192  0F1C                     	;# 
  1193  0F1D                     	;# 
  1194  0F1E                     	;# 
  1195  0F1F                     	;# 
  1196  0F20                     	;# 
  1197  0F21                     	;# 
  1198  0F22                     	;# 
  1199  0F23                     	;# 
  1200  0F24                     	;# 
  1201  0F25                     	;# 
  1202  0F26                     	;# 
  1203  0F27                     	;# 
  1204  0F28                     	;# 
  1205  0F29                     	;# 
  1206  0F2A                     	;# 
  1207  0F2B                     	;# 
  1208  0F2C                     	;# 
  1209  0F2D                     	;# 
  1210  0F9E                     	;# 
  1211  0FE4                     	;# 
  1212  0FE5                     	;# 
  1213  0FE6                     	;# 
  1214  0FE7                     	;# 
  1215  0FE8                     	;# 
  1216  0FE9                     	;# 
  1217  0FEA                     	;# 
  1218  0FEB                     	;# 
  1219  0FED                     	;# 
  1220  0FEE                     	;# 
  1221  0FEF                     	;# 
  1222  0000                     	;# 
  1223  0001                     	;# 
  1224  0002                     	;# 
  1225  0003                     	;# 
  1226  0004                     	;# 
  1227  0005                     	;# 
  1228  0006                     	;# 
  1229  0007                     	;# 
  1230  0008                     	;# 
  1231  0009                     	;# 
  1232  000A                     	;# 
  1233  000B                     	;# 
  1234  000C                     	;# 
  1235  000E                     	;# 
  1236  0011                     	;# 
  1237  0012                     	;# 
  1238  0013                     	;# 
  1239  0015                     	;# 
  1240  0016                     	;# 
  1241  0016                     	;# 
  1242  0017                     	;# 
  1243  0018                     	;# 
  1244  0019                     	;# 
  1245  001A                     	;# 
  1246  001B                     	;# 
  1247  001C                     	;# 
  1248  008C                     	;# 
  1249  008E                     	;# 
  1250  0091                     	;# 
  1251  0092                     	;# 
  1252  0093                     	;# 
  1253  0095                     	;# 
  1254  0096                     	;# 
  1255  0097                     	;# 
  1256  0098                     	;# 
  1257  0099                     	;# 
  1258  009A                     	;# 
  1259  009B                     	;# 
  1260  009B                     	;# 
  1261  009C                     	;# 
  1262  009D                     	;# 
  1263  009E                     	;# 
  1264  009F                     	;# 
  1265  010C                     	;# 
  1266  010E                     	;# 
  1267  0111                     	;# 
  1268  0112                     	;# 
  1269  0113                     	;# 
  1270  0114                     	;# 
  1271  0115                     	;# 
  1272  0116                     	;# 
  1273  0117                     	;# 
  1274  0118                     	;# 
  1275  0119                     	;# 
  1276  011C                     	;# 
  1277  018C                     	;# 
  1278  018E                     	;# 
  1279  0191                     	;# 
  1280  0191                     	;# 
  1281  0192                     	;# 
  1282  0193                     	;# 
  1283  0193                     	;# 
  1284  0194                     	;# 
  1285  0195                     	;# 
  1286  0196                     	;# 
  1287  0197                     	;# 
  1288  0199                     	;# 
  1289  0199                     	;# 
  1290  0199                     	;# 
  1291  019A                     	;# 
  1292  019A                     	;# 
  1293  019A                     	;# 
  1294  019B                     	;# 
  1295  019B                     	;# 
  1296  019B                     	;# 
  1297  019B                     	;# 
  1298  019B                     	;# 
  1299  019C                     	;# 
  1300  019C                     	;# 
  1301  019C                     	;# 
  1302  019D                     	;# 
  1303  019D                     	;# 
  1304  019D                     	;# 
  1305  019E                     	;# 
  1306  019E                     	;# 
  1307  019E                     	;# 
  1308  019F                     	;# 
  1309  019F                     	;# 
  1310  019F                     	;# 
  1311  019F                     	;# 
  1312  019F                     	;# 
  1313  020C                     	;# 
  1314  020E                     	;# 
  1315  0211                     	;# 
  1316  0211                     	;# 
  1317  0212                     	;# 
  1318  0212                     	;# 
  1319  0213                     	;# 
  1320  0213                     	;# 
  1321  0214                     	;# 
  1322  0214                     	;# 
  1323  0215                     	;# 
  1324  0215                     	;# 
  1325  0215                     	;# 
  1326  0215                     	;# 
  1327  0216                     	;# 
  1328  0216                     	;# 
  1329  0217                     	;# 
  1330  0217                     	;# 
  1331  028C                     	;# 
  1332  028E                     	;# 
  1333  0291                     	;# 
  1334  0291                     	;# 
  1335  0292                     	;# 
  1336  0293                     	;# 
  1337  0293                     	;# 
  1338  0298                     	;# 
  1339  0298                     	;# 
  1340  0299                     	;# 
  1341  029A                     	;# 
  1342  029A                     	;# 
  1343  029E                     	;# 
  1344  030C                     	;# 
  1345  030E                     	;# 
  1346  038C                     	;# 
  1347  038E                     	;# 
  1348  0391                     	;# 
  1349  0392                     	;# 
  1350  0393                     	;# 
  1351  0397                     	;# 
  1352  0398                     	;# 
  1353  0399                     	;# 
  1354  0415                     	;# 
  1355  0416                     	;# 
  1356  0417                     	;# 
  1357  041C                     	;# 
  1358  041D                     	;# 
  1359  041E                     	;# 
  1360  0511                     	;# 
  1361  0515                     	;# 
  1362  0617                     	;# 
  1363  0618                     	;# 
  1364  0619                     	;# 
  1365  0619                     	;# 
  1366  061A                     	;# 
  1367  061B                     	;# 
  1368  061C                     	;# 
  1369  061C                     	;# 
  1370  0691                     	;# 
  1371  0692                     	;# 
  1372  0693                     	;# 
  1373  0694                     	;# 
  1374  0695                     	;# 
  1375  0696                     	;# 
  1376  0697                     	;# 
  1377  0698                     	;# 
  1378  0699                     	;# 
  1379  069A                     	;# 
  1380  069B                     	;# 
  1381  069C                     	;# 
  1382  069D                     	;# 
  1383  069E                     	;# 
  1384  069F                     	;# 
  1385  0E0F                     	;# 
  1386  0E10                     	;# 
  1387  0E11                     	;# 
  1388  0E12                     	;# 
  1389  0E13                     	;# 
  1390  0E14                     	;# 
  1391  0E15                     	;# 
  1392  0E17                     	;# 
  1393  0E20                     	;# 
  1394  0E21                     	;# 
  1395  0E22                     	;# 
  1396  0E24                     	;# 
  1397  0E25                     	;# 
  1398  0E28                     	;# 
  1399  0E29                     	;# 
  1400  0E2A                     	;# 
  1401  0E2B                     	;# 
  1402  0E90                     	;# 
  1403  0E91                     	;# 
  1404  0E92                     	;# 
  1405  0E94                     	;# 
  1406  0E95                     	;# 
  1407  0EA0                     	;# 
  1408  0EA1                     	;# 
  1409  0EA2                     	;# 
  1410  0EA3                     	;# 
  1411  0EA4                     	;# 
  1412  0EA5                     	;# 
  1413  0F0F                     	;# 
  1414  0F10                     	;# 
  1415  0F11                     	;# 
  1416  0F12                     	;# 
  1417  0F13                     	;# 
  1418  0F14                     	;# 
  1419  0F15                     	;# 
  1420  0F16                     	;# 
  1421  0F17                     	;# 
  1422  0F18                     	;# 
  1423  0F19                     	;# 
  1424  0F1A                     	;# 
  1425  0F1B                     	;# 
  1426  0F1C                     	;# 
  1427  0F1D                     	;# 
  1428  0F1E                     	;# 
  1429  0F1F                     	;# 
  1430  0F20                     	;# 
  1431  0F21                     	;# 
  1432  0F22                     	;# 
  1433  0F23                     	;# 
  1434  0F24                     	;# 
  1435  0F25                     	;# 
  1436  0F26                     	;# 
  1437  0F27                     	;# 
  1438  0F28                     	;# 
  1439  0F29                     	;# 
  1440  0F2A                     	;# 
  1441  0F2B                     	;# 
  1442  0F2C                     	;# 
  1443  0F2D                     	;# 
  1444  0F9E                     	;# 
  1445  0FE4                     	;# 
  1446  0FE5                     	;# 
  1447  0FE6                     	;# 
  1448  0FE7                     	;# 
  1449  0FE8                     	;# 
  1450  0FE9                     	;# 
  1451  0FEA                     	;# 
  1452  0FEB                     	;# 
  1453  0FED                     	;# 
  1454  0FEE                     	;# 
  1455  0FEF                     	;# 
  1456  001C                     _T2CONbits	set	28
  1457  001C                     _T2CON	set	28
  1458  0011                     _PIR1bits	set	17
  1459  001A                     _TMR2	set	26
  1460  001B                     _PR2	set	27
  1461  009D                     _ADCON0bits	set	157
  1462  009D                     _ADCON0	set	157
  1463  009C                     _ADRESH	set	156
  1464  009B                     _ADRESL	set	155
  1465  009F                     _ADCON2	set	159
  1466  009E                     _ADCON1	set	158
  1467  0097                     _WDTCON	set	151
  1468  0098                     _OSCTUNE	set	152
  1469  009A                     _OSCSTAT	set	154
  1470  0099                     _OSCCON	set	153
  1471  0095                     _OPTION_REGbits	set	149
  1472  008E                     _TRISC	set	142
  1473  008C                     _TRISA	set	140
  1474  0116                     _BORCON	set	278
  1475  010E                     _LATC	set	270
  1476  010C                     _LATA	set	268
  1477  018C                     _ANSELA	set	396
  1478  018E                     _ANSELC	set	398
  1479  020E                     _WPUC	set	526
  1480  020C                     _WPUA	set	524
  1481  029E                     _CCPTMRSbits	set	670
  1482  0292                     _CCPR1H	set	658
  1483  0291                     _CCPR1L	set	657
  1484  0293                     _CCP1CON	set	659
  1485  028E                     _ODCONC	set	654
  1486  028C                     _ODCONA	set	652
  1487  030E                     _SLRCONC	set	782
  1488  030C                     _SLRCONA	set	780
  1489  038E                     _INLVLC	set	910
  1490  038C                     _INLVLA	set	908
  1491  0EA5                     _RC5PPS	set	3749
  1492                           
  1493                           	psect	cinit
  1494  07FB                     start_initialization:	
  1495                           ; #config settings
  1496                           
  1497  07FB                     __initialization:
  1498                           
  1499                           ; Clear objects allocated to COMMON
  1500  07FB  01F0               	clrf	__pbssCOMMON& (0+127)
  1501  07FC  01F1               	clrf	(__pbssCOMMON+1)& (0+127)
  1502  07FD                     end_of_initialization:	
  1503                           ;End of C runtime variable initialization code
  1504                           
  1505  07FD                     __end_of__initialization:
  1506  07FD  0020               	movlb	0
  1507  07FE  3187  2F9F         	ljmp	_main	;jump to C main() function
  1508                           
  1509                           	psect	bssCOMMON
  1510  0070                     __pbssCOMMON:
  1511  0070                     _ADC_InterruptHandler:
  1512  0070                     	ds	2
  1513                           
  1514                           	psect	cstackCOMMON
  1515  0000                     __pcstackCOMMON:
  1516  0000                     ?_OSCILLATOR_Initialize:
  1517  0000                     ??_OSCILLATOR_Initialize:	
  1518                           ; 1 bytes @ 0x0
  1519                           
  1520  0000                     ?_WDT_Initialize:	
  1521                           ; 1 bytes @ 0x0
  1522                           
  1523  0000                     ??_WDT_Initialize:	
  1524                           ; 1 bytes @ 0x0
  1525                           
  1526  0000                     ?_ADC_Initialize:	
  1527                           ; 1 bytes @ 0x0
  1528                           
  1529  0000                     ??_ADC_Initialize:	
  1530                           ; 1 bytes @ 0x0
  1531                           
  1532  0000                     ?_PIN_MANAGER_Initialize:	
  1533                           ; 1 bytes @ 0x0
  1534                           
  1535  0000                     ??_PIN_MANAGER_Initialize:	
  1536                           ; 1 bytes @ 0x0
  1537                           
  1538  0000                     ?_PWM1_Initialize:	
  1539                           ; 1 bytes @ 0x0
  1540                           
  1541  0000                     ??_PWM1_Initialize:	
  1542                           ; 1 bytes @ 0x0
  1543                           
  1544  0000                     ?_TMR2_Initialize:	
  1545                           ; 1 bytes @ 0x0
  1546                           
  1547  0000                     ??_TMR2_Initialize:	
  1548                           ; 1 bytes @ 0x0
  1549                           
  1550  0000                     ?_SYSTEM_Initialize:	
  1551                           ; 1 bytes @ 0x0
  1552                           
  1553  0000                     ??_SYSTEM_Initialize:	
  1554                           ; 1 bytes @ 0x0
  1555                           
  1556  0000                     ?_main:	
  1557                           ; 1 bytes @ 0x0
  1558                           
  1559  0000                     ??_main:	
  1560                           ; 1 bytes @ 0x0
  1561                           
  1562                           
  1563                           	psect	maintext
  1564  079F                     __pmaintext:	
  1565                           ; 1 bytes @ 0x0
  1566 ;;
  1567 ;;Main: autosize = 0, tempsize = 0, incstack = 0, save=0
  1568 ;;
  1569 ;; *************** function _main *****************
  1570 ;; Defined at:
  1571 ;;		line 49 in file "main.c"
  1572 ;; Parameters:    Size  Location     Type
  1573 ;;		None
  1574 ;; Auto vars:     Size  Location     Type
  1575 ;;		None
  1576 ;; Return value:  Size  Location     Type
  1577 ;;                  1    wreg      void 
  1578 ;; Registers used:
  1579 ;;		wreg, status,2, status,0, pclath, cstack
  1580 ;; Tracked objects:
  1581 ;;		On entry : B1F/0
  1582 ;;		On exit  : 0/0
  1583 ;;		Unchanged: 0/0
  1584 ;; Data sizes:     COMMON   BANK0   BANK1   BANK2   BANK3   BANK4   BANK5   BANK6   BANK7   BANK8   BANK9  BANK10  BANK1
      +1  BANK12
  1585 ;;      Params:         0       0       0       0       0       0       0       0       0       0       0       0       
      +0       0
  1586 ;;      Locals:         0       0       0       0       0       0       0       0       0       0       0       0       
      +0       0
  1587 ;;      Temps:          0       0       0       0       0       0       0       0       0       0       0       0       
      +0       0
  1588 ;;      Totals:         0       0       0       0       0       0       0       0       0       0       0       0       
      +0       0
  1589 ;;Total ram usage:        0 bytes
  1590 ;; Hardware stack levels required when called:    2
  1591 ;; This function calls:
  1592 ;;		_SYSTEM_Initialize
  1593 ;; This function is called by:
  1594 ;;		Startup code after reset
  1595 ;; This function uses a non-reentrant model
  1596 ;;
  1597                           
  1598                           
  1599                           ;psect for function _main
  1600  079F                     _main:
  1601  079F                     l797:	
  1602                           ;incstack = 0
  1603                           ; Regs used in _main: [wreg+status,2+status,0+pclath+cstack]
  1604                           
  1605                           
  1606                           ;main.c: 52:     SYSTEM_Initialize();
  1607  079F  3187  27C7  3187   	fcall	_SYSTEM_Initialize
  1608  07A2                     l162:	
  1609                           ;main.c: 69:     while (1)
  1610                           
  1611  07A2                     l163:	
  1612                           ;main.c: 70:     {;main.c: 72:     }
  1613                           
  1614  07A2  2FA2               	goto	l162
  1615  07A3  3180  2802         	ljmp	start
  1616  07A5                     __end_of_main:
  1617                           
  1618                           	psect	text1
  1619  07C7                     __ptext1:	
  1620 ;; *************** function _SYSTEM_Initialize *****************
  1621 ;; Defined at:
  1622 ;;		line 50 in file "mcc_generated_files/mcc.c"
  1623 ;; Parameters:    Size  Location     Type
  1624 ;;		None
  1625 ;; Auto vars:     Size  Location     Type
  1626 ;;		None
  1627 ;; Return value:  Size  Location     Type
  1628 ;;                  1    wreg      void 
  1629 ;; Registers used:
  1630 ;;		wreg, status,2, status,0, pclath, cstack
  1631 ;; Tracked objects:
  1632 ;;		On entry : 0/0
  1633 ;;		On exit  : 0/0
  1634 ;;		Unchanged: 0/0
  1635 ;; Data sizes:     COMMON   BANK0   BANK1   BANK2   BANK3   BANK4   BANK5   BANK6   BANK7   BANK8   BANK9  BANK10  BANK1
      +1  BANK12
  1636 ;;      Params:         0       0       0       0       0       0       0       0       0       0       0       0       
      +0       0
  1637 ;;      Locals:         0       0       0       0       0       0       0       0       0       0       0       0       
      +0       0
  1638 ;;      Temps:          0       0       0       0       0       0       0       0       0       0       0       0       
      +0       0
  1639 ;;      Totals:         0       0       0       0       0       0       0       0       0       0       0       0       
      +0       0
  1640 ;;Total ram usage:        0 bytes
  1641 ;; Hardware stack levels used:    1
  1642 ;; Hardware stack levels required when called:    1
  1643 ;; This function calls:
  1644 ;;		_ADC_Initialize
  1645 ;;		_OSCILLATOR_Initialize
  1646 ;;		_PIN_MANAGER_Initialize
  1647 ;;		_PWM1_Initialize
  1648 ;;		_TMR2_Initialize
  1649 ;;		_WDT_Initialize
  1650 ;; This function is called by:
  1651 ;;		_main
  1652 ;; This function uses a non-reentrant model
  1653 ;;
  1654                           
  1655                           
  1656                           ;psect for function _SYSTEM_Initialize
  1657  07C7                     _SYSTEM_Initialize:
  1658  07C7                     l747:	
  1659                           ;incstack = 0
  1660                           ; Regs used in _SYSTEM_Initialize: [wreg+status,2+status,0+pclath+cstack]
  1661                           
  1662                           
  1663                           ;mcc_generated_files/mcc.c: 53:     PIN_MANAGER_Initialize();
  1664  07C7  3187  27DA  3187   	fcall	_PIN_MANAGER_Initialize
  1665                           
  1666                           ;mcc_generated_files/mcc.c: 54:     OSCILLATOR_Initialize();
  1667  07CA  3187  27A5  3187   	fcall	_OSCILLATOR_Initialize
  1668                           
  1669                           ;mcc_generated_files/mcc.c: 55:     WDT_Initialize();
  1670  07CD  3187  279B  3187   	fcall	_WDT_Initialize
  1671                           
  1672                           ;mcc_generated_files/mcc.c: 56:     PWM1_Initialize();
  1673  07D0  3187  27BE  3187   	fcall	_PWM1_Initialize
  1674                           
  1675                           ;mcc_generated_files/mcc.c: 57:     TMR2_Initialize();
  1676  07D3  3187  27AD  3187   	fcall	_TMR2_Initialize
  1677                           
  1678                           ;mcc_generated_files/mcc.c: 58:     ADC_Initialize();
  1679  07D6  3187  27B5  3187   	fcall	_ADC_Initialize
  1680  07D9                     l109:
  1681  07D9  0008               	return
  1682  07DA                     __end_of_SYSTEM_Initialize:
  1683                           
  1684                           	psect	text2
  1685  079B                     __ptext2:	
  1686 ;; *************** function _WDT_Initialize *****************
  1687 ;; Defined at:
  1688 ;;		line 73 in file "mcc_generated_files/mcc.c"
  1689 ;; Parameters:    Size  Location     Type
  1690 ;;		None
  1691 ;; Auto vars:     Size  Location     Type
  1692 ;;		None
  1693 ;; Return value:  Size  Location     Type
  1694 ;;                  1    wreg      void 
  1695 ;; Registers used:
  1696 ;;		wreg
  1697 ;; Tracked objects:
  1698 ;;		On entry : 0/0
  1699 ;;		On exit  : 0/0
  1700 ;;		Unchanged: 0/0
  1701 ;; Data sizes:     COMMON   BANK0   BANK1   BANK2   BANK3   BANK4   BANK5   BANK6   BANK7   BANK8   BANK9  BANK10  BANK1
      +1  BANK12
  1702 ;;      Params:         0       0       0       0       0       0       0       0       0       0       0       0       
      +0       0
  1703 ;;      Locals:         0       0       0       0       0       0       0       0       0       0       0       0       
      +0       0
  1704 ;;      Temps:          0       0       0       0       0       0       0       0       0       0       0       0       
      +0       0
  1705 ;;      Totals:         0       0       0       0       0       0       0       0       0       0       0       0       
      +0       0
  1706 ;;Total ram usage:        0 bytes
  1707 ;; Hardware stack levels used:    1
  1708 ;; This function calls:
  1709 ;;		Nothing
  1710 ;; This function is called by:
  1711 ;;		_SYSTEM_Initialize
  1712 ;; This function uses a non-reentrant model
  1713 ;;
  1714                           
  1715                           
  1716                           ;psect for function _WDT_Initialize
  1717  079B                     _WDT_Initialize:
  1718  079B                     l735:	
  1719                           ;incstack = 0
  1720                           ; Regs used in _WDT_Initialize: [wreg]
  1721                           
  1722                           
  1723                           ;mcc_generated_files/mcc.c: 76:     WDTCON = 0x16;
  1724  079B  3016               	movlw	22
  1725  079C  0021               	movlb	1	; select bank1
  1726  079D  0097               	movwf	23	;volatile
  1727  079E                     l115:
  1728  079E  0008               	return
  1729  079F                     __end_of_WDT_Initialize:
  1730                           
  1731                           	psect	text3
  1732  07AD                     __ptext3:	
  1733 ;; *************** function _TMR2_Initialize *****************
  1734 ;; Defined at:
  1735 ;;		line 62 in file "mcc_generated_files/tmr2.c"
  1736 ;; Parameters:    Size  Location     Type
  1737 ;;		None
  1738 ;; Auto vars:     Size  Location     Type
  1739 ;;		None
  1740 ;; Return value:  Size  Location     Type
  1741 ;;                  1    wreg      void 
  1742 ;; Registers used:
  1743 ;;		wreg, status,2
  1744 ;; Tracked objects:
  1745 ;;		On entry : 0/0
  1746 ;;		On exit  : 0/0
  1747 ;;		Unchanged: 0/0
  1748 ;; Data sizes:     COMMON   BANK0   BANK1   BANK2   BANK3   BANK4   BANK5   BANK6   BANK7   BANK8   BANK9  BANK10  BANK1
      +1  BANK12
  1749 ;;      Params:         0       0       0       0       0       0       0       0       0       0       0       0       
      +0       0
  1750 ;;      Locals:         0       0       0       0       0       0       0       0       0       0       0       0       
      +0       0
  1751 ;;      Temps:          0       0       0       0       0       0       0       0       0       0       0       0       
      +0       0
  1752 ;;      Totals:         0       0       0       0       0       0       0       0       0       0       0       0       
      +0       0
  1753 ;;Total ram usage:        0 bytes
  1754 ;; Hardware stack levels used:    1
  1755 ;; This function calls:
  1756 ;;		Nothing
  1757 ;; This function is called by:
  1758 ;;		_SYSTEM_Initialize
  1759 ;; This function uses a non-reentrant model
  1760 ;;
  1761                           
  1762                           
  1763                           ;psect for function _TMR2_Initialize
  1764  07AD                     _TMR2_Initialize:
  1765  07AD                     l719:	
  1766                           ;incstack = 0
  1767                           ; Regs used in _TMR2_Initialize: [wreg+status,2]
  1768                           
  1769                           
  1770                           ;mcc_generated_files/tmr2.c: 67:     PR2 = 0x7C;
  1771  07AD  307C               	movlw	124
  1772  07AE  0020               	movlb	0	; select bank0
  1773  07AF  009B               	movwf	27	;volatile
  1774  07B0                     l721:
  1775                           
  1776                           ;mcc_generated_files/tmr2.c: 70:     TMR2 = 0x00;
  1777  07B0  019A               	clrf	26	;volatile
  1778  07B1                     l723:
  1779                           
  1780                           ;mcc_generated_files/tmr2.c: 73:     PIR1bits.TMR2IF = 0;
  1781  07B1  1091               	bcf	17,1	;volatile
  1782  07B2                     l725:
  1783                           
  1784                           ;mcc_generated_files/tmr2.c: 76:     T2CON = 0x7C;
  1785  07B2  307C               	movlw	124
  1786  07B3  009C               	movwf	28	;volatile
  1787  07B4                     l65:
  1788  07B4  0008               	return
  1789  07B5                     __end_of_TMR2_Initialize:
  1790                           
  1791                           	psect	text4
  1792  07BE                     __ptext4:	
  1793 ;; *************** function _PWM1_Initialize *****************
  1794 ;; Defined at:
  1795 ;;		line 64 in file "mcc_generated_files/pwm1.c"
  1796 ;; Parameters:    Size  Location     Type
  1797 ;;		None
  1798 ;; Auto vars:     Size  Location     Type
  1799 ;;		None
  1800 ;; Return value:  Size  Location     Type
  1801 ;;                  1    wreg      void 
  1802 ;; Registers used:
  1803 ;;		wreg, status,2, status,0
  1804 ;; Tracked objects:
  1805 ;;		On entry : 0/0
  1806 ;;		On exit  : 0/0
  1807 ;;		Unchanged: 0/0
  1808 ;; Data sizes:     COMMON   BANK0   BANK1   BANK2   BANK3   BANK4   BANK5   BANK6   BANK7   BANK8   BANK9  BANK10  BANK1
      +1  BANK12
  1809 ;;      Params:         0       0       0       0       0       0       0       0       0       0       0       0       
      +0       0
  1810 ;;      Locals:         0       0       0       0       0       0       0       0       0       0       0       0       
      +0       0
  1811 ;;      Temps:          0       0       0       0       0       0       0       0       0       0       0       0       
      +0       0
  1812 ;;      Totals:         0       0       0       0       0       0       0       0       0       0       0       0       
      +0       0
  1813 ;;Total ram usage:        0 bytes
  1814 ;; Hardware stack levels used:    1
  1815 ;; This function calls:
  1816 ;;		Nothing
  1817 ;; This function is called by:
  1818 ;;		_SYSTEM_Initialize
  1819 ;; This function uses a non-reentrant model
  1820 ;;
  1821                           
  1822                           
  1823                           ;psect for function _PWM1_Initialize
  1824  07BE                     _PWM1_Initialize:
  1825  07BE                     l713:	
  1826                           ;incstack = 0
  1827                           ; Regs used in _PWM1_Initialize: [wreg+status,2+status,0]
  1828                           
  1829                           
  1830                           ;mcc_generated_files/pwm1.c: 69:  CCP1CON = 0x1C;
  1831  07BE  301C               	movlw	28
  1832  07BF  0025               	movlb	5	; select bank5
  1833  07C0  0093               	movwf	19	;volatile
  1834                           
  1835                           ;mcc_generated_files/pwm1.c: 72:  CCPR1L = 0x3E;
  1836  07C1  303E               	movlw	62
  1837  07C2  0091               	movwf	17	;volatile
  1838  07C3                     l715:
  1839                           
  1840                           ;mcc_generated_files/pwm1.c: 75:  CCPR1H = 0x00;
  1841  07C3  0192               	clrf	18	;volatile
  1842  07C4                     l717:
  1843                           
  1844                           ;mcc_generated_files/pwm1.c: 78:  CCPTMRSbits.C1TSEL = 0x0;
  1845  07C4  30FC               	movlw	-4
  1846  07C5  059E               	andwf	30,f	;volatile
  1847  07C6                     l49:
  1848  07C6  0008               	return
  1849  07C7                     __end_of_PWM1_Initialize:
  1850                           
  1851                           	psect	text5
  1852  07DA                     __ptext5:	
  1853 ;; *************** function _PIN_MANAGER_Initialize *****************
  1854 ;; Defined at:
  1855 ;;		line 55 in file "mcc_generated_files/pin_manager.c"
  1856 ;; Parameters:    Size  Location     Type
  1857 ;;		None
  1858 ;; Auto vars:     Size  Location     Type
  1859 ;;		None
  1860 ;; Return value:  Size  Location     Type
  1861 ;;                  1    wreg      void 
  1862 ;; Registers used:
  1863 ;;		wreg, status,2
  1864 ;; Tracked objects:
  1865 ;;		On entry : 0/0
  1866 ;;		On exit  : 0/0
  1867 ;;		Unchanged: 0/0
  1868 ;; Data sizes:     COMMON   BANK0   BANK1   BANK2   BANK3   BANK4   BANK5   BANK6   BANK7   BANK8   BANK9  BANK10  BANK1
      +1  BANK12
  1869 ;;      Params:         0       0       0       0       0       0       0       0       0       0       0       0       
      +0       0
  1870 ;;      Locals:         0       0       0       0       0       0       0       0       0       0       0       0       
      +0       0
  1871 ;;      Temps:          0       0       0       0       0       0       0       0       0       0       0       0       
      +0       0
  1872 ;;      Totals:         0       0       0       0       0       0       0       0       0       0       0       0       
      +0       0
  1873 ;;Total ram usage:        0 bytes
  1874 ;; Hardware stack levels used:    1
  1875 ;; This function calls:
  1876 ;;		Nothing
  1877 ;; This function is called by:
  1878 ;;		_SYSTEM_Initialize
  1879 ;; This function uses a non-reentrant model
  1880 ;;
  1881                           
  1882                           
  1883                           ;psect for function _PIN_MANAGER_Initialize
  1884  07DA                     _PIN_MANAGER_Initialize:
  1885  07DA                     l691:	
  1886                           ;incstack = 0
  1887                           ; Regs used in _PIN_MANAGER_Initialize: [wreg+status,2]
  1888                           
  1889                           
  1890                           ;mcc_generated_files/pin_manager.c: 60:     LATA = 0x00;
  1891  07DA  0022               	movlb	2	; select bank2
  1892  07DB  018C               	clrf	12	;volatile
  1893                           
  1894                           ;mcc_generated_files/pin_manager.c: 61:     LATC = 0x00;
  1895  07DC  018E               	clrf	14	;volatile
  1896  07DD                     l693:
  1897                           
  1898                           ;mcc_generated_files/pin_manager.c: 66:     TRISA = 0x03;
  1899  07DD  3003               	movlw	3
  1900  07DE  0021               	movlb	1	; select bank1
  1901  07DF  008C               	movwf	12	;volatile
  1902  07E0                     l695:
  1903                           
  1904                           ;mcc_generated_files/pin_manager.c: 67:     TRISC = 0x00;
  1905  07E0  018E               	clrf	14	;volatile
  1906  07E1                     l697:
  1907                           
  1908                           ;mcc_generated_files/pin_manager.c: 72:     ANSELC = 0x00;
  1909  07E1  0023               	movlb	3	; select bank3
  1910  07E2  018E               	clrf	14	;volatile
  1911  07E3                     l699:
  1912                           
  1913                           ;mcc_generated_files/pin_manager.c: 73:     ANSELA = 0x03;
  1914  07E3  3003               	movlw	3
  1915  07E4  008C               	movwf	12	;volatile
  1916                           
  1917                           ;mcc_generated_files/pin_manager.c: 78:     WPUA = 0x00;
  1918  07E5  0024               	movlb	4	; select bank4
  1919  07E6  018C               	clrf	12	;volatile
  1920                           
  1921                           ;mcc_generated_files/pin_manager.c: 79:     WPUC = 0x00;
  1922  07E7  018E               	clrf	14	;volatile
  1923  07E8                     l701:
  1924                           
  1925                           ;mcc_generated_files/pin_manager.c: 80:     OPTION_REGbits.nWPUEN = 1;
  1926  07E8  0021               	movlb	1	; select bank1
  1927  07E9  1795               	bsf	21,7	;volatile
  1928                           
  1929                           ;mcc_generated_files/pin_manager.c: 85:     ODCONA = 0x00;
  1930  07EA  0025               	movlb	5	; select bank5
  1931  07EB  018C               	clrf	12	;volatile
  1932                           
  1933                           ;mcc_generated_files/pin_manager.c: 86:     ODCONC = 0x00;
  1934  07EC  018E               	clrf	14	;volatile
  1935  07ED                     l703:
  1936                           
  1937                           ;mcc_generated_files/pin_manager.c: 91:     SLRCONA = 0x37;
  1938  07ED  3037               	movlw	55
  1939  07EE  0026               	movlb	6	; select bank6
  1940  07EF  008C               	movwf	12	;volatile
  1941  07F0                     l705:
  1942                           
  1943                           ;mcc_generated_files/pin_manager.c: 92:     SLRCONC = 0x3F;
  1944  07F0  303F               	movlw	63
  1945  07F1  008E               	movwf	14	;volatile
  1946  07F2                     l707:
  1947                           
  1948                           ;mcc_generated_files/pin_manager.c: 97:     INLVLA = 0x3F;
  1949  07F2  303F               	movlw	63
  1950  07F3  0027               	movlb	7	; select bank7
  1951  07F4  008C               	movwf	12	;volatile
  1952  07F5                     l709:
  1953                           
  1954                           ;mcc_generated_files/pin_manager.c: 98:     INLVLC = 0x3F;
  1955  07F5  303F               	movlw	63
  1956  07F6  008E               	movwf	14	;volatile
  1957  07F7                     l711:
  1958                           
  1959                           ;mcc_generated_files/pin_manager.c: 107:     RC5PPS = 0x0C;
  1960  07F7  300C               	movlw	12
  1961  07F8  003D               	movlb	29	; select bank29
  1962  07F9  00A5               	movwf	37	;volatile
  1963  07FA                     l35:
  1964  07FA  0008               	return
  1965  07FB                     __end_of_PIN_MANAGER_Initialize:
  1966                           
  1967                           	psect	text6
  1968  07A5                     __ptext6:	
  1969 ;; *************** function _OSCILLATOR_Initialize *****************
  1970 ;; Defined at:
  1971 ;;		line 61 in file "mcc_generated_files/mcc.c"
  1972 ;; Parameters:    Size  Location     Type
  1973 ;;		None
  1974 ;; Auto vars:     Size  Location     Type
  1975 ;;		None
  1976 ;; Return value:  Size  Location     Type
  1977 ;;                  1    wreg      void 
  1978 ;; Registers used:
  1979 ;;		wreg, status,2
  1980 ;; Tracked objects:
  1981 ;;		On entry : 0/0
  1982 ;;		On exit  : 0/0
  1983 ;;		Unchanged: 0/0
  1984 ;; Data sizes:     COMMON   BANK0   BANK1   BANK2   BANK3   BANK4   BANK5   BANK6   BANK7   BANK8   BANK9  BANK10  BANK1
      +1  BANK12
  1985 ;;      Params:         0       0       0       0       0       0       0       0       0       0       0       0       
      +0       0
  1986 ;;      Locals:         0       0       0       0       0       0       0       0       0       0       0       0       
      +0       0
  1987 ;;      Temps:          0       0       0       0       0       0       0       0       0       0       0       0       
      +0       0
  1988 ;;      Totals:         0       0       0       0       0       0       0       0       0       0       0       0       
      +0       0
  1989 ;;Total ram usage:        0 bytes
  1990 ;; Hardware stack levels used:    1
  1991 ;; This function calls:
  1992 ;;		Nothing
  1993 ;; This function is called by:
  1994 ;;		_SYSTEM_Initialize
  1995 ;; This function uses a non-reentrant model
  1996 ;;
  1997                           
  1998                           
  1999                           ;psect for function _OSCILLATOR_Initialize
  2000  07A5                     _OSCILLATOR_Initialize:
  2001  07A5                     l727:	
  2002                           ;incstack = 0
  2003                           ; Regs used in _OSCILLATOR_Initialize: [wreg+status,2]
  2004                           
  2005                           
  2006                           ;mcc_generated_files/mcc.c: 64:     OSCCON = 0x70;
  2007  07A5  3070               	movlw	112
  2008  07A6  0021               	movlb	1	; select bank1
  2009  07A7  0099               	movwf	25	;volatile
  2010  07A8                     l729:
  2011                           
  2012                           ;mcc_generated_files/mcc.c: 66:     OSCSTAT = 0x00;
  2013  07A8  019A               	clrf	26	;volatile
  2014  07A9                     l731:
  2015                           
  2016                           ;mcc_generated_files/mcc.c: 68:     OSCTUNE = 0x00;
  2017  07A9  0198               	clrf	24	;volatile
  2018  07AA                     l733:
  2019                           
  2020                           ;mcc_generated_files/mcc.c: 70:     BORCON = 0x00;
  2021  07AA  0022               	movlb	2	; select bank2
  2022  07AB  0196               	clrf	22	;volatile
  2023  07AC                     l112:
  2024  07AC  0008               	return
  2025  07AD                     __end_of_OSCILLATOR_Initialize:
  2026                           
  2027                           	psect	text7
  2028  07B5                     __ptext7:	
  2029 ;; *************** function _ADC_Initialize *****************
  2030 ;; Defined at:
  2031 ;;		line 67 in file "mcc_generated_files/adc.c"
  2032 ;; Parameters:    Size  Location     Type
  2033 ;;		None
  2034 ;; Auto vars:     Size  Location     Type
  2035 ;;		None
  2036 ;; Return value:  Size  Location     Type
  2037 ;;                  1    wreg      void 
  2038 ;; Registers used:
  2039 ;;		wreg, status,2
  2040 ;; Tracked objects:
  2041 ;;		On entry : 0/0
  2042 ;;		On exit  : 0/0
  2043 ;;		Unchanged: 0/0
  2044 ;; Data sizes:     COMMON   BANK0   BANK1   BANK2   BANK3   BANK4   BANK5   BANK6   BANK7   BANK8   BANK9  BANK10  BANK1
      +1  BANK12
  2045 ;;      Params:         0       0       0       0       0       0       0       0       0       0       0       0       
      +0       0
  2046 ;;      Locals:         0       0       0       0       0       0       0       0       0       0       0       0       
      +0       0
  2047 ;;      Temps:          0       0       0       0       0       0       0       0       0       0       0       0       
      +0       0
  2048 ;;      Totals:         0       0       0       0       0       0       0       0       0       0       0       0       
      +0       0
  2049 ;;Total ram usage:        0 bytes
  2050 ;; Hardware stack levels used:    1
  2051 ;; This function calls:
  2052 ;;		Nothing
  2053 ;; This function is called by:
  2054 ;;		_SYSTEM_Initialize
  2055 ;; This function uses a non-reentrant model
  2056 ;;
  2057                           
  2058                           
  2059                           ;psect for function _ADC_Initialize
  2060  07B5                     _ADC_Initialize:
  2061  07B5                     l737:	
  2062                           ;incstack = 0
  2063                           ; Regs used in _ADC_Initialize: [wreg+status,2]
  2064                           
  2065                           
  2066                           ;mcc_generated_files/adc.c: 72:     ADCON1 = 0x12;
  2067  07B5  3012               	movlw	18
  2068  07B6  0021               	movlb	1	; select bank1
  2069  07B7  009E               	movwf	30	;volatile
  2070  07B8                     l739:
  2071                           
  2072                           ;mcc_generated_files/adc.c: 75:     ADCON2 = 0x00;
  2073  07B8  019F               	clrf	31	;volatile
  2074  07B9                     l741:
  2075                           
  2076                           ;mcc_generated_files/adc.c: 78:     ADRESL = 0x00;
  2077  07B9  019B               	clrf	27	;volatile
  2078  07BA                     l743:
  2079                           
  2080                           ;mcc_generated_files/adc.c: 81:     ADRESH = 0x00;
  2081  07BA  019C               	clrf	28	;volatile
  2082  07BB                     l745:
  2083                           
  2084                           ;mcc_generated_files/adc.c: 84:     ADCON0 = 0x01;
  2085  07BB  3001               	movlw	1
  2086  07BC  009D               	movwf	29	;volatile
  2087  07BD                     l134:
  2088  07BD  0008               	return
  2089  07BE                     __end_of_ADC_Initialize:
  2090  007E                     btemp	set	126	;btemp
  2091  007E                     wtemp0	set	126
  2092                           
  2093                           	psect	config
  2094                           
  2095                           ;Config register CONFIG1 @ 0x8007
  2096                           ;	Oscillator Selection Bits
  2097                           ;	FOSC = INTOSC, INTOSC oscillator: I/O function on CLKIN pin
  2098                           ;	Watchdog Timer Enable
  2099                           ;	WDTE = OFF, WDT disabled
  2100                           ;	Power-up Timer Enable
  2101                           ;	PWRTE = OFF, PWRT disabled
  2102                           ;	MCLR Pin Function Select
  2103                           ;	MCLRE = ON, MCLR/VPP pin function is MCLR
  2104                           ;	Flash Program Memory Code Protection
  2105                           ;	CP = OFF, Program memory code protection is disabled
  2106                           ;	Brown-out Reset Enable
  2107                           ;	BOREN = OFF, Brown-out Reset disabled
  2108                           ;	Clock Out Enable
  2109                           ;	CLKOUTEN = OFF, CLKOUT function is disabled. I/O or oscillator function on the CLKOUT 
      +                          pin
  2110                           ;	Internal/External Switchover Mode
  2111                           ;	IESO = ON, Internal/External Switchover Mode is enabled
  2112                           ;	Fail-Safe Clock Monitor Enable
  2113                           ;	FCMEN = ON, Fail-Safe Clock Monitor is enabled
  2114  8007                     	org	32775
  2115  8007  39E4               	dw	14820
  2116                           
  2117                           ;Config register CONFIG2 @ 0x8008
  2118                           ;	Flash Memory Self-Write Protection
  2119                           ;	WRT = OFF, Write protection off
  2120                           ;	Peripheral Pin Select one-way control
  2121                           ;	PPS1WAY = ON, The PPSLOCK bit cannot be cleared once it is set by software
  2122                           ;	Zero-cross detect disable
  2123                           ;	ZCDDIS = ON, Zero-cross detect circuit is disabled at POR
  2124                           ;	Phase Lock Loop enable
  2125                           ;	PLLEN = OFF, 4x PLL is enabled when software sets the SPLLEN bit
  2126                           ;	Stack Overflow/Underflow Reset Enable
  2127                           ;	STVREN = ON, Stack Overflow or Underflow will cause a Reset
  2128                           ;	Brown-out Reset Voltage Selection
  2129                           ;	BORV = LO, Brown-out Reset Voltage (Vbor), low trip point selected.
  2130                           ;	Low-Power Brown Out Reset
  2131                           ;	LPBOR = OFF, Low-Power BOR is disabled
  2132                           ;	Low-Voltage Programming Enable
  2133                           ;	LVP = OFF, High-voltage on MCLR/VPP must be used for programming
  2134  8008                     	org	32776
  2135  8008  1EFF               	dw	7935

Data Sizes:
    Strings     0
    Constant    0
    Data        0
    BSS         2
    Persistent  32
    Stack       0

Auto Spaces:
    Space          Size  Autos    Used
    COMMON           14      0       2
    BANK0            80      0       0
    BANK1            80      0       0
    BANK2            80      0       0
    BANK3            80      0       0
    BANK4            80      0       0
    BANK5            80      0       0
    BANK6            80      0       0
    BANK7            80      0       0
    BANK8            80      0       0
    BANK9            80      0       0
    BANK10           80      0       0
    BANK11           80      0       0
    BANK12           48      0       0

Pointer List with Targets:

    ADC_InterruptHandler	PTR FTN()void  size(2) Largest target is 1
		 -> Absolute function(), 


Critical Paths under _main in COMMON

    None.

Critical Paths under _main in BANK0

    None.

Critical Paths under _main in BANK1

    None.

Critical Paths under _main in BANK2

    None.

Critical Paths under _main in BANK3

    None.

Critical Paths under _main in BANK4

    None.

Critical Paths under _main in BANK5

    None.

Critical Paths under _main in BANK6

    None.

Critical Paths under _main in BANK7

    None.

Critical Paths under _main in BANK8

    None.

Critical Paths under _main in BANK9

    None.

Critical Paths under _main in BANK10

    None.

Critical Paths under _main in BANK11

    None.

Critical Paths under _main in BANK12

    None.

Call Graph Tables:

 ---------------------------------------------------------------------------------
 (Depth) Function   	        Calls       Base Space   Used Autos Params    Refs
 ---------------------------------------------------------------------------------
 (0) _main                                                 0     0      0       0
                  _SYSTEM_Initialize
 ---------------------------------------------------------------------------------
 (1) _SYSTEM_Initialize                                    0     0      0       0
                     _ADC_Initialize
              _OSCILLATOR_Initialize
             _PIN_MANAGER_Initialize
                    _PWM1_Initialize
                    _TMR2_Initialize
                     _WDT_Initialize
 ---------------------------------------------------------------------------------
 (2) _WDT_Initialize                                       0     0      0       0
 ---------------------------------------------------------------------------------
 (2) _TMR2_Initialize                                      0     0      0       0
 ---------------------------------------------------------------------------------
 (2) _PWM1_Initialize                                      0     0      0       0
 ---------------------------------------------------------------------------------
 (2) _PIN_MANAGER_Initialize                               0     0      0       0
 ---------------------------------------------------------------------------------
 (2) _OSCILLATOR_Initialize                                0     0      0       0
 ---------------------------------------------------------------------------------
 (2) _ADC_Initialize                                       0     0      0       0
 ---------------------------------------------------------------------------------
 Estimated maximum stack depth 2
 ---------------------------------------------------------------------------------

 Call Graph Graphs:

 _main (ROOT)
   _SYSTEM_Initialize
     _ADC_Initialize
     _OSCILLATOR_Initialize
     _PIN_MANAGER_Initialize
     _PWM1_Initialize
     _TMR2_Initialize
     _WDT_Initialize

 Address spaces:
Name               Size   Autos  Total    Cost      Usage
BIGRAM             3F0      0       0       0        0.0%
NULL                 0      0       0       0        0.0%
CODE                 0      0       0       0        0.0%
BITCOMMON            E      0       0       1        0.0%
BITSFR0              0      0       0       1        0.0%
SFR0                 0      0       0       1        0.0%
COMMON               E      0       2       2       14.3%
BITSFR1              0      0       0       2        0.0%
SFR1                 0      0       0       2        0.0%
BITSFR2              0      0       0       3        0.0%
SFR2                 0      0       0       3        0.0%
STACK                0      0       0       3        0.0%
BITBANK0            50      0       0       4        0.0%
BITSFR3              0      0       0       4        0.0%
SFR3                 0      0       0       4        0.0%
BANK0               50      0       0       5        0.0%
BITSFR4              0      0       0       5        0.0%
SFR4                 0      0       0       5        0.0%
BITBANK1            50      0       0       6        0.0%
BITSFR5              0      0       0       6        0.0%
SFR5                 0      0       0       6        0.0%
BANK1               50      0       0       7        0.0%
BITSFR6              0      0       0       7        0.0%
SFR6                 0      0       0       7        0.0%
BITBANK2            50      0       0       8        0.0%
BITSFR7              0      0       0       8        0.0%
SFR7                 0      0       0       8        0.0%
BANK2               50      0       0       9        0.0%
BITSFR8              0      0       0       9        0.0%
SFR8                 0      0       0       9        0.0%
BITBANK3            50      0       0      10        0.0%
BITSFR9              0      0       0      10        0.0%
SFR9                 0      0       0      10        0.0%
BANK3               50      0       0      11        0.0%
BITSFR10             0      0       0      11        0.0%
SFR10                0      0       0      11        0.0%
BITBANK4            50      0       0      12        0.0%
BITSFR11             0      0       0      12        0.0%
SFR11                0      0       0      12        0.0%
BANK4               50      0       0      13        0.0%
BITSFR12             0      0       0      13        0.0%
SFR12                0      0       0      13        0.0%
BITBANK5            50      0       0      14        0.0%
BITSFR13             0      0       0      14        0.0%
SFR13                0      0       0      14        0.0%
BANK5               50      0       0      15        0.0%
BITSFR14             0      0       0      15        0.0%
SFR14                0      0       0      15        0.0%
BITBANK6            50      0       0      16        0.0%
BITSFR15             0      0       0      16        0.0%
SFR15                0      0       0      16        0.0%
BANK6               50      0       0      17        0.0%
BITSFR16             0      0       0      17        0.0%
SFR16                0      0       0      17        0.0%
BITBANK7            50      0       0      18        0.0%
BITSFR17             0      0       0      18        0.0%
SFR17                0      0       0      18        0.0%
BANK7               50      0       0      19        0.0%
BITSFR18             0      0       0      19        0.0%
SFR18                0      0       0      19        0.0%
BITSFR19             0      0       0      20        0.0%
SFR19                0      0       0      20        0.0%
ABS                  0      0       2      20        0.0%
BITBANK8            50      0       0      21        0.0%
BITSFR20             0      0       0      21        0.0%
SFR20                0      0       0      21        0.0%
BANK8               50      0       0      22        0.0%
BITSFR21             0      0       0      22        0.0%
SFR21                0      0       0      22        0.0%
BITBANK9            50      0       0      23        0.0%
BITSFR22             0      0       0      23        0.0%
SFR22                0      0       0      23        0.0%
BANK9               50      0       0      24        0.0%
BITSFR23             0      0       0      24        0.0%
SFR23                0      0       0      24        0.0%
BITBANK10           50      0       0      25        0.0%
BITSFR24             0      0       0      25        0.0%
SFR24                0      0       0      25        0.0%
BANK10              50      0       0      26        0.0%
BITSFR25             0      0       0      26        0.0%
SFR25                0      0       0      26        0.0%
BITBANK11           50      0       0      27        0.0%
BITSFR26             0      0       0      27        0.0%
SFR26                0      0       0      27        0.0%
BANK11              50      0       0      28        0.0%
BITSFR27             0      0       0      28        0.0%
SFR27                0      0       0      28        0.0%
BITBANK12           30      0       0      29        0.0%
BITSFR28             0      0       0      29        0.0%
SFR28                0      0       0      29        0.0%
BANK12              30      0       0      30        0.0%
BITSFR29             0      0       0      30        0.0%
SFR29                0      0       0      30        0.0%
BITSFR30             0      0       0      31        0.0%
SFR30                0      0       0      31        0.0%
DATA                 0      0       2      31        0.0%
BITSFR31             0      0       0      32        0.0%
SFR31                0      0       0      32        0.0%


Microchip Technology PIC Macro Assembler V2.31 build 20201012212115 
Symbol Table                                                                                   Wed Feb 03 10:36:17 2021

                             l35 07FA                               l49 07C6                               l65 07B4  
                            l112 07AC                              l115 079E                              l109 07D9  
                            l134 07BD                              l162 07A2                              l163 07A2  
                            l701 07E8                              l711 07F7                              l703 07ED  
                            l705 07F0                              l713 07BE                              l721 07B0  
                            l731 07A9                              l707 07F2                              l715 07C3  
                            l723 07B1                              l741 07B9                              l733 07AA  
                            l709 07F5                              l717 07C4                              l725 07B2  
                            l743 07BA                              l727 07A5                              l719 07AD  
                            l735 079B                              l745 07BB                              l737 07B5  
                            l729 07A8                              l739 07B8                              l691 07DA  
                            l747 07C7                              l693 07DD                              l695 07E0  
                            l697 07E1                              l699 07E3                              l797 079F  
                            _PR2 001B                  _TMR2_Initialize 07AD          __end_of_PWM1_Initialize 07C7  
                           _LATA 010C                             _LATC 010E                             _TMR2 001A  
                           _WPUA 020C                             _WPUC 020E                             _main 079F  
                           btemp 007E                             start 0002   __size_of_OSCILLATOR_Initialize 0008  
  __end_of_OSCILLATOR_Initialize 07AD                            ?_main 0000                            _T2CON 001C  
                          _TRISA 008C                            _TRISC 008E                   _WDT_Initialize 079B  
                          wtemp0 007E                  __initialization 07FB                     __end_of_main 07A5  
        __end_of_TMR2_Initialize 07B5                           ??_main 0000           __end_of_WDT_Initialize 079F  
                         _ADCON0 009D                           _ADCON1 009E                           _ADCON2 009F  
                         _ADRESH 009C                           _ADRESL 009B                           _CCPR1H 0292  
                         _CCPR1L 0291                           _ANSELA 018C                           _ANSELC 018E  
                         _BORCON 0116                 ?_PWM1_Initialize 0000                           _RC5PPS 0EA5  
                         _ODCONA 028C                           _ODCONC 028E                           _INLVLA 038C  
                         _INLVLC 038E                           _OSCCON 0099                           _WDTCON 0097  
                ?_WDT_Initialize 0000                _SYSTEM_Initialize 07C7          __end_of__initialization 07FD  
             ?_SYSTEM_Initialize 0000                   __pcstackCOMMON 0000              ??_SYSTEM_Initialize 0000  
               ?_TMR2_Initialize 0000                   _OPTION_REGbits 0095        __end_of_SYSTEM_Initialize 07DA  
                     __pmaintext 079F                          _CCP1CON 0293          __size_of_ADC_Initialize 0009  
                        _OSCSTAT 009A                          _OSCTUNE 0098                          _SLRCONA 030C  
                        _SLRCONC 030E             _ADC_InterruptHandler 0070                          __ptext1 07C7  
                        __ptext2 079B                          __ptext3 07AD                          __ptext4 07BE  
                        __ptext5 07DA                          __ptext6 07A5                          __ptext7 07B5  
          _OSCILLATOR_Initialize 07A5                        _T2CONbits 001C         ??_PIN_MANAGER_Initialize 0000  
     __size_of_SYSTEM_Initialize 0013             end_of_initialization 07FD                 ??_WDT_Initialize 0000  
       __size_of_PWM1_Initialize 0009                   _ADC_Initialize 07B5           ?_OSCILLATOR_Initialize 0000  
            start_initialization 07FB  __size_of_PIN_MANAGER_Initialize 0021                      _CCPTMRSbits 029E  
         __end_of_ADC_Initialize 07BE                      __pbssCOMMON 0070                        ___latbits 0002  
       __size_of_TMR2_Initialize 0008           _PIN_MANAGER_Initialize 07DA                  ?_ADC_Initialize 0000  
              ??_PWM1_Initialize 0000                         _PIR1bits 0011                       _ADCON0bits 009D  
              ??_TMR2_Initialize 0000          ??_OSCILLATOR_Initialize 0000                    __size_of_main 0006  
        __size_of_WDT_Initialize 0004          ?_PIN_MANAGER_Initialize 0000                  _PWM1_Initialize 07BE  
               ??_ADC_Initialize 0000   __end_of_PIN_MANAGER_Initialize 07FB  
