

Microchip MPLAB XC8 Assembler V2.31 build 20201012212115 
                                                                                               Wed Feb 03 23:50:28 2021

Microchip MPLAB XC8 C Compiler v2.31 (Free license) build 20201012212115 Og1 
     1                           	processor	16F1705
     2                           	pagewidth 120
     3                           	opt	flic
     4                           	psect	nvBANK0,global,class=BANK0,space=1,delta=1,noexec
     5                           	psect	stringtext1,global,class=STRCODE,delta=2,noexec
     6                           	psect	stringtext2,global,class=STRCODE,delta=2,noexec
     7                           	psect	cinit,global,class=CODE,merge=1,delta=2
     8                           	psect	bssCOMMON,global,class=COMMON,space=1,delta=1,noexec
     9                           	psect	bssBANK0,global,class=BANK0,space=1,delta=1,noexec
    10                           	psect	clrtext,global,class=CODE,delta=2
    11                           	psect	cstackCOMMON,global,class=COMMON,space=1,delta=1,noexec
    12                           	psect	cstackBANK0,global,class=BANK0,space=1,delta=1,noexec
    13                           	psect	maintext,global,class=CODE,merge=1,split=1,delta=2
    14                           	psect	text1,local,class=CODE,merge=1,delta=2,group=1
    15                           	psect	text2,local,class=CODE,merge=1,delta=2
    16                           	psect	text3,local,class=CODE,merge=1,delta=2
    17                           	psect	text4,local,class=CODE,merge=1,delta=2
    18                           	psect	text5,local,class=CODE,merge=1,delta=2
    19                           	psect	text6,local,class=CODE,merge=1,delta=2
    20                           	psect	text7,local,class=CODE,merge=1,delta=2
    21                           	psect	text8,local,class=CODE,merge=1,delta=2
    22                           	psect	text9,local,class=CODE,merge=1,delta=2
    23                           	psect	text10,local,class=CODE,merge=1,delta=2
    24                           	psect	text11,local,class=CODE,merge=1,delta=2
    25                           	psect	text12,local,class=CODE,merge=1,delta=2
    26                           	psect	text13,local,class=CODE,merge=1,delta=2
    27                           	psect	text14,local,class=CODE,merge=1,delta=2
    28                           	psect	text15,local,class=CODE,merge=1,delta=2
    29                           	psect	text16,local,class=CODE,merge=1,delta=2
    30                           	psect	intentry,global,class=CODE,delta=2
    31                           	psect	text18,local,class=CODE,merge=1,delta=2
    32                           	psect	text19,local,class=CODE,merge=1,delta=2
    33                           	psect	text20,local,class=CODE,merge=1,delta=2
    34                           	psect	text21,local,class=CODE,merge=1,delta=2
    35                           	psect	text22,local,class=CODE,merge=1,delta=2
    36                           	psect	text23,local,class=CODE,merge=1,delta=2
    37                           	psect	config,global,abs,ovrld,class=CONFIG,space=4,delta=2,noexec
    38                           	dabs	1,0x7E,2
    39  0000                     
    40                           ; Version 2.20
    41                           ; Generated 12/02/2020 GMT
    42                           ; 
    43                           ; Copyright © 2020, Microchip Technology Inc. and its subsidiaries ("Microchip")
    44                           ; All rights reserved.
    45                           ; 
    46                           ; This software is developed by Microchip Technology Inc. and its subsidiaries ("Microch
      +                          ip").
    47                           ; 
    48                           ; Redistribution and use in source and binary forms, with or without modification, are
    49                           ; permitted provided that the following conditions are met:
    50                           ; 
    51                           ;     1. Redistributions of source code must retain the above copyright notice, this lis
      +                          t of
    52                           ;        conditions and the following disclaimer.
    53                           ; 
    54                           ;     2. Redistributions in binary form must reproduce the above copyright notice, this 
      +                          list
    55                           ;        of conditions and the following disclaimer in the documentation and/or other
    56                           ;        materials provided with the distribution.
    57                           ; 
    58                           ;     3. Microchip's name may not be used to endorse or promote products derived from th
      +                          is
    59                           ;        software without specific prior written permission.
    60                           ; 
    61                           ; THIS SOFTWARE IS PROVIDED BY MICROCHIP "AS IS" AND ANY EXPRESS OR IMPLIED WARRANTIES,
    62                           ; INCLUDING, BUT NOT LIMITED TO, THE IMPLIED WARRANTIES OF MERCHANTABILITY AND FITNESS F
      +                          OR
    63                           ; PURPOSE ARE DISCLAIMED.  IN NO EVENT SHALL MICROCHIP BE LIABLE FOR ANY DIRECT, INDIREC
      +                          T,
    64                           ; INCIDENTAL, SPECIAL, EXEMPLARY, OR CONSEQUENTIAL DAMAGES (INCLUDING BUT NOT LIMITED TO
    65                           ; PROCUREMENT OF SUBSTITUTE GOODS OR SERVICES; LOSS OF USE, DATA OR PROFITS; OR BUSINESS
    66                           ; INTERRUPTION) HOWSOEVER CAUSED AND ON ANY THEORY OF LIABILITY, WHETHER IN CONTRACT, ST
      +                          RICT
    67                           ; LIABILITY, OR TORT (INCLUDING NEGLIGENCE OR OTHERWISE) ARISING IN ANY WAY OUT OF THE U
      +                          SE OF
    68                           ; THIS SOFTWARE, EVEN IF ADVISED OF THE POSSIBILITY OF SUCH DAMAGE.
    69                           ; 
    70                           ; 
    71                           ; Code-generator required, PIC16F1705 Definitions
    72                           ; 
    73                           ; SFR Addresses
    74  0000                     	;# 
    75  0001                     	;# 
    76  0002                     	;# 
    77  0003                     	;# 
    78  0004                     	;# 
    79  0005                     	;# 
    80  0006                     	;# 
    81  0007                     	;# 
    82  0008                     	;# 
    83  0009                     	;# 
    84  000A                     	;# 
    85  000B                     	;# 
    86  000C                     	;# 
    87  000E                     	;# 
    88  0011                     	;# 
    89  0012                     	;# 
    90  0013                     	;# 
    91  0015                     	;# 
    92  0016                     	;# 
    93  0016                     	;# 
    94  0017                     	;# 
    95  0018                     	;# 
    96  0019                     	;# 
    97  001A                     	;# 
    98  001B                     	;# 
    99  001C                     	;# 
   100  008C                     	;# 
   101  008E                     	;# 
   102  0091                     	;# 
   103  0092                     	;# 
   104  0093                     	;# 
   105  0095                     	;# 
   106  0096                     	;# 
   107  0097                     	;# 
   108  0098                     	;# 
   109  0099                     	;# 
   110  009A                     	;# 
   111  009B                     	;# 
   112  009B                     	;# 
   113  009C                     	;# 
   114  009D                     	;# 
   115  009E                     	;# 
   116  009F                     	;# 
   117  010C                     	;# 
   118  010E                     	;# 
   119  0111                     	;# 
   120  0112                     	;# 
   121  0113                     	;# 
   122  0114                     	;# 
   123  0115                     	;# 
   124  0116                     	;# 
   125  0117                     	;# 
   126  0118                     	;# 
   127  0119                     	;# 
   128  011C                     	;# 
   129  018C                     	;# 
   130  018E                     	;# 
   131  0191                     	;# 
   132  0191                     	;# 
   133  0192                     	;# 
   134  0193                     	;# 
   135  0193                     	;# 
   136  0194                     	;# 
   137  0195                     	;# 
   138  0196                     	;# 
   139  0197                     	;# 
   140  0199                     	;# 
   141  0199                     	;# 
   142  0199                     	;# 
   143  019A                     	;# 
   144  019A                     	;# 
   145  019A                     	;# 
   146  019B                     	;# 
   147  019B                     	;# 
   148  019B                     	;# 
   149  019B                     	;# 
   150  019B                     	;# 
   151  019C                     	;# 
   152  019C                     	;# 
   153  019C                     	;# 
   154  019D                     	;# 
   155  019D                     	;# 
   156  019D                     	;# 
   157  019E                     	;# 
   158  019E                     	;# 
   159  019E                     	;# 
   160  019F                     	;# 
   161  019F                     	;# 
   162  019F                     	;# 
   163  019F                     	;# 
   164  019F                     	;# 
   165  020C                     	;# 
   166  020E                     	;# 
   167  0211                     	;# 
   168  0211                     	;# 
   169  0212                     	;# 
   170  0212                     	;# 
   171  0213                     	;# 
   172  0213                     	;# 
   173  0214                     	;# 
   174  0214                     	;# 
   175  0215                     	;# 
   176  0215                     	;# 
   177  0215                     	;# 
   178  0215                     	;# 
   179  0216                     	;# 
   180  0216                     	;# 
   181  0217                     	;# 
   182  0217                     	;# 
   183  028C                     	;# 
   184  028E                     	;# 
   185  0291                     	;# 
   186  0291                     	;# 
   187  0292                     	;# 
   188  0293                     	;# 
   189  0293                     	;# 
   190  0298                     	;# 
   191  0298                     	;# 
   192  0299                     	;# 
   193  029A                     	;# 
   194  029A                     	;# 
   195  029E                     	;# 
   196  030C                     	;# 
   197  030E                     	;# 
   198  038C                     	;# 
   199  038E                     	;# 
   200  0391                     	;# 
   201  0392                     	;# 
   202  0393                     	;# 
   203  0397                     	;# 
   204  0398                     	;# 
   205  0399                     	;# 
   206  0415                     	;# 
   207  0416                     	;# 
   208  0417                     	;# 
   209  041C                     	;# 
   210  041D                     	;# 
   211  041E                     	;# 
   212  0511                     	;# 
   213  0515                     	;# 
   214  0617                     	;# 
   215  0618                     	;# 
   216  0619                     	;# 
   217  0619                     	;# 
   218  061A                     	;# 
   219  061B                     	;# 
   220  061C                     	;# 
   221  061C                     	;# 
   222  0691                     	;# 
   223  0692                     	;# 
   224  0693                     	;# 
   225  0694                     	;# 
   226  0695                     	;# 
   227  0696                     	;# 
   228  0697                     	;# 
   229  0698                     	;# 
   230  0699                     	;# 
   231  069A                     	;# 
   232  069B                     	;# 
   233  069C                     	;# 
   234  069D                     	;# 
   235  069E                     	;# 
   236  069F                     	;# 
   237  0E0F                     	;# 
   238  0E10                     	;# 
   239  0E11                     	;# 
   240  0E12                     	;# 
   241  0E13                     	;# 
   242  0E14                     	;# 
   243  0E15                     	;# 
   244  0E17                     	;# 
   245  0E20                     	;# 
   246  0E21                     	;# 
   247  0E22                     	;# 
   248  0E24                     	;# 
   249  0E25                     	;# 
   250  0E28                     	;# 
   251  0E29                     	;# 
   252  0E2A                     	;# 
   253  0E2B                     	;# 
   254  0E90                     	;# 
   255  0E91                     	;# 
   256  0E92                     	;# 
   257  0E94                     	;# 
   258  0E95                     	;# 
   259  0EA0                     	;# 
   260  0EA1                     	;# 
   261  0EA2                     	;# 
   262  0EA3                     	;# 
   263  0EA4                     	;# 
   264  0EA5                     	;# 
   265  0F0F                     	;# 
   266  0F10                     	;# 
   267  0F11                     	;# 
   268  0F12                     	;# 
   269  0F13                     	;# 
   270  0F14                     	;# 
   271  0F15                     	;# 
   272  0F16                     	;# 
   273  0F17                     	;# 
   274  0F18                     	;# 
   275  0F19                     	;# 
   276  0F1A                     	;# 
   277  0F1B                     	;# 
   278  0F1C                     	;# 
   279  0F1D                     	;# 
   280  0F1E                     	;# 
   281  0F1F                     	;# 
   282  0F20                     	;# 
   283  0F21                     	;# 
   284  0F22                     	;# 
   285  0F23                     	;# 
   286  0F24                     	;# 
   287  0F25                     	;# 
   288  0F26                     	;# 
   289  0F27                     	;# 
   290  0F28                     	;# 
   291  0F29                     	;# 
   292  0F2A                     	;# 
   293  0F2B                     	;# 
   294  0F2C                     	;# 
   295  0F2D                     	;# 
   296  0F9E                     	;# 
   297  0FE4                     	;# 
   298  0FE5                     	;# 
   299  0FE6                     	;# 
   300  0FE7                     	;# 
   301  0FE8                     	;# 
   302  0FE9                     	;# 
   303  0FEA                     	;# 
   304  0FEB                     	;# 
   305  0FED                     	;# 
   306  0FEE                     	;# 
   307  0FEF                     	;# 
   308  0000                     	;# 
   309  0001                     	;# 
   310  0002                     	;# 
   311  0003                     	;# 
   312  0004                     	;# 
   313  0005                     	;# 
   314  0006                     	;# 
   315  0007                     	;# 
   316  0008                     	;# 
   317  0009                     	;# 
   318  000A                     	;# 
   319  000B                     	;# 
   320  000C                     	;# 
   321  000E                     	;# 
   322  0011                     	;# 
   323  0012                     	;# 
   324  0013                     	;# 
   325  0015                     	;# 
   326  0016                     	;# 
   327  0016                     	;# 
   328  0017                     	;# 
   329  0018                     	;# 
   330  0019                     	;# 
   331  001A                     	;# 
   332  001B                     	;# 
   333  001C                     	;# 
   334  008C                     	;# 
   335  008E                     	;# 
   336  0091                     	;# 
   337  0092                     	;# 
   338  0093                     	;# 
   339  0095                     	;# 
   340  0096                     	;# 
   341  0097                     	;# 
   342  0098                     	;# 
   343  0099                     	;# 
   344  009A                     	;# 
   345  009B                     	;# 
   346  009B                     	;# 
   347  009C                     	;# 
   348  009D                     	;# 
   349  009E                     	;# 
   350  009F                     	;# 
   351  010C                     	;# 
   352  010E                     	;# 
   353  0111                     	;# 
   354  0112                     	;# 
   355  0113                     	;# 
   356  0114                     	;# 
   357  0115                     	;# 
   358  0116                     	;# 
   359  0117                     	;# 
   360  0118                     	;# 
   361  0119                     	;# 
   362  011C                     	;# 
   363  018C                     	;# 
   364  018E                     	;# 
   365  0191                     	;# 
   366  0191                     	;# 
   367  0192                     	;# 
   368  0193                     	;# 
   369  0193                     	;# 
   370  0194                     	;# 
   371  0195                     	;# 
   372  0196                     	;# 
   373  0197                     	;# 
   374  0199                     	;# 
   375  0199                     	;# 
   376  0199                     	;# 
   377  019A                     	;# 
   378  019A                     	;# 
   379  019A                     	;# 
   380  019B                     	;# 
   381  019B                     	;# 
   382  019B                     	;# 
   383  019B                     	;# 
   384  019B                     	;# 
   385  019C                     	;# 
   386  019C                     	;# 
   387  019C                     	;# 
   388  019D                     	;# 
   389  019D                     	;# 
   390  019D                     	;# 
   391  019E                     	;# 
   392  019E                     	;# 
   393  019E                     	;# 
   394  019F                     	;# 
   395  019F                     	;# 
   396  019F                     	;# 
   397  019F                     	;# 
   398  019F                     	;# 
   399  020C                     	;# 
   400  020E                     	;# 
   401  0211                     	;# 
   402  0211                     	;# 
   403  0212                     	;# 
   404  0212                     	;# 
   405  0213                     	;# 
   406  0213                     	;# 
   407  0214                     	;# 
   408  0214                     	;# 
   409  0215                     	;# 
   410  0215                     	;# 
   411  0215                     	;# 
   412  0215                     	;# 
   413  0216                     	;# 
   414  0216                     	;# 
   415  0217                     	;# 
   416  0217                     	;# 
   417  028C                     	;# 
   418  028E                     	;# 
   419  0291                     	;# 
   420  0291                     	;# 
   421  0292                     	;# 
   422  0293                     	;# 
   423  0293                     	;# 
   424  0298                     	;# 
   425  0298                     	;# 
   426  0299                     	;# 
   427  029A                     	;# 
   428  029A                     	;# 
   429  029E                     	;# 
   430  030C                     	;# 
   431  030E                     	;# 
   432  038C                     	;# 
   433  038E                     	;# 
   434  0391                     	;# 
   435  0392                     	;# 
   436  0393                     	;# 
   437  0397                     	;# 
   438  0398                     	;# 
   439  0399                     	;# 
   440  0415                     	;# 
   441  0416                     	;# 
   442  0417                     	;# 
   443  041C                     	;# 
   444  041D                     	;# 
   445  041E                     	;# 
   446  0511                     	;# 
   447  0515                     	;# 
   448  0617                     	;# 
   449  0618                     	;# 
   450  0619                     	;# 
   451  0619                     	;# 
   452  061A                     	;# 
   453  061B                     	;# 
   454  061C                     	;# 
   455  061C                     	;# 
   456  0691                     	;# 
   457  0692                     	;# 
   458  0693                     	;# 
   459  0694                     	;# 
   460  0695                     	;# 
   461  0696                     	;# 
   462  0697                     	;# 
   463  0698                     	;# 
   464  0699                     	;# 
   465  069A                     	;# 
   466  069B                     	;# 
   467  069C                     	;# 
   468  069D                     	;# 
   469  069E                     	;# 
   470  069F                     	;# 
   471  0E0F                     	;# 
   472  0E10                     	;# 
   473  0E11                     	;# 
   474  0E12                     	;# 
   475  0E13                     	;# 
   476  0E14                     	;# 
   477  0E15                     	;# 
   478  0E17                     	;# 
   479  0E20                     	;# 
   480  0E21                     	;# 
   481  0E22                     	;# 
   482  0E24                     	;# 
   483  0E25                     	;# 
   484  0E28                     	;# 
   485  0E29                     	;# 
   486  0E2A                     	;# 
   487  0E2B                     	;# 
   488  0E90                     	;# 
   489  0E91                     	;# 
   490  0E92                     	;# 
   491  0E94                     	;# 
   492  0E95                     	;# 
   493  0EA0                     	;# 
   494  0EA1                     	;# 
   495  0EA2                     	;# 
   496  0EA3                     	;# 
   497  0EA4                     	;# 
   498  0EA5                     	;# 
   499  0F0F                     	;# 
   500  0F10                     	;# 
   501  0F11                     	;# 
   502  0F12                     	;# 
   503  0F13                     	;# 
   504  0F14                     	;# 
   505  0F15                     	;# 
   506  0F16                     	;# 
   507  0F17                     	;# 
   508  0F18                     	;# 
   509  0F19                     	;# 
   510  0F1A                     	;# 
   511  0F1B                     	;# 
   512  0F1C                     	;# 
   513  0F1D                     	;# 
   514  0F1E                     	;# 
   515  0F1F                     	;# 
   516  0F20                     	;# 
   517  0F21                     	;# 
   518  0F22                     	;# 
   519  0F23                     	;# 
   520  0F24                     	;# 
   521  0F25                     	;# 
   522  0F26                     	;# 
   523  0F27                     	;# 
   524  0F28                     	;# 
   525  0F29                     	;# 
   526  0F2A                     	;# 
   527  0F2B                     	;# 
   528  0F2C                     	;# 
   529  0F2D                     	;# 
   530  0F9E                     	;# 
   531  0FE4                     	;# 
   532  0FE5                     	;# 
   533  0FE6                     	;# 
   534  0FE7                     	;# 
   535  0FE8                     	;# 
   536  0FE9                     	;# 
   537  0FEA                     	;# 
   538  0FEB                     	;# 
   539  0FED                     	;# 
   540  0FEE                     	;# 
   541  0FEF                     	;# 
   542  0000                     	;# 
   543  0001                     	;# 
   544  0002                     	;# 
   545  0003                     	;# 
   546  0004                     	;# 
   547  0005                     	;# 
   548  0006                     	;# 
   549  0007                     	;# 
   550  0008                     	;# 
   551  0009                     	;# 
   552  000A                     	;# 
   553  000B                     	;# 
   554  000C                     	;# 
   555  000E                     	;# 
   556  0011                     	;# 
   557  0012                     	;# 
   558  0013                     	;# 
   559  0015                     	;# 
   560  0016                     	;# 
   561  0016                     	;# 
   562  0017                     	;# 
   563  0018                     	;# 
   564  0019                     	;# 
   565  001A                     	;# 
   566  001B                     	;# 
   567  001C                     	;# 
   568  008C                     	;# 
   569  008E                     	;# 
   570  0091                     	;# 
   571  0092                     	;# 
   572  0093                     	;# 
   573  0095                     	;# 
   574  0096                     	;# 
   575  0097                     	;# 
   576  0098                     	;# 
   577  0099                     	;# 
   578  009A                     	;# 
   579  009B                     	;# 
   580  009B                     	;# 
   581  009C                     	;# 
   582  009D                     	;# 
   583  009E                     	;# 
   584  009F                     	;# 
   585  010C                     	;# 
   586  010E                     	;# 
   587  0111                     	;# 
   588  0112                     	;# 
   589  0113                     	;# 
   590  0114                     	;# 
   591  0115                     	;# 
   592  0116                     	;# 
   593  0117                     	;# 
   594  0118                     	;# 
   595  0119                     	;# 
   596  011C                     	;# 
   597  018C                     	;# 
   598  018E                     	;# 
   599  0191                     	;# 
   600  0191                     	;# 
   601  0192                     	;# 
   602  0193                     	;# 
   603  0193                     	;# 
   604  0194                     	;# 
   605  0195                     	;# 
   606  0196                     	;# 
   607  0197                     	;# 
   608  0199                     	;# 
   609  0199                     	;# 
   610  0199                     	;# 
   611  019A                     	;# 
   612  019A                     	;# 
   613  019A                     	;# 
   614  019B                     	;# 
   615  019B                     	;# 
   616  019B                     	;# 
   617  019B                     	;# 
   618  019B                     	;# 
   619  019C                     	;# 
   620  019C                     	;# 
   621  019C                     	;# 
   622  019D                     	;# 
   623  019D                     	;# 
   624  019D                     	;# 
   625  019E                     	;# 
   626  019E                     	;# 
   627  019E                     	;# 
   628  019F                     	;# 
   629  019F                     	;# 
   630  019F                     	;# 
   631  019F                     	;# 
   632  019F                     	;# 
   633  020C                     	;# 
   634  020E                     	;# 
   635  0211                     	;# 
   636  0211                     	;# 
   637  0212                     	;# 
   638  0212                     	;# 
   639  0213                     	;# 
   640  0213                     	;# 
   641  0214                     	;# 
   642  0214                     	;# 
   643  0215                     	;# 
   644  0215                     	;# 
   645  0215                     	;# 
   646  0215                     	;# 
   647  0216                     	;# 
   648  0216                     	;# 
   649  0217                     	;# 
   650  0217                     	;# 
   651  028C                     	;# 
   652  028E                     	;# 
   653  0291                     	;# 
   654  0291                     	;# 
   655  0292                     	;# 
   656  0293                     	;# 
   657  0293                     	;# 
   658  0298                     	;# 
   659  0298                     	;# 
   660  0299                     	;# 
   661  029A                     	;# 
   662  029A                     	;# 
   663  029E                     	;# 
   664  030C                     	;# 
   665  030E                     	;# 
   666  038C                     	;# 
   667  038E                     	;# 
   668  0391                     	;# 
   669  0392                     	;# 
   670  0393                     	;# 
   671  0397                     	;# 
   672  0398                     	;# 
   673  0399                     	;# 
   674  0415                     	;# 
   675  0416                     	;# 
   676  0417                     	;# 
   677  041C                     	;# 
   678  041D                     	;# 
   679  041E                     	;# 
   680  0511                     	;# 
   681  0515                     	;# 
   682  0617                     	;# 
   683  0618                     	;# 
   684  0619                     	;# 
   685  0619                     	;# 
   686  061A                     	;# 
   687  061B                     	;# 
   688  061C                     	;# 
   689  061C                     	;# 
   690  0691                     	;# 
   691  0692                     	;# 
   692  0693                     	;# 
   693  0694                     	;# 
   694  0695                     	;# 
   695  0696                     	;# 
   696  0697                     	;# 
   697  0698                     	;# 
   698  0699                     	;# 
   699  069A                     	;# 
   700  069B                     	;# 
   701  069C                     	;# 
   702  069D                     	;# 
   703  069E                     	;# 
   704  069F                     	;# 
   705  0E0F                     	;# 
   706  0E10                     	;# 
   707  0E11                     	;# 
   708  0E12                     	;# 
   709  0E13                     	;# 
   710  0E14                     	;# 
   711  0E15                     	;# 
   712  0E17                     	;# 
   713  0E20                     	;# 
   714  0E21                     	;# 
   715  0E22                     	;# 
   716  0E24                     	;# 
   717  0E25                     	;# 
   718  0E28                     	;# 
   719  0E29                     	;# 
   720  0E2A                     	;# 
   721  0E2B                     	;# 
   722  0E90                     	;# 
   723  0E91                     	;# 
   724  0E92                     	;# 
   725  0E94                     	;# 
   726  0E95                     	;# 
   727  0EA0                     	;# 
   728  0EA1                     	;# 
   729  0EA2                     	;# 
   730  0EA3                     	;# 
   731  0EA4                     	;# 
   732  0EA5                     	;# 
   733  0F0F                     	;# 
   734  0F10                     	;# 
   735  0F11                     	;# 
   736  0F12                     	;# 
   737  0F13                     	;# 
   738  0F14                     	;# 
   739  0F15                     	;# 
   740  0F16                     	;# 
   741  0F17                     	;# 
   742  0F18                     	;# 
   743  0F19                     	;# 
   744  0F1A                     	;# 
   745  0F1B                     	;# 
   746  0F1C                     	;# 
   747  0F1D                     	;# 
   748  0F1E                     	;# 
   749  0F1F                     	;# 
   750  0F20                     	;# 
   751  0F21                     	;# 
   752  0F22                     	;# 
   753  0F23                     	;# 
   754  0F24                     	;# 
   755  0F25                     	;# 
   756  0F26                     	;# 
   757  0F27                     	;# 
   758  0F28                     	;# 
   759  0F29                     	;# 
   760  0F2A                     	;# 
   761  0F2B                     	;# 
   762  0F2C                     	;# 
   763  0F2D                     	;# 
   764  0F9E                     	;# 
   765  0FE4                     	;# 
   766  0FE5                     	;# 
   767  0FE6                     	;# 
   768  0FE7                     	;# 
   769  0FE8                     	;# 
   770  0FE9                     	;# 
   771  0FEA                     	;# 
   772  0FEB                     	;# 
   773  0FED                     	;# 
   774  0FEE                     	;# 
   775  0FEF                     	;# 
   776  0000                     	;# 
   777  0001                     	;# 
   778  0002                     	;# 
   779  0003                     	;# 
   780  0004                     	;# 
   781  0005                     	;# 
   782  0006                     	;# 
   783  0007                     	;# 
   784  0008                     	;# 
   785  0009                     	;# 
   786  000A                     	;# 
   787  000B                     	;# 
   788  000C                     	;# 
   789  000E                     	;# 
   790  0011                     	;# 
   791  0012                     	;# 
   792  0013                     	;# 
   793  0015                     	;# 
   794  0016                     	;# 
   795  0016                     	;# 
   796  0017                     	;# 
   797  0018                     	;# 
   798  0019                     	;# 
   799  001A                     	;# 
   800  001B                     	;# 
   801  001C                     	;# 
   802  008C                     	;# 
   803  008E                     	;# 
   804  0091                     	;# 
   805  0092                     	;# 
   806  0093                     	;# 
   807  0095                     	;# 
   808  0096                     	;# 
   809  0097                     	;# 
   810  0098                     	;# 
   811  0099                     	;# 
   812  009A                     	;# 
   813  009B                     	;# 
   814  009B                     	;# 
   815  009C                     	;# 
   816  009D                     	;# 
   817  009E                     	;# 
   818  009F                     	;# 
   819  010C                     	;# 
   820  010E                     	;# 
   821  0111                     	;# 
   822  0112                     	;# 
   823  0113                     	;# 
   824  0114                     	;# 
   825  0115                     	;# 
   826  0116                     	;# 
   827  0117                     	;# 
   828  0118                     	;# 
   829  0119                     	;# 
   830  011C                     	;# 
   831  018C                     	;# 
   832  018E                     	;# 
   833  0191                     	;# 
   834  0191                     	;# 
   835  0192                     	;# 
   836  0193                     	;# 
   837  0193                     	;# 
   838  0194                     	;# 
   839  0195                     	;# 
   840  0196                     	;# 
   841  0197                     	;# 
   842  0199                     	;# 
   843  0199                     	;# 
   844  0199                     	;# 
   845  019A                     	;# 
   846  019A                     	;# 
   847  019A                     	;# 
   848  019B                     	;# 
   849  019B                     	;# 
   850  019B                     	;# 
   851  019B                     	;# 
   852  019B                     	;# 
   853  019C                     	;# 
   854  019C                     	;# 
   855  019C                     	;# 
   856  019D                     	;# 
   857  019D                     	;# 
   858  019D                     	;# 
   859  019E                     	;# 
   860  019E                     	;# 
   861  019E                     	;# 
   862  019F                     	;# 
   863  019F                     	;# 
   864  019F                     	;# 
   865  019F                     	;# 
   866  019F                     	;# 
   867  020C                     	;# 
   868  020E                     	;# 
   869  0211                     	;# 
   870  0211                     	;# 
   871  0212                     	;# 
   872  0212                     	;# 
   873  0213                     	;# 
   874  0213                     	;# 
   875  0214                     	;# 
   876  0214                     	;# 
   877  0215                     	;# 
   878  0215                     	;# 
   879  0215                     	;# 
   880  0215                     	;# 
   881  0216                     	;# 
   882  0216                     	;# 
   883  0217                     	;# 
   884  0217                     	;# 
   885  028C                     	;# 
   886  028E                     	;# 
   887  0291                     	;# 
   888  0291                     	;# 
   889  0292                     	;# 
   890  0293                     	;# 
   891  0293                     	;# 
   892  0298                     	;# 
   893  0298                     	;# 
   894  0299                     	;# 
   895  029A                     	;# 
   896  029A                     	;# 
   897  029E                     	;# 
   898  030C                     	;# 
   899  030E                     	;# 
   900  038C                     	;# 
   901  038E                     	;# 
   902  0391                     	;# 
   903  0392                     	;# 
   904  0393                     	;# 
   905  0397                     	;# 
   906  0398                     	;# 
   907  0399                     	;# 
   908  0415                     	;# 
   909  0416                     	;# 
   910  0417                     	;# 
   911  041C                     	;# 
   912  041D                     	;# 
   913  041E                     	;# 
   914  0511                     	;# 
   915  0515                     	;# 
   916  0617                     	;# 
   917  0618                     	;# 
   918  0619                     	;# 
   919  0619                     	;# 
   920  061A                     	;# 
   921  061B                     	;# 
   922  061C                     	;# 
   923  061C                     	;# 
   924  0691                     	;# 
   925  0692                     	;# 
   926  0693                     	;# 
   927  0694                     	;# 
   928  0695                     	;# 
   929  0696                     	;# 
   930  0697                     	;# 
   931  0698                     	;# 
   932  0699                     	;# 
   933  069A                     	;# 
   934  069B                     	;# 
   935  069C                     	;# 
   936  069D                     	;# 
   937  069E                     	;# 
   938  069F                     	;# 
   939  0E0F                     	;# 
   940  0E10                     	;# 
   941  0E11                     	;# 
   942  0E12                     	;# 
   943  0E13                     	;# 
   944  0E14                     	;# 
   945  0E15                     	;# 
   946  0E17                     	;# 
   947  0E20                     	;# 
   948  0E21                     	;# 
   949  0E22                     	;# 
   950  0E24                     	;# 
   951  0E25                     	;# 
   952  0E28                     	;# 
   953  0E29                     	;# 
   954  0E2A                     	;# 
   955  0E2B                     	;# 
   956  0E90                     	;# 
   957  0E91                     	;# 
   958  0E92                     	;# 
   959  0E94                     	;# 
   960  0E95                     	;# 
   961  0EA0                     	;# 
   962  0EA1                     	;# 
   963  0EA2                     	;# 
   964  0EA3                     	;# 
   965  0EA4                     	;# 
   966  0EA5                     	;# 
   967  0F0F                     	;# 
   968  0F10                     	;# 
   969  0F11                     	;# 
   970  0F12                     	;# 
   971  0F13                     	;# 
   972  0F14                     	;# 
   973  0F15                     	;# 
   974  0F16                     	;# 
   975  0F17                     	;# 
   976  0F18                     	;# 
   977  0F19                     	;# 
   978  0F1A                     	;# 
   979  0F1B                     	;# 
   980  0F1C                     	;# 
   981  0F1D                     	;# 
   982  0F1E                     	;# 
   983  0F1F                     	;# 
   984  0F20                     	;# 
   985  0F21                     	;# 
   986  0F22                     	;# 
   987  0F23                     	;# 
   988  0F24                     	;# 
   989  0F25                     	;# 
   990  0F26                     	;# 
   991  0F27                     	;# 
   992  0F28                     	;# 
   993  0F29                     	;# 
   994  0F2A                     	;# 
   995  0F2B                     	;# 
   996  0F2C                     	;# 
   997  0F2D                     	;# 
   998  0F9E                     	;# 
   999  0FE4                     	;# 
  1000  0FE5                     	;# 
  1001  0FE6                     	;# 
  1002  0FE7                     	;# 
  1003  0FE8                     	;# 
  1004  0FE9                     	;# 
  1005  0FEA                     	;# 
  1006  0FEB                     	;# 
  1007  0FED                     	;# 
  1008  0FEE                     	;# 
  1009  0FEF                     	;# 
  1010  0000                     	;# 
  1011  0001                     	;# 
  1012  0002                     	;# 
  1013  0003                     	;# 
  1014  0004                     	;# 
  1015  0005                     	;# 
  1016  0006                     	;# 
  1017  0007                     	;# 
  1018  0008                     	;# 
  1019  0009                     	;# 
  1020  000A                     	;# 
  1021  000B                     	;# 
  1022  000C                     	;# 
  1023  000E                     	;# 
  1024  0011                     	;# 
  1025  0012                     	;# 
  1026  0013                     	;# 
  1027  0015                     	;# 
  1028  0016                     	;# 
  1029  0016                     	;# 
  1030  0017                     	;# 
  1031  0018                     	;# 
  1032  0019                     	;# 
  1033  001A                     	;# 
  1034  001B                     	;# 
  1035  001C                     	;# 
  1036  008C                     	;# 
  1037  008E                     	;# 
  1038  0091                     	;# 
  1039  0092                     	;# 
  1040  0093                     	;# 
  1041  0095                     	;# 
  1042  0096                     	;# 
  1043  0097                     	;# 
  1044  0098                     	;# 
  1045  0099                     	;# 
  1046  009A                     	;# 
  1047  009B                     	;# 
  1048  009B                     	;# 
  1049  009C                     	;# 
  1050  009D                     	;# 
  1051  009E                     	;# 
  1052  009F                     	;# 
  1053  010C                     	;# 
  1054  010E                     	;# 
  1055  0111                     	;# 
  1056  0112                     	;# 
  1057  0113                     	;# 
  1058  0114                     	;# 
  1059  0115                     	;# 
  1060  0116                     	;# 
  1061  0117                     	;# 
  1062  0118                     	;# 
  1063  0119                     	;# 
  1064  011C                     	;# 
  1065  018C                     	;# 
  1066  018E                     	;# 
  1067  0191                     	;# 
  1068  0191                     	;# 
  1069  0192                     	;# 
  1070  0193                     	;# 
  1071  0193                     	;# 
  1072  0194                     	;# 
  1073  0195                     	;# 
  1074  0196                     	;# 
  1075  0197                     	;# 
  1076  0199                     	;# 
  1077  0199                     	;# 
  1078  0199                     	;# 
  1079  019A                     	;# 
  1080  019A                     	;# 
  1081  019A                     	;# 
  1082  019B                     	;# 
  1083  019B                     	;# 
  1084  019B                     	;# 
  1085  019B                     	;# 
  1086  019B                     	;# 
  1087  019C                     	;# 
  1088  019C                     	;# 
  1089  019C                     	;# 
  1090  019D                     	;# 
  1091  019D                     	;# 
  1092  019D                     	;# 
  1093  019E                     	;# 
  1094  019E                     	;# 
  1095  019E                     	;# 
  1096  019F                     	;# 
  1097  019F                     	;# 
  1098  019F                     	;# 
  1099  019F                     	;# 
  1100  019F                     	;# 
  1101  020C                     	;# 
  1102  020E                     	;# 
  1103  0211                     	;# 
  1104  0211                     	;# 
  1105  0212                     	;# 
  1106  0212                     	;# 
  1107  0213                     	;# 
  1108  0213                     	;# 
  1109  0214                     	;# 
  1110  0214                     	;# 
  1111  0215                     	;# 
  1112  0215                     	;# 
  1113  0215                     	;# 
  1114  0215                     	;# 
  1115  0216                     	;# 
  1116  0216                     	;# 
  1117  0217                     	;# 
  1118  0217                     	;# 
  1119  028C                     	;# 
  1120  028E                     	;# 
  1121  0291                     	;# 
  1122  0291                     	;# 
  1123  0292                     	;# 
  1124  0293                     	;# 
  1125  0293                     	;# 
  1126  0298                     	;# 
  1127  0298                     	;# 
  1128  0299                     	;# 
  1129  029A                     	;# 
  1130  029A                     	;# 
  1131  029E                     	;# 
  1132  030C                     	;# 
  1133  030E                     	;# 
  1134  038C                     	;# 
  1135  038E                     	;# 
  1136  0391                     	;# 
  1137  0392                     	;# 
  1138  0393                     	;# 
  1139  0397                     	;# 
  1140  0398                     	;# 
  1141  0399                     	;# 
  1142  0415                     	;# 
  1143  0416                     	;# 
  1144  0417                     	;# 
  1145  041C                     	;# 
  1146  041D                     	;# 
  1147  041E                     	;# 
  1148  0511                     	;# 
  1149  0515                     	;# 
  1150  0617                     	;# 
  1151  0618                     	;# 
  1152  0619                     	;# 
  1153  0619                     	;# 
  1154  061A                     	;# 
  1155  061B                     	;# 
  1156  061C                     	;# 
  1157  061C                     	;# 
  1158  0691                     	;# 
  1159  0692                     	;# 
  1160  0693                     	;# 
  1161  0694                     	;# 
  1162  0695                     	;# 
  1163  0696                     	;# 
  1164  0697                     	;# 
  1165  0698                     	;# 
  1166  0699                     	;# 
  1167  069A                     	;# 
  1168  069B                     	;# 
  1169  069C                     	;# 
  1170  069D                     	;# 
  1171  069E                     	;# 
  1172  069F                     	;# 
  1173  0E0F                     	;# 
  1174  0E10                     	;# 
  1175  0E11                     	;# 
  1176  0E12                     	;# 
  1177  0E13                     	;# 
  1178  0E14                     	;# 
  1179  0E15                     	;# 
  1180  0E17                     	;# 
  1181  0E20                     	;# 
  1182  0E21                     	;# 
  1183  0E22                     	;# 
  1184  0E24                     	;# 
  1185  0E25                     	;# 
  1186  0E28                     	;# 
  1187  0E29                     	;# 
  1188  0E2A                     	;# 
  1189  0E2B                     	;# 
  1190  0E90                     	;# 
  1191  0E91                     	;# 
  1192  0E92                     	;# 
  1193  0E94                     	;# 
  1194  0E95                     	;# 
  1195  0EA0                     	;# 
  1196  0EA1                     	;# 
  1197  0EA2                     	;# 
  1198  0EA3                     	;# 
  1199  0EA4                     	;# 
  1200  0EA5                     	;# 
  1201  0F0F                     	;# 
  1202  0F10                     	;# 
  1203  0F11                     	;# 
  1204  0F12                     	;# 
  1205  0F13                     	;# 
  1206  0F14                     	;# 
  1207  0F15                     	;# 
  1208  0F16                     	;# 
  1209  0F17                     	;# 
  1210  0F18                     	;# 
  1211  0F19                     	;# 
  1212  0F1A                     	;# 
  1213  0F1B                     	;# 
  1214  0F1C                     	;# 
  1215  0F1D                     	;# 
  1216  0F1E                     	;# 
  1217  0F1F                     	;# 
  1218  0F20                     	;# 
  1219  0F21                     	;# 
  1220  0F22                     	;# 
  1221  0F23                     	;# 
  1222  0F24                     	;# 
  1223  0F25                     	;# 
  1224  0F26                     	;# 
  1225  0F27                     	;# 
  1226  0F28                     	;# 
  1227  0F29                     	;# 
  1228  0F2A                     	;# 
  1229  0F2B                     	;# 
  1230  0F2C                     	;# 
  1231  0F2D                     	;# 
  1232  0F9E                     	;# 
  1233  0FE4                     	;# 
  1234  0FE5                     	;# 
  1235  0FE6                     	;# 
  1236  0FE7                     	;# 
  1237  0FE8                     	;# 
  1238  0FE9                     	;# 
  1239  0FEA                     	;# 
  1240  0FEB                     	;# 
  1241  0FED                     	;# 
  1242  0FEE                     	;# 
  1243  0FEF                     	;# 
  1244  0000                     	;# 
  1245  0001                     	;# 
  1246  0002                     	;# 
  1247  0003                     	;# 
  1248  0004                     	;# 
  1249  0005                     	;# 
  1250  0006                     	;# 
  1251  0007                     	;# 
  1252  0008                     	;# 
  1253  0009                     	;# 
  1254  000A                     	;# 
  1255  000B                     	;# 
  1256  000C                     	;# 
  1257  000E                     	;# 
  1258  0011                     	;# 
  1259  0012                     	;# 
  1260  0013                     	;# 
  1261  0015                     	;# 
  1262  0016                     	;# 
  1263  0016                     	;# 
  1264  0017                     	;# 
  1265  0018                     	;# 
  1266  0019                     	;# 
  1267  001A                     	;# 
  1268  001B                     	;# 
  1269  001C                     	;# 
  1270  008C                     	;# 
  1271  008E                     	;# 
  1272  0091                     	;# 
  1273  0092                     	;# 
  1274  0093                     	;# 
  1275  0095                     	;# 
  1276  0096                     	;# 
  1277  0097                     	;# 
  1278  0098                     	;# 
  1279  0099                     	;# 
  1280  009A                     	;# 
  1281  009B                     	;# 
  1282  009B                     	;# 
  1283  009C                     	;# 
  1284  009D                     	;# 
  1285  009E                     	;# 
  1286  009F                     	;# 
  1287  010C                     	;# 
  1288  010E                     	;# 
  1289  0111                     	;# 
  1290  0112                     	;# 
  1291  0113                     	;# 
  1292  0114                     	;# 
  1293  0115                     	;# 
  1294  0116                     	;# 
  1295  0117                     	;# 
  1296  0118                     	;# 
  1297  0119                     	;# 
  1298  011C                     	;# 
  1299  018C                     	;# 
  1300  018E                     	;# 
  1301  0191                     	;# 
  1302  0191                     	;# 
  1303  0192                     	;# 
  1304  0193                     	;# 
  1305  0193                     	;# 
  1306  0194                     	;# 
  1307  0195                     	;# 
  1308  0196                     	;# 
  1309  0197                     	;# 
  1310  0199                     	;# 
  1311  0199                     	;# 
  1312  0199                     	;# 
  1313  019A                     	;# 
  1314  019A                     	;# 
  1315  019A                     	;# 
  1316  019B                     	;# 
  1317  019B                     	;# 
  1318  019B                     	;# 
  1319  019B                     	;# 
  1320  019B                     	;# 
  1321  019C                     	;# 
  1322  019C                     	;# 
  1323  019C                     	;# 
  1324  019D                     	;# 
  1325  019D                     	;# 
  1326  019D                     	;# 
  1327  019E                     	;# 
  1328  019E                     	;# 
  1329  019E                     	;# 
  1330  019F                     	;# 
  1331  019F                     	;# 
  1332  019F                     	;# 
  1333  019F                     	;# 
  1334  019F                     	;# 
  1335  020C                     	;# 
  1336  020E                     	;# 
  1337  0211                     	;# 
  1338  0211                     	;# 
  1339  0212                     	;# 
  1340  0212                     	;# 
  1341  0213                     	;# 
  1342  0213                     	;# 
  1343  0214                     	;# 
  1344  0214                     	;# 
  1345  0215                     	;# 
  1346  0215                     	;# 
  1347  0215                     	;# 
  1348  0215                     	;# 
  1349  0216                     	;# 
  1350  0216                     	;# 
  1351  0217                     	;# 
  1352  0217                     	;# 
  1353  028C                     	;# 
  1354  028E                     	;# 
  1355  0291                     	;# 
  1356  0291                     	;# 
  1357  0292                     	;# 
  1358  0293                     	;# 
  1359  0293                     	;# 
  1360  0298                     	;# 
  1361  0298                     	;# 
  1362  0299                     	;# 
  1363  029A                     	;# 
  1364  029A                     	;# 
  1365  029E                     	;# 
  1366  030C                     	;# 
  1367  030E                     	;# 
  1368  038C                     	;# 
  1369  038E                     	;# 
  1370  0391                     	;# 
  1371  0392                     	;# 
  1372  0393                     	;# 
  1373  0397                     	;# 
  1374  0398                     	;# 
  1375  0399                     	;# 
  1376  0415                     	;# 
  1377  0416                     	;# 
  1378  0417                     	;# 
  1379  041C                     	;# 
  1380  041D                     	;# 
  1381  041E                     	;# 
  1382  0511                     	;# 
  1383  0515                     	;# 
  1384  0617                     	;# 
  1385  0618                     	;# 
  1386  0619                     	;# 
  1387  0619                     	;# 
  1388  061A                     	;# 
  1389  061B                     	;# 
  1390  061C                     	;# 
  1391  061C                     	;# 
  1392  0691                     	;# 
  1393  0692                     	;# 
  1394  0693                     	;# 
  1395  0694                     	;# 
  1396  0695                     	;# 
  1397  0696                     	;# 
  1398  0697                     	;# 
  1399  0698                     	;# 
  1400  0699                     	;# 
  1401  069A                     	;# 
  1402  069B                     	;# 
  1403  069C                     	;# 
  1404  069D                     	;# 
  1405  069E                     	;# 
  1406  069F                     	;# 
  1407  0E0F                     	;# 
  1408  0E10                     	;# 
  1409  0E11                     	;# 
  1410  0E12                     	;# 
  1411  0E13                     	;# 
  1412  0E14                     	;# 
  1413  0E15                     	;# 
  1414  0E17                     	;# 
  1415  0E20                     	;# 
  1416  0E21                     	;# 
  1417  0E22                     	;# 
  1418  0E24                     	;# 
  1419  0E25                     	;# 
  1420  0E28                     	;# 
  1421  0E29                     	;# 
  1422  0E2A                     	;# 
  1423  0E2B                     	;# 
  1424  0E90                     	;# 
  1425  0E91                     	;# 
  1426  0E92                     	;# 
  1427  0E94                     	;# 
  1428  0E95                     	;# 
  1429  0EA0                     	;# 
  1430  0EA1                     	;# 
  1431  0EA2                     	;# 
  1432  0EA3                     	;# 
  1433  0EA4                     	;# 
  1434  0EA5                     	;# 
  1435  0F0F                     	;# 
  1436  0F10                     	;# 
  1437  0F11                     	;# 
  1438  0F12                     	;# 
  1439  0F13                     	;# 
  1440  0F14                     	;# 
  1441  0F15                     	;# 
  1442  0F16                     	;# 
  1443  0F17                     	;# 
  1444  0F18                     	;# 
  1445  0F19                     	;# 
  1446  0F1A                     	;# 
  1447  0F1B                     	;# 
  1448  0F1C                     	;# 
  1449  0F1D                     	;# 
  1450  0F1E                     	;# 
  1451  0F1F                     	;# 
  1452  0F20                     	;# 
  1453  0F21                     	;# 
  1454  0F22                     	;# 
  1455  0F23                     	;# 
  1456  0F24                     	;# 
  1457  0F25                     	;# 
  1458  0F26                     	;# 
  1459  0F27                     	;# 
  1460  0F28                     	;# 
  1461  0F29                     	;# 
  1462  0F2A                     	;# 
  1463  0F2B                     	;# 
  1464  0F2C                     	;# 
  1465  0F2D                     	;# 
  1466  0F9E                     	;# 
  1467  0FE4                     	;# 
  1468  0FE5                     	;# 
  1469  0FE6                     	;# 
  1470  0FE7                     	;# 
  1471  0FE8                     	;# 
  1472  0FE9                     	;# 
  1473  0FEA                     	;# 
  1474  0FEB                     	;# 
  1475  0FED                     	;# 
  1476  0FEE                     	;# 
  1477  0FEF                     	;# 
  1478  0000                     	;# 
  1479  0001                     	;# 
  1480  0002                     	;# 
  1481  0003                     	;# 
  1482  0004                     	;# 
  1483  0005                     	;# 
  1484  0006                     	;# 
  1485  0007                     	;# 
  1486  0008                     	;# 
  1487  0009                     	;# 
  1488  000A                     	;# 
  1489  000B                     	;# 
  1490  000C                     	;# 
  1491  000E                     	;# 
  1492  0011                     	;# 
  1493  0012                     	;# 
  1494  0013                     	;# 
  1495  0015                     	;# 
  1496  0016                     	;# 
  1497  0016                     	;# 
  1498  0017                     	;# 
  1499  0018                     	;# 
  1500  0019                     	;# 
  1501  001A                     	;# 
  1502  001B                     	;# 
  1503  001C                     	;# 
  1504  008C                     	;# 
  1505  008E                     	;# 
  1506  0091                     	;# 
  1507  0092                     	;# 
  1508  0093                     	;# 
  1509  0095                     	;# 
  1510  0096                     	;# 
  1511  0097                     	;# 
  1512  0098                     	;# 
  1513  0099                     	;# 
  1514  009A                     	;# 
  1515  009B                     	;# 
  1516  009B                     	;# 
  1517  009C                     	;# 
  1518  009D                     	;# 
  1519  009E                     	;# 
  1520  009F                     	;# 
  1521  010C                     	;# 
  1522  010E                     	;# 
  1523  0111                     	;# 
  1524  0112                     	;# 
  1525  0113                     	;# 
  1526  0114                     	;# 
  1527  0115                     	;# 
  1528  0116                     	;# 
  1529  0117                     	;# 
  1530  0118                     	;# 
  1531  0119                     	;# 
  1532  011C                     	;# 
  1533  018C                     	;# 
  1534  018E                     	;# 
  1535  0191                     	;# 
  1536  0191                     	;# 
  1537  0192                     	;# 
  1538  0193                     	;# 
  1539  0193                     	;# 
  1540  0194                     	;# 
  1541  0195                     	;# 
  1542  0196                     	;# 
  1543  0197                     	;# 
  1544  0199                     	;# 
  1545  0199                     	;# 
  1546  0199                     	;# 
  1547  019A                     	;# 
  1548  019A                     	;# 
  1549  019A                     	;# 
  1550  019B                     	;# 
  1551  019B                     	;# 
  1552  019B                     	;# 
  1553  019B                     	;# 
  1554  019B                     	;# 
  1555  019C                     	;# 
  1556  019C                     	;# 
  1557  019C                     	;# 
  1558  019D                     	;# 
  1559  019D                     	;# 
  1560  019D                     	;# 
  1561  019E                     	;# 
  1562  019E                     	;# 
  1563  019E                     	;# 
  1564  019F                     	;# 
  1565  019F                     	;# 
  1566  019F                     	;# 
  1567  019F                     	;# 
  1568  019F                     	;# 
  1569  020C                     	;# 
  1570  020E                     	;# 
  1571  0211                     	;# 
  1572  0211                     	;# 
  1573  0212                     	;# 
  1574  0212                     	;# 
  1575  0213                     	;# 
  1576  0213                     	;# 
  1577  0214                     	;# 
  1578  0214                     	;# 
  1579  0215                     	;# 
  1580  0215                     	;# 
  1581  0215                     	;# 
  1582  0215                     	;# 
  1583  0216                     	;# 
  1584  0216                     	;# 
  1585  0217                     	;# 
  1586  0217                     	;# 
  1587  028C                     	;# 
  1588  028E                     	;# 
  1589  0291                     	;# 
  1590  0291                     	;# 
  1591  0292                     	;# 
  1592  0293                     	;# 
  1593  0293                     	;# 
  1594  0298                     	;# 
  1595  0298                     	;# 
  1596  0299                     	;# 
  1597  029A                     	;# 
  1598  029A                     	;# 
  1599  029E                     	;# 
  1600  030C                     	;# 
  1601  030E                     	;# 
  1602  038C                     	;# 
  1603  038E                     	;# 
  1604  0391                     	;# 
  1605  0392                     	;# 
  1606  0393                     	;# 
  1607  0397                     	;# 
  1608  0398                     	;# 
  1609  0399                     	;# 
  1610  0415                     	;# 
  1611  0416                     	;# 
  1612  0417                     	;# 
  1613  041C                     	;# 
  1614  041D                     	;# 
  1615  041E                     	;# 
  1616  0511                     	;# 
  1617  0515                     	;# 
  1618  0617                     	;# 
  1619  0618                     	;# 
  1620  0619                     	;# 
  1621  0619                     	;# 
  1622  061A                     	;# 
  1623  061B                     	;# 
  1624  061C                     	;# 
  1625  061C                     	;# 
  1626  0691                     	;# 
  1627  0692                     	;# 
  1628  0693                     	;# 
  1629  0694                     	;# 
  1630  0695                     	;# 
  1631  0696                     	;# 
  1632  0697                     	;# 
  1633  0698                     	;# 
  1634  0699                     	;# 
  1635  069A                     	;# 
  1636  069B                     	;# 
  1637  069C                     	;# 
  1638  069D                     	;# 
  1639  069E                     	;# 
  1640  069F                     	;# 
  1641  0E0F                     	;# 
  1642  0E10                     	;# 
  1643  0E11                     	;# 
  1644  0E12                     	;# 
  1645  0E13                     	;# 
  1646  0E14                     	;# 
  1647  0E15                     	;# 
  1648  0E17                     	;# 
  1649  0E20                     	;# 
  1650  0E21                     	;# 
  1651  0E22                     	;# 
  1652  0E24                     	;# 
  1653  0E25                     	;# 
  1654  0E28                     	;# 
  1655  0E29                     	;# 
  1656  0E2A                     	;# 
  1657  0E2B                     	;# 
  1658  0E90                     	;# 
  1659  0E91                     	;# 
  1660  0E92                     	;# 
  1661  0E94                     	;# 
  1662  0E95                     	;# 
  1663  0EA0                     	;# 
  1664  0EA1                     	;# 
  1665  0EA2                     	;# 
  1666  0EA3                     	;# 
  1667  0EA4                     	;# 
  1668  0EA5                     	;# 
  1669  0F0F                     	;# 
  1670  0F10                     	;# 
  1671  0F11                     	;# 
  1672  0F12                     	;# 
  1673  0F13                     	;# 
  1674  0F14                     	;# 
  1675  0F15                     	;# 
  1676  0F16                     	;# 
  1677  0F17                     	;# 
  1678  0F18                     	;# 
  1679  0F19                     	;# 
  1680  0F1A                     	;# 
  1681  0F1B                     	;# 
  1682  0F1C                     	;# 
  1683  0F1D                     	;# 
  1684  0F1E                     	;# 
  1685  0F1F                     	;# 
  1686  0F20                     	;# 
  1687  0F21                     	;# 
  1688  0F22                     	;# 
  1689  0F23                     	;# 
  1690  0F24                     	;# 
  1691  0F25                     	;# 
  1692  0F26                     	;# 
  1693  0F27                     	;# 
  1694  0F28                     	;# 
  1695  0F29                     	;# 
  1696  0F2A                     	;# 
  1697  0F2B                     	;# 
  1698  0F2C                     	;# 
  1699  0F2D                     	;# 
  1700  0F9E                     	;# 
  1701  0FE4                     	;# 
  1702  0FE5                     	;# 
  1703  0FE6                     	;# 
  1704  0FE7                     	;# 
  1705  0FE8                     	;# 
  1706  0FE9                     	;# 
  1707  0FEA                     	;# 
  1708  0FEB                     	;# 
  1709  0FED                     	;# 
  1710  0FEE                     	;# 
  1711  0FEF                     	;# 
  1712  0000                     	;# 
  1713  0001                     	;# 
  1714  0002                     	;# 
  1715  0003                     	;# 
  1716  0004                     	;# 
  1717  0005                     	;# 
  1718  0006                     	;# 
  1719  0007                     	;# 
  1720  0008                     	;# 
  1721  0009                     	;# 
  1722  000A                     	;# 
  1723  000B                     	;# 
  1724  000C                     	;# 
  1725  000E                     	;# 
  1726  0011                     	;# 
  1727  0012                     	;# 
  1728  0013                     	;# 
  1729  0015                     	;# 
  1730  0016                     	;# 
  1731  0016                     	;# 
  1732  0017                     	;# 
  1733  0018                     	;# 
  1734  0019                     	;# 
  1735  001A                     	;# 
  1736  001B                     	;# 
  1737  001C                     	;# 
  1738  008C                     	;# 
  1739  008E                     	;# 
  1740  0091                     	;# 
  1741  0092                     	;# 
  1742  0093                     	;# 
  1743  0095                     	;# 
  1744  0096                     	;# 
  1745  0097                     	;# 
  1746  0098                     	;# 
  1747  0099                     	;# 
  1748  009A                     	;# 
  1749  009B                     	;# 
  1750  009B                     	;# 
  1751  009C                     	;# 
  1752  009D                     	;# 
  1753  009E                     	;# 
  1754  009F                     	;# 
  1755  010C                     	;# 
  1756  010E                     	;# 
  1757  0111                     	;# 
  1758  0112                     	;# 
  1759  0113                     	;# 
  1760  0114                     	;# 
  1761  0115                     	;# 
  1762  0116                     	;# 
  1763  0117                     	;# 
  1764  0118                     	;# 
  1765  0119                     	;# 
  1766  011C                     	;# 
  1767  018C                     	;# 
  1768  018E                     	;# 
  1769  0191                     	;# 
  1770  0191                     	;# 
  1771  0192                     	;# 
  1772  0193                     	;# 
  1773  0193                     	;# 
  1774  0194                     	;# 
  1775  0195                     	;# 
  1776  0196                     	;# 
  1777  0197                     	;# 
  1778  0199                     	;# 
  1779  0199                     	;# 
  1780  0199                     	;# 
  1781  019A                     	;# 
  1782  019A                     	;# 
  1783  019A                     	;# 
  1784  019B                     	;# 
  1785  019B                     	;# 
  1786  019B                     	;# 
  1787  019B                     	;# 
  1788  019B                     	;# 
  1789  019C                     	;# 
  1790  019C                     	;# 
  1791  019C                     	;# 
  1792  019D                     	;# 
  1793  019D                     	;# 
  1794  019D                     	;# 
  1795  019E                     	;# 
  1796  019E                     	;# 
  1797  019E                     	;# 
  1798  019F                     	;# 
  1799  019F                     	;# 
  1800  019F                     	;# 
  1801  019F                     	;# 
  1802  019F                     	;# 
  1803  020C                     	;# 
  1804  020E                     	;# 
  1805  0211                     	;# 
  1806  0211                     	;# 
  1807  0212                     	;# 
  1808  0212                     	;# 
  1809  0213                     	;# 
  1810  0213                     	;# 
  1811  0214                     	;# 
  1812  0214                     	;# 
  1813  0215                     	;# 
  1814  0215                     	;# 
  1815  0215                     	;# 
  1816  0215                     	;# 
  1817  0216                     	;# 
  1818  0216                     	;# 
  1819  0217                     	;# 
  1820  0217                     	;# 
  1821  028C                     	;# 
  1822  028E                     	;# 
  1823  0291                     	;# 
  1824  0291                     	;# 
  1825  0292                     	;# 
  1826  0293                     	;# 
  1827  0293                     	;# 
  1828  0298                     	;# 
  1829  0298                     	;# 
  1830  0299                     	;# 
  1831  029A                     	;# 
  1832  029A                     	;# 
  1833  029E                     	;# 
  1834  030C                     	;# 
  1835  030E                     	;# 
  1836  038C                     	;# 
  1837  038E                     	;# 
  1838  0391                     	;# 
  1839  0392                     	;# 
  1840  0393                     	;# 
  1841  0397                     	;# 
  1842  0398                     	;# 
  1843  0399                     	;# 
  1844  0415                     	;# 
  1845  0416                     	;# 
  1846  0417                     	;# 
  1847  041C                     	;# 
  1848  041D                     	;# 
  1849  041E                     	;# 
  1850  0511                     	;# 
  1851  0515                     	;# 
  1852  0617                     	;# 
  1853  0618                     	;# 
  1854  0619                     	;# 
  1855  0619                     	;# 
  1856  061A                     	;# 
  1857  061B                     	;# 
  1858  061C                     	;# 
  1859  061C                     	;# 
  1860  0691                     	;# 
  1861  0692                     	;# 
  1862  0693                     	;# 
  1863  0694                     	;# 
  1864  0695                     	;# 
  1865  0696                     	;# 
  1866  0697                     	;# 
  1867  0698                     	;# 
  1868  0699                     	;# 
  1869  069A                     	;# 
  1870  069B                     	;# 
  1871  069C                     	;# 
  1872  069D                     	;# 
  1873  069E                     	;# 
  1874  069F                     	;# 
  1875  0E0F                     	;# 
  1876  0E10                     	;# 
  1877  0E11                     	;# 
  1878  0E12                     	;# 
  1879  0E13                     	;# 
  1880  0E14                     	;# 
  1881  0E15                     	;# 
  1882  0E17                     	;# 
  1883  0E20                     	;# 
  1884  0E21                     	;# 
  1885  0E22                     	;# 
  1886  0E24                     	;# 
  1887  0E25                     	;# 
  1888  0E28                     	;# 
  1889  0E29                     	;# 
  1890  0E2A                     	;# 
  1891  0E2B                     	;# 
  1892  0E90                     	;# 
  1893  0E91                     	;# 
  1894  0E92                     	;# 
  1895  0E94                     	;# 
  1896  0E95                     	;# 
  1897  0EA0                     	;# 
  1898  0EA1                     	;# 
  1899  0EA2                     	;# 
  1900  0EA3                     	;# 
  1901  0EA4                     	;# 
  1902  0EA5                     	;# 
  1903  0F0F                     	;# 
  1904  0F10                     	;# 
  1905  0F11                     	;# 
  1906  0F12                     	;# 
  1907  0F13                     	;# 
  1908  0F14                     	;# 
  1909  0F15                     	;# 
  1910  0F16                     	;# 
  1911  0F17                     	;# 
  1912  0F18                     	;# 
  1913  0F19                     	;# 
  1914  0F1A                     	;# 
  1915  0F1B                     	;# 
  1916  0F1C                     	;# 
  1917  0F1D                     	;# 
  1918  0F1E                     	;# 
  1919  0F1F                     	;# 
  1920  0F20                     	;# 
  1921  0F21                     	;# 
  1922  0F22                     	;# 
  1923  0F23                     	;# 
  1924  0F24                     	;# 
  1925  0F25                     	;# 
  1926  0F26                     	;# 
  1927  0F27                     	;# 
  1928  0F28                     	;# 
  1929  0F29                     	;# 
  1930  0F2A                     	;# 
  1931  0F2B                     	;# 
  1932  0F2C                     	;# 
  1933  0F2D                     	;# 
  1934  0F9E                     	;# 
  1935  0FE4                     	;# 
  1936  0FE5                     	;# 
  1937  0FE6                     	;# 
  1938  0FE7                     	;# 
  1939  0FE8                     	;# 
  1940  0FE9                     	;# 
  1941  0FEA                     	;# 
  1942  0FEB                     	;# 
  1943  0FED                     	;# 
  1944  0FEE                     	;# 
  1945  0FEF                     	;# 
  1946                           
  1947                           	psect	nvBANK0
  1948  003D                     __pnvBANK0:
  1949  003D                     _EUSART_ErrorHandler:
  1950  003D                     	ds	2
  1951  003F                     _EUSART_OverrunErrorHandler:
  1952  003F                     	ds	2
  1953  0041                     _EUSART_FramingErrorHandler:
  1954  0041                     	ds	2
  1955  0043                     _EUSART_RxDefaultInterruptHandler:
  1956  0043                     	ds	2
  1957  0045                     _EUSART_TxDefaultInterruptHandler:
  1958  0045                     	ds	2
  1959  0047                     _eusartTxBufferRemaining:
  1960  0047                     	ds	1
  1961  000B                     _INTCONbits	set	11
  1962  001C                     _T2CONbits	set	28
  1963  001C                     _T2CON	set	28
  1964  0011                     _PIR1bits	set	17
  1965  001A                     _TMR2	set	26
  1966  001B                     _PR2	set	27
  1967  0091                     _PIE1bits	set	145
  1968  009D                     _ADCON0bits	set	157
  1969  009D                     _ADCON0	set	157
  1970  009C                     _ADRESH	set	156
  1971  009B                     _ADRESL	set	155
  1972  009F                     _ADCON2	set	159
  1973  009E                     _ADCON1	set	158
  1974  0097                     _WDTCON	set	151
  1975  0098                     _OSCTUNE	set	152
  1976  009A                     _OSCSTAT	set	154
  1977  0099                     _OSCCON	set	153
  1978  0095                     _OPTION_REGbits	set	149
  1979  008E                     _TRISC	set	142
  1980  008C                     _TRISA	set	140
  1981  0116                     _BORCON	set	278
  1982  010E                     _LATC	set	270
  1983  010C                     _LATA	set	268
  1984  019D                     _RCSTAbits	set	413
  1985  019E                     _TXSTAbits	set	414
  1986  0199                     _RC1REG	set	409
  1987  019D                     _RC1STAbits	set	413
  1988  019A                     _TX1REG	set	410
  1989  019E                     _TX1STAbits	set	414
  1990  019C                     _SP1BRGH	set	412
  1991  019B                     _SP1BRGL	set	411
  1992  019E                     _TX1STA	set	414
  1993  019D                     _RC1STA	set	413
  1994  019F                     _BAUD1CON	set	415
  1995  018C                     _ANSELA	set	396
  1996  018E                     _ANSELC	set	398
  1997  020E                     _WPUC	set	526
  1998  020C                     _WPUA	set	524
  1999  029E                     _CCPTMRSbits	set	670
  2000  0292                     _CCPR1H	set	658
  2001  0291                     _CCPR1L	set	657
  2002  0293                     _CCP1CON	set	659
  2003  028E                     _ODCONC	set	654
  2004  028C                     _ODCONA	set	652
  2005  030E                     _SLRCONC	set	782
  2006  030C                     _SLRCONA	set	780
  2007  038E                     _INLVLC	set	910
  2008  038C                     _INLVLA	set	908
  2009  0E24                     _RXPPS	set	3620
  2010  0EA4                     _RC4PPS	set	3748
  2011                           
  2012                           	psect	stringtext1
  2013  0188                     __pstringtext1:
  2014  0188                     STR_1:
  2015  0188  3448               	retlw	72	;'H'
  2016  0189  3465               	retlw	101	;'e'
  2017  018A  346C               	retlw	108	;'l'
  2018  018B  346C               	retlw	108	;'l'
  2019  018C  346F               	retlw	111	;'o'
  2020  018D  3420               	retlw	32	;' '
  2021  018E  3457               	retlw	87	;'W'
  2022  018F  346F               	retlw	111	;'o'
  2023  0190  3472               	retlw	114	;'r'
  2024  0191  346C               	retlw	108	;'l'
  2025  0192  3464               	retlw	100	;'d'
  2026  0193  3421               	retlw	33	;'!'
  2027  0194  340A               	retlw	10
  2028  0195  3400               	retlw	0
  2029                           
  2030                           	psect	stringtext2
  2031  0000                     __pstringtext2:
  2032                           
  2033                           	psect	cinit
  2034  002E                     start_initialization:	
  2035                           ; #config settings
  2036                           
  2037  002E                     __initialization:
  2038                           
  2039                           ; Clear objects allocated to COMMON
  2040  002E  01F9               	clrf	__pbssCOMMON& (0+127)
  2041  002F  01FA               	clrf	(__pbssCOMMON+1)& (0+127)
  2042  0030  01FB               	clrf	(__pbssCOMMON+2)& (0+127)
  2043                           
  2044                           ; Clear objects allocated to BANK0
  2045  0031  3020               	movlw	low __pbssBANK0
  2046  0032  0084               	movwf	4
  2047  0033  3000               	movlw	high __pbssBANK0
  2048  0034  0085               	movwf	5
  2049  0035  301D               	movlw	29
  2050  0036  3181  21B8  3180   	fcall	clear_ram0
  2051  0039                     end_of_initialization:	
  2052                           ;End of C runtime variable initialization code
  2053                           
  2054  0039                     __end_of__initialization:
  2055  0039  107E               	bcf	int$flags,0	;clear compiler interrupt flag (level 1)
  2056  003A  0020               	movlb	0
  2057  003B  3181  2976         	ljmp	_main	;jump to C main() function
  2058                           
  2059                           	psect	bssCOMMON
  2060  0079                     __pbssCOMMON:
  2061  0079                     _eusartRxTail:
  2062  0079                     	ds	1
  2063  007A                     _eusartRxHead:
  2064  007A                     	ds	1
  2065  007B                     _eusartTxHead:
  2066  007B                     	ds	1
  2067                           
  2068                           	psect	bssBANK0
  2069  0020                     __pbssBANK0:
  2070  0020                     _eusartRxStatusBuffer:
  2071  0020                     	ds	8
  2072  0028                     _eusartRxBuffer:
  2073  0028                     	ds	8
  2074  0030                     _eusartTxBuffer:
  2075  0030                     	ds	8
  2076  0038                     _ADC_InterruptHandler:
  2077  0038                     	ds	2
  2078  003A                     _eusartRxLastError:
  2079  003A                     	ds	1
  2080  003B                     _eusartRxCount:
  2081  003B                     	ds	1
  2082  003C                     _eusartTxTail:
  2083  003C                     	ds	1
  2084                           
  2085                           	psect	clrtext
  2086  01B8                     clear_ram0:	
  2087                           ;	Called with FSR0 containing the base address, and
  2088                           ;	WREG with the size to clear
  2089                           
  2090  01B8  0064               	clrwdt	;clear the watchdog before getting into this loop
  2091  01B9                     clrloop0:
  2092  01B9  0180               	clrf	0	;clear RAM location pointed to by FSR
  2093  01BA  3101               	addfsr 0,1
  2094  01BB  0B89               	decfsz	9,f	;Have we reached the end of clearing yet?
  2095  01BC  29B9               	goto	clrloop0	;have we reached the end yet?
  2096  01BD  3400               	retlw	0	;all done for this memory range, return
  2097                           
  2098                           	psect	cstackCOMMON
  2099  0070                     __pcstackCOMMON:
  2100  0070                     ?_OSCILLATOR_Initialize:
  2101  0070                     ?_WDT_Initialize:	
  2102                           ; 1 bytes @ 0x0
  2103                           
  2104  0070                     ?_ADC_Initialize:	
  2105                           ; 1 bytes @ 0x0
  2106                           
  2107  0070                     ?_EUSART_Initialize:	
  2108                           ; 1 bytes @ 0x0
  2109                           
  2110  0070                     ?_EUSART_Receive_ISR:	
  2111                           ; 1 bytes @ 0x0
  2112                           
  2113  0070                     ?_EUSART_Transmit_ISR:	
  2114                           ; 1 bytes @ 0x0
  2115                           
  2116  0070                     ??_EUSART_Transmit_ISR:	
  2117                           ; 1 bytes @ 0x0
  2118                           
  2119  0070                     ?_EUSART_DefaultFramingErrorHandler:	
  2120                           ; 1 bytes @ 0x0
  2121                           
  2122  0070                     ??_EUSART_DefaultFramingErrorHandler:	
  2123                           ; 1 bytes @ 0x0
  2124                           
  2125  0070                     ?_EUSART_DefaultOverrunErrorHandler:	
  2126                           ; 1 bytes @ 0x0
  2127                           
  2128  0070                     ??_EUSART_DefaultOverrunErrorHandler:	
  2129                           ; 1 bytes @ 0x0
  2130                           
  2131  0070                     ?_EUSART_DefaultErrorHandler:	
  2132                           ; 1 bytes @ 0x0
  2133                           
  2134  0070                     ?_EUSART_RxDataHandler:	
  2135                           ; 1 bytes @ 0x0
  2136                           
  2137  0070                     ??_EUSART_RxDataHandler:	
  2138                           ; 1 bytes @ 0x0
  2139                           
  2140  0070                     ?_PIN_MANAGER_Initialize:	
  2141                           ; 1 bytes @ 0x0
  2142                           
  2143  0070                     ?_PWM1_Initialize:	
  2144                           ; 1 bytes @ 0x0
  2145                           
  2146  0070                     ?_TMR2_Initialize:	
  2147                           ; 1 bytes @ 0x0
  2148                           
  2149  0070                     ?_SYSTEM_Initialize:	
  2150                           ; 1 bytes @ 0x0
  2151                           
  2152  0070                     ?_EUSART_Write:	
  2153                           ; 1 bytes @ 0x0
  2154                           
  2155  0070                     ?_putch:	
  2156                           ; 1 bytes @ 0x0
  2157                           
  2158  0070                     ?_INTERRUPT_InterruptManager:	
  2159                           ; 1 bytes @ 0x0
  2160                           
  2161  0070                     ?_main:	
  2162                           ; 1 bytes @ 0x0
  2163                           
  2164                           
  2165                           ; 1 bytes @ 0x0
  2166  0070                     	ds	1
  2167  0071                     ??_OSCILLATOR_Initialize:
  2168  0071                     ??_WDT_Initialize:	
  2169                           ; 1 bytes @ 0x1
  2170                           
  2171  0071                     ??_ADC_Initialize:	
  2172                           ; 1 bytes @ 0x1
  2173                           
  2174  0071                     ?_EUSART_SetRxInterruptHandler:	
  2175                           ; 1 bytes @ 0x1
  2176                           
  2177  0071                     ??_EUSART_Receive_ISR:	
  2178                           ; 1 bytes @ 0x1
  2179                           
  2180  0071                     ?_EUSART_SetTxInterruptHandler:	
  2181                           ; 1 bytes @ 0x1
  2182                           
  2183  0071                     ?_EUSART_SetFramingErrorHandler:	
  2184                           ; 1 bytes @ 0x1
  2185                           
  2186  0071                     ?_EUSART_SetOverrunErrorHandler:	
  2187                           ; 1 bytes @ 0x1
  2188                           
  2189  0071                     ?_EUSART_SetErrorHandler:	
  2190                           ; 1 bytes @ 0x1
  2191                           
  2192  0071                     ??_EUSART_DefaultErrorHandler:	
  2193                           ; 1 bytes @ 0x1
  2194                           
  2195  0071                     ??_PIN_MANAGER_Initialize:	
  2196                           ; 1 bytes @ 0x1
  2197                           
  2198  0071                     ??_PWM1_Initialize:	
  2199                           ; 1 bytes @ 0x1
  2200                           
  2201  0071                     ??_TMR2_Initialize:	
  2202                           ; 1 bytes @ 0x1
  2203                           
  2204  0071                     ??_EUSART_Write:	
  2205                           ; 1 bytes @ 0x1
  2206                           
  2207  0071                     ??_INTERRUPT_InterruptManager:	
  2208                           ; 1 bytes @ 0x1
  2209                           
  2210  0071                     EUSART_SetFramingErrorHandler@interruptHandler:	
  2211                           ; 1 bytes @ 0x1
  2212                           
  2213  0071                     EUSART_SetOverrunErrorHandler@interruptHandler:	
  2214                           ; 2 bytes @ 0x1
  2215                           
  2216  0071                     EUSART_SetErrorHandler@interruptHandler:	
  2217                           ; 2 bytes @ 0x1
  2218                           
  2219  0071                     EUSART_SetTxInterruptHandler@interruptHandler:	
  2220                           ; 2 bytes @ 0x1
  2221                           
  2222  0071                     EUSART_SetRxInterruptHandler@interruptHandler:	
  2223                           ; 2 bytes @ 0x1
  2224                           
  2225                           
  2226                           ; 2 bytes @ 0x1
  2227  0071                     	ds	1
  2228  0072                     EUSART_Write@txData:
  2229                           
  2230                           ; 1 bytes @ 0x2
  2231  0072                     	ds	1
  2232  0073                     ??_EUSART_Initialize:
  2233  0073                     ??_EUSART_SetRxInterruptHandler:	
  2234                           ; 1 bytes @ 0x3
  2235                           
  2236  0073                     ??_EUSART_SetTxInterruptHandler:	
  2237                           ; 1 bytes @ 0x3
  2238                           
  2239  0073                     ??_EUSART_SetFramingErrorHandler:	
  2240                           ; 1 bytes @ 0x3
  2241                           
  2242  0073                     ??_EUSART_SetOverrunErrorHandler:	
  2243                           ; 1 bytes @ 0x3
  2244                           
  2245  0073                     ??_EUSART_SetErrorHandler:	
  2246                           ; 1 bytes @ 0x3
  2247                           
  2248  0073                     ??_putch:	
  2249                           ; 1 bytes @ 0x3
  2250                           
  2251  0073                     putch@txData:	
  2252                           ; 1 bytes @ 0x3
  2253                           
  2254                           
  2255                           ; 1 bytes @ 0x3
  2256  0073                     	ds	1
  2257  0074                     ??_SYSTEM_Initialize:
  2258  0074                     ?_printf:	
  2259                           ; 1 bytes @ 0x4
  2260                           
  2261  0074                     printf@f:	
  2262                           ; 2 bytes @ 0x4
  2263                           
  2264                           
  2265                           ; 2 bytes @ 0x4
  2266  0074                     	ds	2
  2267  0076                     ??_printf:
  2268                           
  2269                           ; 1 bytes @ 0x6
  2270  0076                     	ds	3
  2271  0079                     ??_main:
  2272                           
  2273                           	psect	cstackBANK0
  2274  0048                     __pcstackBANK0:	
  2275                           ; 1 bytes @ 0x9
  2276                           
  2277  0048                     printf@ap:
  2278                           
  2279                           ; 1 bytes @ 0x0
  2280  0048                     	ds	1
  2281  0049                     printf@c:
  2282                           
  2283                           ; 1 bytes @ 0x1
  2284  0049                     	ds	1
  2285                           
  2286                           	psect	maintext
  2287  0176                     __pmaintext:	
  2288 ;;
  2289 ;;Main: autosize = 0, tempsize = 0, incstack = 0, save=0
  2290 ;;
  2291 ;; *************** function _main *****************
  2292 ;; Defined at:
  2293 ;;		line 50 in file "main.c"
  2294 ;; Parameters:    Size  Location     Type
  2295 ;;		None
  2296 ;; Auto vars:     Size  Location     Type
  2297 ;;		None
  2298 ;; Return value:  Size  Location     Type
  2299 ;;                  1    wreg      void 
  2300 ;; Registers used:
  2301 ;;		wreg, fsr0l, fsr0h, fsr1l, fsr1h, status,2, status,0, pclath, cstack
  2302 ;; Tracked objects:
  2303 ;;		On entry : B1F/0
  2304 ;;		On exit  : 0/0
  2305 ;;		Unchanged: 0/0
  2306 ;; Data sizes:     COMMON   BANK0   BANK1   BANK2   BANK3   BANK4   BANK5   BANK6   BANK7   BANK8   BANK9  BANK10  BANK1
      +1  BANK12
  2307 ;;      Params:         0       0       0       0       0       0       0       0       0       0       0       0       
      +0       0
  2308 ;;      Locals:         0       0       0       0       0       0       0       0       0       0       0       0       
      +0       0
  2309 ;;      Temps:          0       0       0       0       0       0       0       0       0       0       0       0       
      +0       0
  2310 ;;      Totals:         0       0       0       0       0       0       0       0       0       0       0       0       
      +0       0
  2311 ;;Total ram usage:        0 bytes
  2312 ;; Hardware stack levels required when called:    7
  2313 ;; This function calls:
  2314 ;;		_SYSTEM_Initialize
  2315 ;;		_printf
  2316 ;; This function is called by:
  2317 ;;		Startup code after reset
  2318 ;; This function uses a non-reentrant model
  2319 ;;
  2320                           
  2321                           
  2322                           ;psect for function _main
  2323  0176                     _main:
  2324  0176                     l1408:	
  2325                           ;incstack = 0
  2326                           ; Regs used in _main: [wreg-fsr1h+status,2+status,0+pclath+cstack]
  2327                           
  2328                           
  2329                           ;main.c: 52: TXSTAbits.TXEN = 1;
  2330  0176  0023               	movlb	3	; select bank3
  2331  0177  169E               	bsf	30,5	;volatile
  2332                           
  2333                           ;main.c: 53: RCSTAbits.SPEN = 1;
  2334  0178  179D               	bsf	29,7	;volatile
  2335  0179                     l1410:
  2336                           
  2337                           ;main.c: 56: SYSTEM_Initialize();
  2338  0179  3181  2160  3181   	fcall	_SYSTEM_Initialize
  2339  017C                     l1412:
  2340                           
  2341                           ;main.c: 63: (INTCONbits.GIE = 1);
  2342  017C  178B               	bsf	11,7	;volatile
  2343  017D                     l1414:
  2344                           
  2345                           ;main.c: 66: (INTCONbits.PEIE = 1);
  2346  017D  170B               	bsf	11,6	;volatile
  2347  017E                     l1416:
  2348                           
  2349                           ;main.c: 74: printf("Hello World!\n");
  2350  017E  3088               	movlw	low (STR_1| (0+32768))
  2351  017F  00F4               	movwf	printf@f
  2352  0180  3081               	movlw	high (STR_1| (0+32768))
  2353  0181  00F5               	movwf	printf@f+1
  2354  0182  3181  2126  3181   	fcall	_printf
  2355  0185                     l345:	
  2356                           ;main.c: 76: while (1)
  2357                           
  2358  0185                     l346:	
  2359                           ;main.c: 77: {
  2360                           
  2361  0185  2985               	goto	l345
  2362  0186  3180  282C         	ljmp	start
  2363  0188                     __end_of_main:
  2364                           
  2365                           	psect	text1
  2366  0126                     __ptext1:	
  2367 ;; *************** function _printf *****************
  2368 ;; Defined at:
  2369 ;;		line 477 in file "C:\Program Files\Microchip\xc8\v2.31\pic\sources\c90\common\doprnt.c"
  2370 ;; Parameters:    Size  Location     Type
  2371 ;;  f               2    4[COMMON] PTR const unsigned char 
  2372 ;;		 -> STR_1(14), 
  2373 ;; Auto vars:     Size  Location     Type
  2374 ;;  tmpval          4    0        struct .
  2375 ;;  cp              2    0        PTR const unsigned char 
  2376 ;;  len             2    0        unsigned int 
  2377 ;;  val             2    0        unsigned int 
  2378 ;;  c               1    1[BANK0 ] unsigned char 
  2379 ;;  ap              1    0[BANK0 ] PTR void [1]
  2380 ;;		 -> ?_printf(2), 
  2381 ;;  flag            1    0        unsigned char 
  2382 ;;  prec            1    0        char 
  2383 ;; Return value:  Size  Location     Type
  2384 ;;                  2    4[COMMON] int 
  2385 ;; Registers used:
  2386 ;;		wreg, fsr0l, fsr0h, fsr1l, fsr1h, status,2, status,0, pclath, cstack
  2387 ;; Tracked objects:
  2388 ;;		On entry : 0/0
  2389 ;;		On exit  : 0/0
  2390 ;;		Unchanged: 0/0
  2391 ;; Data sizes:     COMMON   BANK0   BANK1   BANK2   BANK3   BANK4   BANK5   BANK6   BANK7   BANK8   BANK9  BANK10  BANK1
      +1  BANK12
  2392 ;;      Params:         2       0       0       0       0       0       0       0       0       0       0       0       
      +0       0
  2393 ;;      Locals:         0       2       0       0       0       0       0       0       0       0       0       0       
      +0       0
  2394 ;;      Temps:          3       0       0       0       0       0       0       0       0       0       0       0       
      +0       0
  2395 ;;      Totals:         5       2       0       0       0       0       0       0       0       0       0       0       
      +0       0
  2396 ;;Total ram usage:        7 bytes
  2397 ;; Hardware stack levels used:    1
  2398 ;; Hardware stack levels required when called:    6
  2399 ;; This function calls:
  2400 ;;		_putch
  2401 ;; This function is called by:
  2402 ;;		_main
  2403 ;; This function uses a non-reentrant model
  2404 ;;
  2405                           
  2406                           
  2407                           ;psect for function _printf
  2408  0126                     _printf:
  2409  0126                     l1402:	
  2410                           ;incstack = 0
  2411                           ; Regs used in _printf: [wreg-fsr1h+status,2+status,0+pclath+cstack]
  2412                           
  2413                           
  2414                           ;doprnt.c: 479: va_list ap;;doprnt.c: 512: char c;;doprnt.c: 521: signed char prec;;dopr
      +                          nt.c: 525: unsigned char flag;;doprnt.c: 540: union {;doprnt.c: 541: unsigned long vd;;d
      +                          oprnt.c: 542: double integ;;doprnt.c: 543: } tmpval;;doprnt.c: 545: unsigned int val;;do
      +                          prnt.c: 546: unsigned len;;doprnt.c: 547: const char * cp;;doprnt.c: 550: *ap = __va_sta
      +                          rt();
  2415  0126  3076               	movlw	(low ((?_printf| 0+2)))& (0+255)
  2416  0127  00F6               	movwf	??_printf
  2417  0128  0876               	movf	??_printf,w
  2418  0129  0020               	movlb	0	; select bank0
  2419  012A  00C8               	movwf	printf@ap
  2420                           
  2421                           ;doprnt.c: 553: while((c = *f++)) {
  2422  012B  2930               	goto	l1406
  2423  012C                     l1404:
  2424                           
  2425                           ;doprnt.c: 557: {;doprnt.c: 558: (putch(c) );
  2426  012C  0849               	movf	printf@c,w
  2427  012D  3181  21BE  3181   	fcall	_putch
  2428  0130                     l1406:	
  2429                           ;doprnt.c: 559: continue;
  2430                           
  2431  0130  0875               	movf	printf@f+1,w
  2432  0131  00F7               	movwf	??_printf+1
  2433  0132  0874               	movf	printf@f,w
  2434  0133  00F6               	movwf	??_printf
  2435  0134  0AF4               	incf	printf@f,f
  2436  0135  1903               	skipnz
  2437  0136  0AF5               	incf	printf@f+1,f
  2438  0137  0876               	movf	??_printf,w
  2439  0138  0084               	movwf	4
  2440  0139  0877               	movf	??_printf+1,w
  2441  013A  0085               	movwf	5
  2442  013B  0800               	movf	0,w	;code access
  2443  013C  00F8               	movwf	??_printf+2
  2444  013D  0878               	movf	??_printf+2,w
  2445  013E  0020               	movlb	0	; select bank0
  2446  013F  00C9               	movwf	printf@c
  2447  0140  0849               	movf	printf@c,w
  2448  0141  1D03               	btfss	3,2
  2449  0142  2944               	goto	u411
  2450  0143  2945               	goto	u410
  2451  0144                     u411:
  2452  0144  292C               	goto	l1404
  2453  0145                     u410:
  2454  0145                     l422:
  2455  0145  0008               	return
  2456  0146                     __end_of_printf:
  2457                           
  2458                           	psect	text2
  2459  01BE                     __ptext2:	
  2460 ;; *************** function _putch *****************
  2461 ;; Defined at:
  2462 ;;		line 201 in file "mcc_generated_files/eusart.c"
  2463 ;; Parameters:    Size  Location     Type
  2464 ;;  txData          1    wreg     unsigned char 
  2465 ;; Auto vars:     Size  Location     Type
  2466 ;;  txData          1    3[COMMON] unsigned char 
  2467 ;; Return value:  Size  Location     Type
  2468 ;;                  1    wreg      void 
  2469 ;; Registers used:
  2470 ;;		wreg, fsr1l, fsr1h, status,2, status,0, pclath, cstack
  2471 ;; Tracked objects:
  2472 ;;		On entry : 0/0
  2473 ;;		On exit  : 0/0
  2474 ;;		Unchanged: 0/0
  2475 ;; Data sizes:     COMMON   BANK0   BANK1   BANK2   BANK3   BANK4   BANK5   BANK6   BANK7   BANK8   BANK9  BANK10  BANK1
      +1  BANK12
  2476 ;;      Params:         0       0       0       0       0       0       0       0       0       0       0       0       
      +0       0
  2477 ;;      Locals:         1       0       0       0       0       0       0       0       0       0       0       0       
      +0       0
  2478 ;;      Temps:          0       0       0       0       0       0       0       0       0       0       0       0       
      +0       0
  2479 ;;      Totals:         1       0       0       0       0       0       0       0       0       0       0       0       
      +0       0
  2480 ;;Total ram usage:        1 bytes
  2481 ;; Hardware stack levels used:    1
  2482 ;; Hardware stack levels required when called:    5
  2483 ;; This function calls:
  2484 ;;		_EUSART_Write
  2485 ;; This function is called by:
  2486 ;;		_printf
  2487 ;; This function uses a non-reentrant model
  2488 ;;
  2489                           
  2490                           
  2491                           ;psect for function _putch
  2492  01BE                     _putch:
  2493                           
  2494                           ;incstack = 0
  2495                           ; Regs used in _putch: [wreg+fsr1l+fsr1h+status,2+status,0+pclath+cstack]
  2496                           ;putch@txData stored from wreg
  2497  01BE  00F3               	movwf	putch@txData
  2498  01BF                     l1400:
  2499                           
  2500                           ;eusart.c: 203: EUSART_Write(txData);
  2501  01BF  0873               	movf	putch@txData,w
  2502  01C0  3180  20B5  3181   	fcall	_EUSART_Write
  2503  01C3                     l268:
  2504  01C3  0008               	return
  2505  01C4                     __end_of_putch:
  2506                           
  2507                           	psect	text3
  2508  00B5                     __ptext3:	
  2509 ;; *************** function _EUSART_Write *****************
  2510 ;; Defined at:
  2511 ;;		line 173 in file "mcc_generated_files/eusart.c"
  2512 ;; Parameters:    Size  Location     Type
  2513 ;;  txData          1    wreg     unsigned char 
  2514 ;; Auto vars:     Size  Location     Type
  2515 ;;  txData          1    2[COMMON] unsigned char 
  2516 ;; Return value:  Size  Location     Type
  2517 ;;                  1    wreg      void 
  2518 ;; Registers used:
  2519 ;;		wreg, fsr1l, fsr1h, status,2, status,0
  2520 ;; Tracked objects:
  2521 ;;		On entry : 0/0
  2522 ;;		On exit  : 0/0
  2523 ;;		Unchanged: 0/0
  2524 ;; Data sizes:     COMMON   BANK0   BANK1   BANK2   BANK3   BANK4   BANK5   BANK6   BANK7   BANK8   BANK9  BANK10  BANK1
      +1  BANK12
  2525 ;;      Params:         0       0       0       0       0       0       0       0       0       0       0       0       
      +0       0
  2526 ;;      Locals:         1       0       0       0       0       0       0       0       0       0       0       0       
      +0       0
  2527 ;;      Temps:          1       0       0       0       0       0       0       0       0       0       0       0       
      +0       0
  2528 ;;      Totals:         2       0       0       0       0       0       0       0       0       0       0       0       
      +0       0
  2529 ;;Total ram usage:        2 bytes
  2530 ;; Hardware stack levels used:    1
  2531 ;; Hardware stack levels required when called:    4
  2532 ;; This function calls:
  2533 ;;		Nothing
  2534 ;; This function is called by:
  2535 ;;		_putch
  2536 ;; This function uses a non-reentrant model
  2537 ;;
  2538                           
  2539                           
  2540                           ;psect for function _EUSART_Write
  2541  00B5                     _EUSART_Write:
  2542                           
  2543                           ;incstack = 0
  2544                           ; Regs used in _EUSART_Write: [wreg+fsr1l+fsr1h+status,2+status,0]
  2545                           ;EUSART_Write@txData stored from wreg
  2546  00B5  00F2               	movwf	EUSART_Write@txData
  2547  00B6                     l1382:
  2548  00B6                     l1384:	
  2549                           ;eusart.c: 175: while(0 == eusartTxBufferRemaining)
  2550                           
  2551  00B6  0020               	movlb	0	; select bank0
  2552  00B7  0847               	movf	_eusartTxBufferRemaining,w	;volatile
  2553  00B8  1903               	btfsc	3,2
  2554  00B9  28BB               	goto	u381
  2555  00BA  28BC               	goto	u380
  2556  00BB                     u381:
  2557  00BB  28B6               	goto	l1384
  2558  00BC                     u380:
  2559  00BC                     l258:
  2560                           
  2561                           ;eusart.c: 177: };eusart.c: 179: if(0 == PIE1bits.TXIE)
  2562  00BC  0021               	movlb	1	; select bank1
  2563  00BD  1A11               	btfsc	17,4	;volatile
  2564  00BE  28C0               	goto	u391
  2565  00BF  28C1               	goto	u390
  2566  00C0                     u391:
  2567  00C0  28C5               	goto	l259
  2568  00C1                     u390:
  2569  00C1                     l1386:
  2570                           
  2571                           ;eusart.c: 180: {;eusart.c: 181: TX1REG = txData;
  2572  00C1  0872               	movf	EUSART_Write@txData,w
  2573  00C2  0023               	movlb	3	; select bank3
  2574  00C3  009A               	movwf	26	;volatile
  2575                           
  2576                           ;eusart.c: 182: }
  2577  00C4  28DC               	goto	l1398
  2578  00C5                     l259:
  2579                           
  2580                           ;eusart.c: 183: else;eusart.c: 184: {;eusart.c: 185: PIE1bits.TXIE = 0;
  2581  00C5  1211               	bcf	17,4	;volatile
  2582  00C6                     l1388:
  2583                           
  2584                           ;eusart.c: 186: eusartTxBuffer[eusartTxHead++] = txData;
  2585  00C6  0872               	movf	EUSART_Write@txData,w
  2586  00C7  00F1               	movwf	??_EUSART_Write
  2587  00C8  087B               	movf	_eusartTxHead,w
  2588  00C9  3E30               	addlw	(low (_eusartTxBuffer| 0))& (0+255)
  2589  00CA  0086               	movwf	6
  2590  00CB  0187               	clrf	7
  2591  00CC  0871               	movf	??_EUSART_Write,w
  2592  00CD  0081               	movwf	1
  2593  00CE                     l1390:
  2594  00CE  3001               	movlw	1
  2595  00CF  00F1               	movwf	??_EUSART_Write
  2596  00D0  0871               	movf	??_EUSART_Write,w
  2597  00D1  07FB               	addwf	_eusartTxHead,f	;volatile
  2598  00D2                     l1392:
  2599                           
  2600                           ;eusart.c: 187: if(sizeof(eusartTxBuffer) <= eusartTxHead)
  2601  00D2  3008               	movlw	8
  2602  00D3  027B               	subwf	_eusartTxHead,w	;volatile
  2603  00D4  1C03               	skipc
  2604  00D5  28D7               	goto	u401
  2605  00D6  28D8               	goto	u400
  2606  00D7                     u401:
  2607  00D7  28D9               	goto	l1396
  2608  00D8                     u400:
  2609  00D8                     l1394:
  2610                           
  2611                           ;eusart.c: 188: {;eusart.c: 189: eusartTxHead = 0;
  2612  00D8  01FB               	clrf	_eusartTxHead	;volatile
  2613  00D9                     l1396:
  2614                           
  2615                           ;eusart.c: 190: };eusart.c: 191: eusartTxBufferRemaining--;
  2616  00D9  3001               	movlw	1
  2617  00DA  0020               	movlb	0	; select bank0
  2618  00DB  02C7               	subwf	_eusartTxBufferRemaining,f	;volatile
  2619  00DC                     l1398:
  2620                           
  2621                           ;eusart.c: 192: };eusart.c: 193: PIE1bits.TXIE = 1;
  2622  00DC  0021               	movlb	1	; select bank1
  2623  00DD  1611               	bsf	17,4	;volatile
  2624  00DE                     l262:
  2625  00DE  0008               	return
  2626  00DF                     __end_of_EUSART_Write:
  2627                           
  2628                           	psect	text4
  2629  0160                     __ptext4:	
  2630 ;; *************** function _SYSTEM_Initialize *****************
  2631 ;; Defined at:
  2632 ;;		line 50 in file "mcc_generated_files/mcc.c"
  2633 ;; Parameters:    Size  Location     Type
  2634 ;;		None
  2635 ;; Auto vars:     Size  Location     Type
  2636 ;;		None
  2637 ;; Return value:  Size  Location     Type
  2638 ;;                  1    wreg      void 
  2639 ;; Registers used:
  2640 ;;		wreg, status,2, status,0, pclath, cstack
  2641 ;; Tracked objects:
  2642 ;;		On entry : 0/0
  2643 ;;		On exit  : 0/0
  2644 ;;		Unchanged: 0/0
  2645 ;; Data sizes:     COMMON   BANK0   BANK1   BANK2   BANK3   BANK4   BANK5   BANK6   BANK7   BANK8   BANK9  BANK10  BANK1
      +1  BANK12
  2646 ;;      Params:         0       0       0       0       0       0       0       0       0       0       0       0       
      +0       0
  2647 ;;      Locals:         0       0       0       0       0       0       0       0       0       0       0       0       
      +0       0
  2648 ;;      Temps:          0       0       0       0       0       0       0       0       0       0       0       0       
      +0       0
  2649 ;;      Totals:         0       0       0       0       0       0       0       0       0       0       0       0       
      +0       0
  2650 ;;Total ram usage:        0 bytes
  2651 ;; Hardware stack levels used:    1
  2652 ;; Hardware stack levels required when called:    6
  2653 ;; This function calls:
  2654 ;;		_ADC_Initialize
  2655 ;;		_EUSART_Initialize
  2656 ;;		_OSCILLATOR_Initialize
  2657 ;;		_PIN_MANAGER_Initialize
  2658 ;;		_PWM1_Initialize
  2659 ;;		_TMR2_Initialize
  2660 ;;		_WDT_Initialize
  2661 ;; This function is called by:
  2662 ;;		_main
  2663 ;; This function uses a non-reentrant model
  2664 ;;
  2665                           
  2666                           
  2667                           ;psect for function _SYSTEM_Initialize
  2668  0160                     _SYSTEM_Initialize:
  2669  0160                     l1294:	
  2670                           ;incstack = 0
  2671                           ; Regs used in _SYSTEM_Initialize: [wreg+status,2+status,0+pclath+cstack]
  2672                           
  2673                           
  2674                           ;mcc.c: 53: PIN_MANAGER_Initialize();
  2675  0160  3180  20DF  3181   	fcall	_PIN_MANAGER_Initialize
  2676                           
  2677                           ;mcc.c: 54: OSCILLATOR_Initialize();
  2678  0163  3181  21B0  3181   	fcall	_OSCILLATOR_Initialize
  2679                           
  2680                           ;mcc.c: 55: WDT_Initialize();
  2681  0166  3181  21E2  3181   	fcall	_WDT_Initialize
  2682                           
  2683                           ;mcc.c: 56: PWM1_Initialize();
  2684  0169  3181  2196  3181   	fcall	_PWM1_Initialize
  2685                           
  2686                           ;mcc.c: 57: ADC_Initialize();
  2687  016C  3181  219F  3181   	fcall	_ADC_Initialize
  2688                           
  2689                           ;mcc.c: 58: TMR2_Initialize();
  2690  016F  3181  21A8  3181   	fcall	_TMR2_Initialize
  2691                           
  2692                           ;mcc.c: 59: EUSART_Initialize();
  2693  0172  3180  203D  3181   	fcall	_EUSART_Initialize
  2694  0175                     l113:
  2695  0175  0008               	return
  2696  0176                     __end_of_SYSTEM_Initialize:
  2697                           
  2698                           	psect	text5
  2699  01E2                     __ptext5:	
  2700 ;; *************** function _WDT_Initialize *****************
  2701 ;; Defined at:
  2702 ;;		line 74 in file "mcc_generated_files/mcc.c"
  2703 ;; Parameters:    Size  Location     Type
  2704 ;;		None
  2705 ;; Auto vars:     Size  Location     Type
  2706 ;;		None
  2707 ;; Return value:  Size  Location     Type
  2708 ;;                  1    wreg      void 
  2709 ;; Registers used:
  2710 ;;		wreg
  2711 ;; Tracked objects:
  2712 ;;		On entry : 0/0
  2713 ;;		On exit  : 0/0
  2714 ;;		Unchanged: 0/0
  2715 ;; Data sizes:     COMMON   BANK0   BANK1   BANK2   BANK3   BANK4   BANK5   BANK6   BANK7   BANK8   BANK9  BANK10  BANK1
      +1  BANK12
  2716 ;;      Params:         0       0       0       0       0       0       0       0       0       0       0       0       
      +0       0
  2717 ;;      Locals:         0       0       0       0       0       0       0       0       0       0       0       0       
      +0       0
  2718 ;;      Temps:          0       0       0       0       0       0       0       0       0       0       0       0       
      +0       0
  2719 ;;      Totals:         0       0       0       0       0       0       0       0       0       0       0       0       
      +0       0
  2720 ;;Total ram usage:        0 bytes
  2721 ;; Hardware stack levels used:    1
  2722 ;; Hardware stack levels required when called:    4
  2723 ;; This function calls:
  2724 ;;		Nothing
  2725 ;; This function is called by:
  2726 ;;		_SYSTEM_Initialize
  2727 ;; This function uses a non-reentrant model
  2728 ;;
  2729                           
  2730                           
  2731                           ;psect for function _WDT_Initialize
  2732  01E2                     _WDT_Initialize:
  2733  01E2                     l1022:	
  2734                           ;incstack = 0
  2735                           ; Regs used in _WDT_Initialize: [wreg]
  2736                           
  2737                           
  2738                           ;mcc.c: 77: WDTCON = 0x16;
  2739  01E2  3016               	movlw	22
  2740  01E3  0021               	movlb	1	; select bank1
  2741  01E4  0097               	movwf	23	;volatile
  2742  01E5                     l119:
  2743  01E5  0008               	return
  2744  01E6                     __end_of_WDT_Initialize:
  2745                           
  2746                           	psect	text6
  2747  01A8                     __ptext6:	
  2748 ;; *************** function _TMR2_Initialize *****************
  2749 ;; Defined at:
  2750 ;;		line 62 in file "mcc_generated_files/tmr2.c"
  2751 ;; Parameters:    Size  Location     Type
  2752 ;;		None
  2753 ;; Auto vars:     Size  Location     Type
  2754 ;;		None
  2755 ;; Return value:  Size  Location     Type
  2756 ;;                  1    wreg      void 
  2757 ;; Registers used:
  2758 ;;		wreg, status,2
  2759 ;; Tracked objects:
  2760 ;;		On entry : 0/0
  2761 ;;		On exit  : 0/0
  2762 ;;		Unchanged: 0/0
  2763 ;; Data sizes:     COMMON   BANK0   BANK1   BANK2   BANK3   BANK4   BANK5   BANK6   BANK7   BANK8   BANK9  BANK10  BANK1
      +1  BANK12
  2764 ;;      Params:         0       0       0       0       0       0       0       0       0       0       0       0       
      +0       0
  2765 ;;      Locals:         0       0       0       0       0       0       0       0       0       0       0       0       
      +0       0
  2766 ;;      Temps:          0       0       0       0       0       0       0       0       0       0       0       0       
      +0       0
  2767 ;;      Totals:         0       0       0       0       0       0       0       0       0       0       0       0       
      +0       0
  2768 ;;Total ram usage:        0 bytes
  2769 ;; Hardware stack levels used:    1
  2770 ;; Hardware stack levels required when called:    4
  2771 ;; This function calls:
  2772 ;;		Nothing
  2773 ;; This function is called by:
  2774 ;;		_SYSTEM_Initialize
  2775 ;; This function uses a non-reentrant model
  2776 ;;
  2777                           
  2778                           
  2779                           ;psect for function _TMR2_Initialize
  2780  01A8                     _TMR2_Initialize:
  2781  01A8                     l1006:	
  2782                           ;incstack = 0
  2783                           ; Regs used in _TMR2_Initialize: [wreg+status,2]
  2784                           
  2785                           
  2786                           ;tmr2.c: 67: PR2 = 0x7C;
  2787  01A8  307C               	movlw	124
  2788  01A9  0020               	movlb	0	; select bank0
  2789  01AA  009B               	movwf	27	;volatile
  2790  01AB                     l1008:
  2791                           
  2792                           ;tmr2.c: 70: TMR2 = 0x00;
  2793  01AB  019A               	clrf	26	;volatile
  2794  01AC                     l1010:
  2795                           
  2796                           ;tmr2.c: 73: PIR1bits.TMR2IF = 0;
  2797  01AC  1091               	bcf	17,1	;volatile
  2798  01AD                     l1012:
  2799                           
  2800                           ;tmr2.c: 76: T2CON = 0x7C;
  2801  01AD  307C               	movlw	124
  2802  01AE  009C               	movwf	28	;volatile
  2803  01AF                     l67:
  2804  01AF  0008               	return
  2805  01B0                     __end_of_TMR2_Initialize:
  2806                           
  2807                           	psect	text7
  2808  0196                     __ptext7:	
  2809 ;; *************** function _PWM1_Initialize *****************
  2810 ;; Defined at:
  2811 ;;		line 64 in file "mcc_generated_files/pwm1.c"
  2812 ;; Parameters:    Size  Location     Type
  2813 ;;		None
  2814 ;; Auto vars:     Size  Location     Type
  2815 ;;		None
  2816 ;; Return value:  Size  Location     Type
  2817 ;;                  1    wreg      void 
  2818 ;; Registers used:
  2819 ;;		wreg, status,2, status,0
  2820 ;; Tracked objects:
  2821 ;;		On entry : 0/0
  2822 ;;		On exit  : 0/0
  2823 ;;		Unchanged: 0/0
  2824 ;; Data sizes:     COMMON   BANK0   BANK1   BANK2   BANK3   BANK4   BANK5   BANK6   BANK7   BANK8   BANK9  BANK10  BANK1
      +1  BANK12
  2825 ;;      Params:         0       0       0       0       0       0       0       0       0       0       0       0       
      +0       0
  2826 ;;      Locals:         0       0       0       0       0       0       0       0       0       0       0       0       
      +0       0
  2827 ;;      Temps:          0       0       0       0       0       0       0       0       0       0       0       0       
      +0       0
  2828 ;;      Totals:         0       0       0       0       0       0       0       0       0       0       0       0       
      +0       0
  2829 ;;Total ram usage:        0 bytes
  2830 ;; Hardware stack levels used:    1
  2831 ;; Hardware stack levels required when called:    4
  2832 ;; This function calls:
  2833 ;;		Nothing
  2834 ;; This function is called by:
  2835 ;;		_SYSTEM_Initialize
  2836 ;; This function uses a non-reentrant model
  2837 ;;
  2838                           
  2839                           
  2840                           ;psect for function _PWM1_Initialize
  2841  0196                     _PWM1_Initialize:
  2842  0196                     l1000:	
  2843                           ;incstack = 0
  2844                           ; Regs used in _PWM1_Initialize: [wreg+status,2+status,0]
  2845                           
  2846                           
  2847                           ;pwm1.c: 69: CCP1CON = 0x1C;
  2848  0196  301C               	movlw	28
  2849  0197  0025               	movlb	5	; select bank5
  2850  0198  0093               	movwf	19	;volatile
  2851                           
  2852                           ;pwm1.c: 72: CCPR1L = 0x3E;
  2853  0199  303E               	movlw	62
  2854  019A  0091               	movwf	17	;volatile
  2855  019B                     l1002:
  2856                           
  2857                           ;pwm1.c: 75: CCPR1H = 0x00;
  2858  019B  0192               	clrf	18	;volatile
  2859  019C                     l1004:
  2860                           
  2861                           ;pwm1.c: 78: CCPTMRSbits.C1TSEL = 0x0;
  2862  019C  30FC               	movlw	-4
  2863  019D  059E               	andwf	30,f	;volatile
  2864  019E                     l51:
  2865  019E  0008               	return
  2866  019F                     __end_of_PWM1_Initialize:
  2867                           
  2868                           	psect	text8
  2869  00DF                     __ptext8:	
  2870 ;; *************** function _PIN_MANAGER_Initialize *****************
  2871 ;; Defined at:
  2872 ;;		line 55 in file "mcc_generated_files/pin_manager.c"
  2873 ;; Parameters:    Size  Location     Type
  2874 ;;		None
  2875 ;; Auto vars:     Size  Location     Type
  2876 ;;		None
  2877 ;; Return value:  Size  Location     Type
  2878 ;;                  1    wreg      void 
  2879 ;; Registers used:
  2880 ;;		wreg, status,2
  2881 ;; Tracked objects:
  2882 ;;		On entry : 0/0
  2883 ;;		On exit  : 0/0
  2884 ;;		Unchanged: 0/0
  2885 ;; Data sizes:     COMMON   BANK0   BANK1   BANK2   BANK3   BANK4   BANK5   BANK6   BANK7   BANK8   BANK9  BANK10  BANK1
      +1  BANK12
  2886 ;;      Params:         0       0       0       0       0       0       0       0       0       0       0       0       
      +0       0
  2887 ;;      Locals:         0       0       0       0       0       0       0       0       0       0       0       0       
      +0       0
  2888 ;;      Temps:          0       0       0       0       0       0       0       0       0       0       0       0       
      +0       0
  2889 ;;      Totals:         0       0       0       0       0       0       0       0       0       0       0       0       
      +0       0
  2890 ;;Total ram usage:        0 bytes
  2891 ;; Hardware stack levels used:    1
  2892 ;; Hardware stack levels required when called:    4
  2893 ;; This function calls:
  2894 ;;		Nothing
  2895 ;; This function is called by:
  2896 ;;		_SYSTEM_Initialize
  2897 ;; This function uses a non-reentrant model
  2898 ;;
  2899                           
  2900                           
  2901                           ;psect for function _PIN_MANAGER_Initialize
  2902  00DF                     _PIN_MANAGER_Initialize:
  2903  00DF                     l970:	
  2904                           ;incstack = 0
  2905                           ; Regs used in _PIN_MANAGER_Initialize: [wreg+status,2]
  2906                           
  2907                           
  2908                           ;pin_manager.c: 60: LATA = 0x00;
  2909  00DF  0022               	movlb	2	; select bank2
  2910  00E0  018C               	clrf	12	;volatile
  2911                           
  2912                           ;pin_manager.c: 61: LATC = 0x00;
  2913  00E1  018E               	clrf	14	;volatile
  2914  00E2                     l972:
  2915                           
  2916                           ;pin_manager.c: 66: TRISA = 0x07;
  2917  00E2  3007               	movlw	7
  2918  00E3  0021               	movlb	1	; select bank1
  2919  00E4  008C               	movwf	12	;volatile
  2920  00E5                     l974:
  2921                           
  2922                           ;pin_manager.c: 67: TRISC = 0x20;
  2923  00E5  3020               	movlw	32
  2924  00E6  008E               	movwf	14	;volatile
  2925                           
  2926                           ;pin_manager.c: 72: ANSELC = 0x00;
  2927  00E7  0023               	movlb	3	; select bank3
  2928  00E8  018E               	clrf	14	;volatile
  2929  00E9                     l976:
  2930                           
  2931                           ;pin_manager.c: 73: ANSELA = 0x07;
  2932  00E9  3007               	movlw	7
  2933  00EA  008C               	movwf	12	;volatile
  2934  00EB                     l978:
  2935                           
  2936                           ;pin_manager.c: 78: WPUA = 0x00;
  2937  00EB  0024               	movlb	4	; select bank4
  2938  00EC  018C               	clrf	12	;volatile
  2939  00ED                     l980:
  2940                           
  2941                           ;pin_manager.c: 79: WPUC = 0x00;
  2942  00ED  018E               	clrf	14	;volatile
  2943  00EE                     l982:
  2944                           
  2945                           ;pin_manager.c: 80: OPTION_REGbits.nWPUEN = 1;
  2946  00EE  0021               	movlb	1	; select bank1
  2947  00EF  1795               	bsf	21,7	;volatile
  2948  00F0                     l984:
  2949                           
  2950                           ;pin_manager.c: 85: ODCONA = 0x00;
  2951  00F0  0025               	movlb	5	; select bank5
  2952  00F1  018C               	clrf	12	;volatile
  2953  00F2                     l986:
  2954                           
  2955                           ;pin_manager.c: 86: ODCONC = 0x00;
  2956  00F2  018E               	clrf	14	;volatile
  2957  00F3                     l988:
  2958                           
  2959                           ;pin_manager.c: 91: SLRCONA = 0x37;
  2960  00F3  3037               	movlw	55
  2961  00F4  0026               	movlb	6	; select bank6
  2962  00F5  008C               	movwf	12	;volatile
  2963  00F6                     l990:
  2964                           
  2965                           ;pin_manager.c: 92: SLRCONC = 0x3F;
  2966  00F6  303F               	movlw	63
  2967  00F7  008E               	movwf	14	;volatile
  2968  00F8                     l992:
  2969                           
  2970                           ;pin_manager.c: 97: INLVLA = 0x3F;
  2971  00F8  303F               	movlw	63
  2972  00F9  0027               	movlb	7	; select bank7
  2973  00FA  008C               	movwf	12	;volatile
  2974  00FB                     l994:
  2975                           
  2976                           ;pin_manager.c: 98: INLVLC = 0x3F;
  2977  00FB  303F               	movlw	63
  2978  00FC  008E               	movwf	14	;volatile
  2979  00FD                     l996:
  2980                           
  2981                           ;pin_manager.c: 107: RXPPS = 0x15;
  2982  00FD  3015               	movlw	21
  2983  00FE  003C               	movlb	28	; select bank28
  2984  00FF  00A4               	movwf	36	;volatile
  2985  0100                     l998:
  2986                           
  2987                           ;pin_manager.c: 108: RC4PPS = 0x14;
  2988  0100  3014               	movlw	20
  2989  0101  003D               	movlb	29	; select bank29
  2990  0102  00A4               	movwf	36	;volatile
  2991  0103                     l37:
  2992  0103  0008               	return
  2993  0104                     __end_of_PIN_MANAGER_Initialize:
  2994                           
  2995                           	psect	text9
  2996  01B0                     __ptext9:	
  2997 ;; *************** function _OSCILLATOR_Initialize *****************
  2998 ;; Defined at:
  2999 ;;		line 62 in file "mcc_generated_files/mcc.c"
  3000 ;; Parameters:    Size  Location     Type
  3001 ;;		None
  3002 ;; Auto vars:     Size  Location     Type
  3003 ;;		None
  3004 ;; Return value:  Size  Location     Type
  3005 ;;                  1    wreg      void 
  3006 ;; Registers used:
  3007 ;;		wreg, status,2
  3008 ;; Tracked objects:
  3009 ;;		On entry : 0/0
  3010 ;;		On exit  : 0/0
  3011 ;;		Unchanged: 0/0
  3012 ;; Data sizes:     COMMON   BANK0   BANK1   BANK2   BANK3   BANK4   BANK5   BANK6   BANK7   BANK8   BANK9  BANK10  BANK1
      +1  BANK12
  3013 ;;      Params:         0       0       0       0       0       0       0       0       0       0       0       0       
      +0       0
  3014 ;;      Locals:         0       0       0       0       0       0       0       0       0       0       0       0       
      +0       0
  3015 ;;      Temps:          0       0       0       0       0       0       0       0       0       0       0       0       
      +0       0
  3016 ;;      Totals:         0       0       0       0       0       0       0       0       0       0       0       0       
      +0       0
  3017 ;;Total ram usage:        0 bytes
  3018 ;; Hardware stack levels used:    1
  3019 ;; Hardware stack levels required when called:    4
  3020 ;; This function calls:
  3021 ;;		Nothing
  3022 ;; This function is called by:
  3023 ;;		_SYSTEM_Initialize
  3024 ;; This function uses a non-reentrant model
  3025 ;;
  3026                           
  3027                           
  3028                           ;psect for function _OSCILLATOR_Initialize
  3029  01B0                     _OSCILLATOR_Initialize:
  3030  01B0                     l1014:	
  3031                           ;incstack = 0
  3032                           ; Regs used in _OSCILLATOR_Initialize: [wreg+status,2]
  3033                           
  3034                           
  3035                           ;mcc.c: 65: OSCCON = 0x70;
  3036  01B0  3070               	movlw	112
  3037  01B1  0021               	movlb	1	; select bank1
  3038  01B2  0099               	movwf	25	;volatile
  3039  01B3                     l1016:
  3040                           
  3041                           ;mcc.c: 67: OSCSTAT = 0x00;
  3042  01B3  019A               	clrf	26	;volatile
  3043  01B4                     l1018:
  3044                           
  3045                           ;mcc.c: 69: OSCTUNE = 0x00;
  3046  01B4  0198               	clrf	24	;volatile
  3047  01B5                     l1020:
  3048                           
  3049                           ;mcc.c: 71: BORCON = 0x00;
  3050  01B5  0022               	movlb	2	; select bank2
  3051  01B6  0196               	clrf	22	;volatile
  3052  01B7                     l116:
  3053  01B7  0008               	return
  3054  01B8                     __end_of_OSCILLATOR_Initialize:
  3055                           
  3056                           	psect	text10
  3057  003D                     __ptext10:	
  3058 ;; *************** function _EUSART_Initialize *****************
  3059 ;; Defined at:
  3060 ;;		line 88 in file "mcc_generated_files/eusart.c"
  3061 ;; Parameters:    Size  Location     Type
  3062 ;;		None
  3063 ;; Auto vars:     Size  Location     Type
  3064 ;;		None
  3065 ;; Return value:  Size  Location     Type
  3066 ;;                  1    wreg      void 
  3067 ;; Registers used:
  3068 ;;		wreg, status,2, status,0, pclath, cstack
  3069 ;; Tracked objects:
  3070 ;;		On entry : 0/0
  3071 ;;		On exit  : 0/0
  3072 ;;		Unchanged: 0/0
  3073 ;; Data sizes:     COMMON   BANK0   BANK1   BANK2   BANK3   BANK4   BANK5   BANK6   BANK7   BANK8   BANK9  BANK10  BANK1
      +1  BANK12
  3074 ;;      Params:         0       0       0       0       0       0       0       0       0       0       0       0       
      +0       0
  3075 ;;      Locals:         0       0       0       0       0       0       0       0       0       0       0       0       
      +0       0
  3076 ;;      Temps:          1       0       0       0       0       0       0       0       0       0       0       0       
      +0       0
  3077 ;;      Totals:         1       0       0       0       0       0       0       0       0       0       0       0       
      +0       0
  3078 ;;Total ram usage:        1 bytes
  3079 ;; Hardware stack levels used:    1
  3080 ;; Hardware stack levels required when called:    5
  3081 ;; This function calls:
  3082 ;;		_EUSART_SetErrorHandler
  3083 ;;		_EUSART_SetFramingErrorHandler
  3084 ;;		_EUSART_SetOverrunErrorHandler
  3085 ;;		_EUSART_SetRxInterruptHandler
  3086 ;;		_EUSART_SetTxInterruptHandler
  3087 ;; This function is called by:
  3088 ;;		_SYSTEM_Initialize
  3089 ;; This function uses a non-reentrant model
  3090 ;;
  3091                           
  3092                           
  3093                           ;psect for function _EUSART_Initialize
  3094  003D                     _EUSART_Initialize:
  3095  003D                     l1256:	
  3096                           ;incstack = 0
  3097                           ; Regs used in _EUSART_Initialize: [wreg+status,2+status,0+pclath+cstack]
  3098                           
  3099                           
  3100                           ;eusart.c: 91: PIE1bits.RCIE = 0;
  3101  003D  0021               	movlb	1	; select bank1
  3102  003E  1291               	bcf	17,5	;volatile
  3103  003F                     l1258:
  3104                           
  3105                           ;eusart.c: 92: EUSART_SetRxInterruptHandler(EUSART_Receive_ISR);
  3106  003F  307C               	movlw	low _EUSART_Receive_ISR
  3107  0040  00F1               	movwf	EUSART_SetRxInterruptHandler@interruptHandler
  3108  0041  3000               	movlw	high _EUSART_Receive_ISR
  3109  0042  00F2               	movwf	EUSART_SetRxInterruptHandler@interruptHandler+1
  3110  0043  3181  21CA  3180   	fcall	_EUSART_SetRxInterruptHandler
  3111  0046                     l1260:
  3112                           
  3113                           ;eusart.c: 93: PIE1bits.TXIE = 0;
  3114  0046  0021               	movlb	1	; select bank1
  3115  0047  1211               	bcf	17,4	;volatile
  3116                           
  3117                           ;eusart.c: 94: EUSART_SetTxInterruptHandler(EUSART_Transmit_ISR);
  3118  0048  3004               	movlw	low _EUSART_Transmit_ISR
  3119  0049  00F1               	movwf	EUSART_SetTxInterruptHandler@interruptHandler
  3120  004A  3001               	movlw	high _EUSART_Transmit_ISR
  3121  004B  00F2               	movwf	EUSART_SetTxInterruptHandler@interruptHandler+1
  3122  004C  3181  21C4  3180   	fcall	_EUSART_SetTxInterruptHandler
  3123  004F                     l1262:
  3124                           
  3125                           ;eusart.c: 98: BAUD1CON = 0x08;
  3126  004F  3008               	movlw	8
  3127  0050  0023               	movlb	3	; select bank3
  3128  0051  009F               	movwf	31	;volatile
  3129  0052                     l1264:
  3130                           
  3131                           ;eusart.c: 101: RC1STA = 0x90;
  3132  0052  3090               	movlw	144
  3133  0053  009D               	movwf	29	;volatile
  3134  0054                     l1266:
  3135                           
  3136                           ;eusart.c: 104: TX1STA = 0x24;
  3137  0054  3024               	movlw	36
  3138  0055  009E               	movwf	30	;volatile
  3139  0056                     l1268:
  3140                           
  3141                           ;eusart.c: 107: SP1BRGL = 0xCF;
  3142  0056  30CF               	movlw	207
  3143  0057  009B               	movwf	27	;volatile
  3144  0058                     l1270:
  3145                           
  3146                           ;eusart.c: 110: SP1BRGH = 0x00;
  3147  0058  019C               	clrf	28	;volatile
  3148  0059                     l1272:
  3149                           
  3150                           ;eusart.c: 113: EUSART_SetFramingErrorHandler(EUSART_DefaultFramingErrorHandler);
  3151  0059  30EE               	movlw	low _EUSART_DefaultFramingErrorHandler
  3152  005A  00F1               	movwf	EUSART_SetFramingErrorHandler@interruptHandler
  3153  005B  3001               	movlw	high _EUSART_DefaultFramingErrorHandler
  3154  005C  00F2               	movwf	EUSART_SetFramingErrorHandler@interruptHandler+1
  3155  005D  3181  21D6  3180   	fcall	_EUSART_SetFramingErrorHandler
  3156  0060                     l1274:
  3157                           
  3158                           ;eusart.c: 114: EUSART_SetOverrunErrorHandler(EUSART_DefaultOverrunErrorHandler);
  3159  0060  30E6               	movlw	low _EUSART_DefaultOverrunErrorHandler
  3160  0061  00F1               	movwf	EUSART_SetOverrunErrorHandler@interruptHandler
  3161  0062  3001               	movlw	high _EUSART_DefaultOverrunErrorHandler
  3162  0063  00F2               	movwf	EUSART_SetOverrunErrorHandler@interruptHandler+1
  3163  0064  3181  21D0  3180   	fcall	_EUSART_SetOverrunErrorHandler
  3164  0067                     l1276:
  3165                           
  3166                           ;eusart.c: 115: EUSART_SetErrorHandler(EUSART_DefaultErrorHandler);
  3167  0067  30EA               	movlw	low _EUSART_DefaultErrorHandler
  3168  0068  00F1               	movwf	EUSART_SetErrorHandler@interruptHandler
  3169  0069  3001               	movlw	high _EUSART_DefaultErrorHandler
  3170  006A  00F2               	movwf	EUSART_SetErrorHandler@interruptHandler+1
  3171  006B  3181  21DC  3180   	fcall	_EUSART_SetErrorHandler
  3172                           
  3173                           ;eusart.c: 117: eusartRxLastError.status = 0;
  3174  006E  0020               	movlb	0	; select bank0
  3175  006F  01BA               	clrf	_eusartRxLastError	;volatile
  3176                           
  3177                           ;eusart.c: 120: eusartTxHead = 0;
  3178  0070  01FB               	clrf	_eusartTxHead	;volatile
  3179                           
  3180                           ;eusart.c: 121: eusartTxTail = 0;
  3181  0071  01BC               	clrf	_eusartTxTail	;volatile
  3182  0072                     l1278:
  3183                           
  3184                           ;eusart.c: 122: eusartTxBufferRemaining = sizeof(eusartTxBuffer);
  3185  0072  3008               	movlw	8
  3186  0073  00F3               	movwf	??_EUSART_Initialize
  3187  0074  0873               	movf	??_EUSART_Initialize,w
  3188  0075  00C7               	movwf	_eusartTxBufferRemaining	;volatile
  3189  0076                     l1280:
  3190                           
  3191                           ;eusart.c: 124: eusartRxHead = 0;
  3192  0076  01FA               	clrf	_eusartRxHead	;volatile
  3193  0077                     l1282:
  3194                           
  3195                           ;eusart.c: 125: eusartRxTail = 0;
  3196  0077  01F9               	clrf	_eusartRxTail	;volatile
  3197  0078                     l1284:
  3198                           
  3199                           ;eusart.c: 126: eusartRxCount = 0;
  3200  0078  01BB               	clrf	_eusartRxCount	;volatile
  3201  0079                     l1286:
  3202                           
  3203                           ;eusart.c: 129: PIE1bits.RCIE = 1;
  3204  0079  0021               	movlb	1	; select bank1
  3205  007A  1691               	bsf	17,5	;volatile
  3206  007B                     l234:
  3207  007B  0008               	return
  3208  007C                     __end_of_EUSART_Initialize:
  3209                           
  3210                           	psect	text11
  3211  01C4                     __ptext11:	
  3212 ;; *************** function _EUSART_SetTxInterruptHandler *****************
  3213 ;; Defined at:
  3214 ;;		line 285 in file "mcc_generated_files/eusart.c"
  3215 ;; Parameters:    Size  Location     Type
  3216 ;;  interruptHan    2    1[COMMON] PTR FTN()void 
  3217 ;;		 -> EUSART_Transmit_ISR(1), 
  3218 ;; Auto vars:     Size  Location     Type
  3219 ;;		None
  3220 ;; Return value:  Size  Location     Type
  3221 ;;                  1    wreg      void 
  3222 ;; Registers used:
  3223 ;;		wreg
  3224 ;; Tracked objects:
  3225 ;;		On entry : 0/0
  3226 ;;		On exit  : 0/0
  3227 ;;		Unchanged: 0/0
  3228 ;; Data sizes:     COMMON   BANK0   BANK1   BANK2   BANK3   BANK4   BANK5   BANK6   BANK7   BANK8   BANK9  BANK10  BANK1
      +1  BANK12
  3229 ;;      Params:         2       0       0       0       0       0       0       0       0       0       0       0       
      +0       0
  3230 ;;      Locals:         0       0       0       0       0       0       0       0       0       0       0       0       
      +0       0
  3231 ;;      Temps:          0       0       0       0       0       0       0       0       0       0       0       0       
      +0       0
  3232 ;;      Totals:         2       0       0       0       0       0       0       0       0       0       0       0       
      +0       0
  3233 ;;Total ram usage:        2 bytes
  3234 ;; Hardware stack levels used:    1
  3235 ;; Hardware stack levels required when called:    4
  3236 ;; This function calls:
  3237 ;;		Nothing
  3238 ;; This function is called by:
  3239 ;;		_EUSART_Initialize
  3240 ;; This function uses a non-reentrant model
  3241 ;;
  3242                           
  3243                           
  3244                           ;psect for function _EUSART_SetTxInterruptHandler
  3245  01C4                     _EUSART_SetTxInterruptHandler:
  3246  01C4                     l1220:	
  3247                           ;incstack = 0
  3248                           ; Regs used in _EUSART_SetTxInterruptHandler: [wreg]
  3249                           
  3250                           
  3251                           ;eusart.c: 286: EUSART_TxDefaultInterruptHandler = interruptHandler;
  3252  01C4  0872               	movf	EUSART_SetTxInterruptHandler@interruptHandler+1,w
  3253  01C5  0020               	movlb	0	; select bank0
  3254  01C6  00C6               	movwf	_EUSART_TxDefaultInterruptHandler+1
  3255  01C7  0871               	movf	EUSART_SetTxInterruptHandler@interruptHandler,w
  3256  01C8  00C5               	movwf	_EUSART_TxDefaultInterruptHandler
  3257  01C9                     l306:
  3258  01C9  0008               	return
  3259  01CA                     __end_of_EUSART_SetTxInterruptHandler:
  3260                           
  3261                           	psect	text12
  3262  01CA                     __ptext12:	
  3263 ;; *************** function _EUSART_SetRxInterruptHandler *****************
  3264 ;; Defined at:
  3265 ;;		line 289 in file "mcc_generated_files/eusart.c"
  3266 ;; Parameters:    Size  Location     Type
  3267 ;;  interruptHan    2    1[COMMON] PTR FTN()void 
  3268 ;;		 -> EUSART_Receive_ISR(1), 
  3269 ;; Auto vars:     Size  Location     Type
  3270 ;;		None
  3271 ;; Return value:  Size  Location     Type
  3272 ;;                  1    wreg      void 
  3273 ;; Registers used:
  3274 ;;		wreg
  3275 ;; Tracked objects:
  3276 ;;		On entry : 0/0
  3277 ;;		On exit  : 0/0
  3278 ;;		Unchanged: 0/0
  3279 ;; Data sizes:     COMMON   BANK0   BANK1   BANK2   BANK3   BANK4   BANK5   BANK6   BANK7   BANK8   BANK9  BANK10  BANK1
      +1  BANK12
  3280 ;;      Params:         2       0       0       0       0       0       0       0       0       0       0       0       
      +0       0
  3281 ;;      Locals:         0       0       0       0       0       0       0       0       0       0       0       0       
      +0       0
  3282 ;;      Temps:          0       0       0       0       0       0       0       0       0       0       0       0       
      +0       0
  3283 ;;      Totals:         2       0       0       0       0       0       0       0       0       0       0       0       
      +0       0
  3284 ;;Total ram usage:        2 bytes
  3285 ;; Hardware stack levels used:    1
  3286 ;; Hardware stack levels required when called:    4
  3287 ;; This function calls:
  3288 ;;		Nothing
  3289 ;; This function is called by:
  3290 ;;		_EUSART_Initialize
  3291 ;; This function uses a non-reentrant model
  3292 ;;
  3293                           
  3294                           
  3295                           ;psect for function _EUSART_SetRxInterruptHandler
  3296  01CA                     _EUSART_SetRxInterruptHandler:
  3297  01CA                     l1218:	
  3298                           ;incstack = 0
  3299                           ; Regs used in _EUSART_SetRxInterruptHandler: [wreg]
  3300                           
  3301                           
  3302                           ;eusart.c: 290: EUSART_RxDefaultInterruptHandler = interruptHandler;
  3303  01CA  0872               	movf	EUSART_SetRxInterruptHandler@interruptHandler+1,w
  3304  01CB  0020               	movlb	0	; select bank0
  3305  01CC  00C4               	movwf	_EUSART_RxDefaultInterruptHandler+1
  3306  01CD  0871               	movf	EUSART_SetRxInterruptHandler@interruptHandler,w
  3307  01CE  00C3               	movwf	_EUSART_RxDefaultInterruptHandler
  3308  01CF                     l309:
  3309  01CF  0008               	return
  3310  01D0                     __end_of_EUSART_SetRxInterruptHandler:
  3311                           
  3312                           	psect	text13
  3313  01D0                     __ptext13:	
  3314 ;; *************** function _EUSART_SetOverrunErrorHandler *****************
  3315 ;; Defined at:
  3316 ;;		line 277 in file "mcc_generated_files/eusart.c"
  3317 ;; Parameters:    Size  Location     Type
  3318 ;;  interruptHan    2    1[COMMON] PTR FTN()void 
  3319 ;;		 -> EUSART_DefaultOverrunErrorHandler(1), 
  3320 ;; Auto vars:     Size  Location     Type
  3321 ;;		None
  3322 ;; Return value:  Size  Location     Type
  3323 ;;                  1    wreg      void 
  3324 ;; Registers used:
  3325 ;;		wreg
  3326 ;; Tracked objects:
  3327 ;;		On entry : 0/0
  3328 ;;		On exit  : 0/0
  3329 ;;		Unchanged: 0/0
  3330 ;; Data sizes:     COMMON   BANK0   BANK1   BANK2   BANK3   BANK4   BANK5   BANK6   BANK7   BANK8   BANK9  BANK10  BANK1
      +1  BANK12
  3331 ;;      Params:         2       0       0       0       0       0       0       0       0       0       0       0       
      +0       0
  3332 ;;      Locals:         0       0       0       0       0       0       0       0       0       0       0       0       
      +0       0
  3333 ;;      Temps:          0       0       0       0       0       0       0       0       0       0       0       0       
      +0       0
  3334 ;;      Totals:         2       0       0       0       0       0       0       0       0       0       0       0       
      +0       0
  3335 ;;Total ram usage:        2 bytes
  3336 ;; Hardware stack levels used:    1
  3337 ;; Hardware stack levels required when called:    4
  3338 ;; This function calls:
  3339 ;;		Nothing
  3340 ;; This function is called by:
  3341 ;;		_EUSART_Initialize
  3342 ;; This function uses a non-reentrant model
  3343 ;;
  3344                           
  3345                           
  3346                           ;psect for function _EUSART_SetOverrunErrorHandler
  3347  01D0                     _EUSART_SetOverrunErrorHandler:
  3348  01D0                     l1224:	
  3349                           ;incstack = 0
  3350                           ; Regs used in _EUSART_SetOverrunErrorHandler: [wreg]
  3351                           
  3352                           
  3353                           ;eusart.c: 278: EUSART_OverrunErrorHandler = interruptHandler;
  3354  01D0  0872               	movf	EUSART_SetOverrunErrorHandler@interruptHandler+1,w
  3355  01D1  0020               	movlb	0	; select bank0
  3356  01D2  00C0               	movwf	_EUSART_OverrunErrorHandler+1
  3357  01D3  0871               	movf	EUSART_SetOverrunErrorHandler@interruptHandler,w
  3358  01D4  00BF               	movwf	_EUSART_OverrunErrorHandler
  3359  01D5                     l300:
  3360  01D5  0008               	return
  3361  01D6                     __end_of_EUSART_SetOverrunErrorHandler:
  3362                           
  3363                           	psect	text14
  3364  01D6                     __ptext14:	
  3365 ;; *************** function _EUSART_SetFramingErrorHandler *****************
  3366 ;; Defined at:
  3367 ;;		line 273 in file "mcc_generated_files/eusart.c"
  3368 ;; Parameters:    Size  Location     Type
  3369 ;;  interruptHan    2    1[COMMON] PTR FTN()void 
  3370 ;;		 -> EUSART_DefaultFramingErrorHandler(1), 
  3371 ;; Auto vars:     Size  Location     Type
  3372 ;;		None
  3373 ;; Return value:  Size  Location     Type
  3374 ;;                  1    wreg      void 
  3375 ;; Registers used:
  3376 ;;		wreg
  3377 ;; Tracked objects:
  3378 ;;		On entry : 0/0
  3379 ;;		On exit  : 0/0
  3380 ;;		Unchanged: 0/0
  3381 ;; Data sizes:     COMMON   BANK0   BANK1   BANK2   BANK3   BANK4   BANK5   BANK6   BANK7   BANK8   BANK9  BANK10  BANK1
      +1  BANK12
  3382 ;;      Params:         2       0       0       0       0       0       0       0       0       0       0       0       
      +0       0
  3383 ;;      Locals:         0       0       0       0       0       0       0       0       0       0       0       0       
      +0       0
  3384 ;;      Temps:          0       0       0       0       0       0       0       0       0       0       0       0       
      +0       0
  3385 ;;      Totals:         2       0       0       0       0       0       0       0       0       0       0       0       
      +0       0
  3386 ;;Total ram usage:        2 bytes
  3387 ;; Hardware stack levels used:    1
  3388 ;; Hardware stack levels required when called:    4
  3389 ;; This function calls:
  3390 ;;		Nothing
  3391 ;; This function is called by:
  3392 ;;		_EUSART_Initialize
  3393 ;; This function uses a non-reentrant model
  3394 ;;
  3395                           
  3396                           
  3397                           ;psect for function _EUSART_SetFramingErrorHandler
  3398  01D6                     _EUSART_SetFramingErrorHandler:
  3399  01D6                     l1222:	
  3400                           ;incstack = 0
  3401                           ; Regs used in _EUSART_SetFramingErrorHandler: [wreg]
  3402                           
  3403                           
  3404                           ;eusart.c: 274: EUSART_FramingErrorHandler = interruptHandler;
  3405  01D6  0872               	movf	EUSART_SetFramingErrorHandler@interruptHandler+1,w
  3406  01D7  0020               	movlb	0	; select bank0
  3407  01D8  00C2               	movwf	_EUSART_FramingErrorHandler+1
  3408  01D9  0871               	movf	EUSART_SetFramingErrorHandler@interruptHandler,w
  3409  01DA  00C1               	movwf	_EUSART_FramingErrorHandler
  3410  01DB                     l297:
  3411  01DB  0008               	return
  3412  01DC                     __end_of_EUSART_SetFramingErrorHandler:
  3413                           
  3414                           	psect	text15
  3415  01DC                     __ptext15:	
  3416 ;; *************** function _EUSART_SetErrorHandler *****************
  3417 ;; Defined at:
  3418 ;;		line 281 in file "mcc_generated_files/eusart.c"
  3419 ;; Parameters:    Size  Location     Type
  3420 ;;  interruptHan    2    1[COMMON] PTR FTN()void 
  3421 ;;		 -> EUSART_DefaultErrorHandler(1), 
  3422 ;; Auto vars:     Size  Location     Type
  3423 ;;		None
  3424 ;; Return value:  Size  Location     Type
  3425 ;;                  1    wreg      void 
  3426 ;; Registers used:
  3427 ;;		wreg
  3428 ;; Tracked objects:
  3429 ;;		On entry : 0/0
  3430 ;;		On exit  : 0/0
  3431 ;;		Unchanged: 0/0
  3432 ;; Data sizes:     COMMON   BANK0   BANK1   BANK2   BANK3   BANK4   BANK5   BANK6   BANK7   BANK8   BANK9  BANK10  BANK1
      +1  BANK12
  3433 ;;      Params:         2       0       0       0       0       0       0       0       0       0       0       0       
      +0       0
  3434 ;;      Locals:         0       0       0       0       0       0       0       0       0       0       0       0       
      +0       0
  3435 ;;      Temps:          0       0       0       0       0       0       0       0       0       0       0       0       
      +0       0
  3436 ;;      Totals:         2       0       0       0       0       0       0       0       0       0       0       0       
      +0       0
  3437 ;;Total ram usage:        2 bytes
  3438 ;; Hardware stack levels used:    1
  3439 ;; Hardware stack levels required when called:    4
  3440 ;; This function calls:
  3441 ;;		Nothing
  3442 ;; This function is called by:
  3443 ;;		_EUSART_Initialize
  3444 ;; This function uses a non-reentrant model
  3445 ;;
  3446                           
  3447                           
  3448                           ;psect for function _EUSART_SetErrorHandler
  3449  01DC                     _EUSART_SetErrorHandler:
  3450  01DC                     l1226:	
  3451                           ;incstack = 0
  3452                           ; Regs used in _EUSART_SetErrorHandler: [wreg]
  3453                           
  3454                           
  3455                           ;eusart.c: 282: EUSART_ErrorHandler = interruptHandler;
  3456  01DC  0872               	movf	EUSART_SetErrorHandler@interruptHandler+1,w
  3457  01DD  0020               	movlb	0	; select bank0
  3458  01DE  00BE               	movwf	_EUSART_ErrorHandler+1
  3459  01DF  0871               	movf	EUSART_SetErrorHandler@interruptHandler,w
  3460  01E0  00BD               	movwf	_EUSART_ErrorHandler
  3461  01E1                     l303:
  3462  01E1  0008               	return
  3463  01E2                     __end_of_EUSART_SetErrorHandler:
  3464                           
  3465                           	psect	text16
  3466  019F                     __ptext16:	
  3467 ;; *************** function _ADC_Initialize *****************
  3468 ;; Defined at:
  3469 ;;		line 67 in file "mcc_generated_files/adc.c"
  3470 ;; Parameters:    Size  Location     Type
  3471 ;;		None
  3472 ;; Auto vars:     Size  Location     Type
  3473 ;;		None
  3474 ;; Return value:  Size  Location     Type
  3475 ;;                  1    wreg      void 
  3476 ;; Registers used:
  3477 ;;		wreg, status,2
  3478 ;; Tracked objects:
  3479 ;;		On entry : 0/0
  3480 ;;		On exit  : 0/0
  3481 ;;		Unchanged: 0/0
  3482 ;; Data sizes:     COMMON   BANK0   BANK1   BANK2   BANK3   BANK4   BANK5   BANK6   BANK7   BANK8   BANK9  BANK10  BANK1
      +1  BANK12
  3483 ;;      Params:         0       0       0       0       0       0       0       0       0       0       0       0       
      +0       0
  3484 ;;      Locals:         0       0       0       0       0       0       0       0       0       0       0       0       
      +0       0
  3485 ;;      Temps:          0       0       0       0       0       0       0       0       0       0       0       0       
      +0       0
  3486 ;;      Totals:         0       0       0       0       0       0       0       0       0       0       0       0       
      +0       0
  3487 ;;Total ram usage:        0 bytes
  3488 ;; Hardware stack levels used:    1
  3489 ;; Hardware stack levels required when called:    4
  3490 ;; This function calls:
  3491 ;;		Nothing
  3492 ;; This function is called by:
  3493 ;;		_SYSTEM_Initialize
  3494 ;; This function uses a non-reentrant model
  3495 ;;
  3496                           
  3497                           
  3498                           ;psect for function _ADC_Initialize
  3499  019F                     _ADC_Initialize:
  3500  019F                     l1024:	
  3501                           ;incstack = 0
  3502                           ; Regs used in _ADC_Initialize: [wreg+status,2]
  3503                           
  3504                           
  3505                           ;adc.c: 72: ADCON1 = 0x12;
  3506  019F  3012               	movlw	18
  3507  01A0  0021               	movlb	1	; select bank1
  3508  01A1  009E               	movwf	30	;volatile
  3509  01A2                     l1026:
  3510                           
  3511                           ;adc.c: 75: ADCON2 = 0x00;
  3512  01A2  019F               	clrf	31	;volatile
  3513  01A3                     l1028:
  3514                           
  3515                           ;adc.c: 78: ADRESL = 0x00;
  3516  01A3  019B               	clrf	27	;volatile
  3517  01A4                     l1030:
  3518                           
  3519                           ;adc.c: 81: ADRESH = 0x00;
  3520  01A4  019C               	clrf	28	;volatile
  3521  01A5                     l1032:
  3522                           
  3523                           ;adc.c: 84: ADCON0 = 0x01;
  3524  01A5  3001               	movlw	1
  3525  01A6  009D               	movwf	29	;volatile
  3526  01A7                     l138:
  3527  01A7  0008               	return
  3528  01A8                     __end_of_ADC_Initialize:
  3529                           
  3530                           	psect	intentry
  3531  0004                     __pintentry:	
  3532 ;; *************** function _INTERRUPT_InterruptManager *****************
  3533 ;; Defined at:
  3534 ;;		line 52 in file "mcc_generated_files/interrupt_manager.c"
  3535 ;; Parameters:    Size  Location     Type
  3536 ;;		None
  3537 ;; Auto vars:     Size  Location     Type
  3538 ;;		None
  3539 ;; Return value:  Size  Location     Type
  3540 ;;                  1    wreg      void 
  3541 ;; Registers used:
  3542 ;;		wreg, fsr1l, fsr1h, status,2, status,0, pclath, cstack
  3543 ;; Tracked objects:
  3544 ;;		On entry : 0/0
  3545 ;;		On exit  : 0/0
  3546 ;;		Unchanged: 0/0
  3547 ;; Data sizes:     COMMON   BANK0   BANK1   BANK2   BANK3   BANK4   BANK5   BANK6   BANK7   BANK8   BANK9  BANK10  BANK1
      +1  BANK12
  3548 ;;      Params:         0       0       0       0       0       0       0       0       0       0       0       0       
      +0       0
  3549 ;;      Locals:         0       0       0       0       0       0       0       0       0       0       0       0       
      +0       0
  3550 ;;      Temps:          0       0       0       0       0       0       0       0       0       0       0       0       
      +0       0
  3551 ;;      Totals:         0       0       0       0       0       0       0       0       0       0       0       0       
      +0       0
  3552 ;;Total ram usage:        0 bytes
  3553 ;; Hardware stack levels used:    1
  3554 ;; Hardware stack levels required when called:    3
  3555 ;; This function calls:
  3556 ;;		Absolute function
  3557 ;;		_EUSART_Receive_ISR
  3558 ;;		_EUSART_Transmit_ISR
  3559 ;; This function is called by:
  3560 ;;		Interrupt level 1
  3561 ;; This function uses a non-reentrant model
  3562 ;;
  3563                           
  3564  0004                     _INTERRUPT_InterruptManager:
  3565                           
  3566                           ;incstack = 0
  3567  0004  147E               	bsf	int$flags,0	;set compiler interrupt flag (level 1)
  3568                           
  3569                           ; Regs used in _INTERRUPT_InterruptManager: [wreg+fsr1l+fsr1h+status,2+status,0+pclath+c
      +                          stack]
  3570  0005  3180               	pagesel	$
  3571  0006                     i1l1360:
  3572                           
  3573                           ;interrupt_manager.c: 55: if(INTCONbits.PEIE == 1)
  3574  0006  1F0B               	btfss	11,6	;volatile
  3575  0007  2809               	goto	u33_21
  3576  0008  280A               	goto	u33_20
  3577  0009                     u33_21:
  3578  0009  282A               	goto	i1l330
  3579  000A                     u33_20:
  3580  000A                     i1l1362:
  3581                           
  3582                           ;interrupt_manager.c: 56: {;interrupt_manager.c: 57: if(PIE1bits.TXIE == 1 && PIR1bits.T
      +                          XIF == 1)
  3583  000A  0021               	movlb	1	; select bank1
  3584  000B  1E11               	btfss	17,4	;volatile
  3585  000C  280E               	goto	u34_21
  3586  000D  280F               	goto	u34_20
  3587  000E                     u34_21:
  3588  000E  281A               	goto	i1l325
  3589  000F                     u34_20:
  3590  000F                     i1l1364:
  3591  000F  0020               	movlb	0	; select bank0
  3592  0010  1E11               	btfss	17,4	;volatile
  3593  0011  2813               	goto	u35_21
  3594  0012  2814               	goto	u35_20
  3595  0013                     u35_21:
  3596  0013  281A               	goto	i1l325
  3597  0014                     u35_20:
  3598  0014                     i1l1366:
  3599                           
  3600                           ;interrupt_manager.c: 58: {;interrupt_manager.c: 59: EUSART_TxDefaultInterruptHandler();
  3601  0014  0846               	movf	_EUSART_TxDefaultInterruptHandler+1,w
  3602  0015  008A               	movwf	10
  3603  0016  0845               	movf	_EUSART_TxDefaultInterruptHandler,w
  3604  0017  000A               	callw
  3605  0018  3180               	pagesel	$
  3606                           
  3607                           ;interrupt_manager.c: 60: }
  3608  0019  282A               	goto	i1l330
  3609  001A                     i1l325:
  3610                           
  3611                           ;interrupt_manager.c: 61: else if(PIE1bits.RCIE == 1 && PIR1bits.RCIF == 1)
  3612  001A  0021               	movlb	1	; select bank1
  3613  001B  1E91               	btfss	17,5	;volatile
  3614  001C  281E               	goto	u36_21
  3615  001D  281F               	goto	u36_20
  3616  001E                     u36_21:
  3617  001E  282A               	goto	i1l326
  3618  001F                     u36_20:
  3619  001F                     i1l1368:
  3620  001F  0020               	movlb	0	; select bank0
  3621  0020  1E91               	btfss	17,5	;volatile
  3622  0021  2823               	goto	u37_21
  3623  0022  2824               	goto	u37_20
  3624  0023                     u37_21:
  3625  0023  282A               	goto	i1l326
  3626  0024                     u37_20:
  3627  0024                     i1l1370:
  3628                           
  3629                           ;interrupt_manager.c: 62: {;interrupt_manager.c: 63: EUSART_RxDefaultInterruptHandler();
  3630  0024  0844               	movf	_EUSART_RxDefaultInterruptHandler+1,w
  3631  0025  008A               	movwf	10
  3632  0026  0843               	movf	_EUSART_RxDefaultInterruptHandler,w
  3633  0027  000A               	callw
  3634  0028  3180               	pagesel	$
  3635                           
  3636                           ;interrupt_manager.c: 64: }
  3637  0029  282A               	goto	i1l330
  3638  002A                     i1l326:
  3639  002A                     i1l330:	
  3640                           ;interrupt_manager.c: 68: };interrupt_manager.c: 69: }
  3641                           
  3642  002A  107E               	bcf	int$flags,0	;clear compiler interrupt flag (level 1)
  3643  002B  0009               	retfie
  3644  002C                     __end_of_INTERRUPT_InterruptManager:
  3645                           
  3646                           	psect	text18
  3647  0104                     __ptext18:	
  3648 ;; *************** function _EUSART_Transmit_ISR *****************
  3649 ;; Defined at:
  3650 ;;		line 206 in file "mcc_generated_files/eusart.c"
  3651 ;; Parameters:    Size  Location     Type
  3652 ;;		None
  3653 ;; Auto vars:     Size  Location     Type
  3654 ;;		None
  3655 ;; Return value:  Size  Location     Type
  3656 ;;                  1    wreg      void 
  3657 ;; Registers used:
  3658 ;;		wreg, fsr1l, fsr1h, status,2, status,0
  3659 ;; Tracked objects:
  3660 ;;		On entry : 0/0
  3661 ;;		On exit  : 0/0
  3662 ;;		Unchanged: 0/0
  3663 ;; Data sizes:     COMMON   BANK0   BANK1   BANK2   BANK3   BANK4   BANK5   BANK6   BANK7   BANK8   BANK9  BANK10  BANK1
      +1  BANK12
  3664 ;;      Params:         0       0       0       0       0       0       0       0       0       0       0       0       
      +0       0
  3665 ;;      Locals:         0       0       0       0       0       0       0       0       0       0       0       0       
      +0       0
  3666 ;;      Temps:          1       0       0       0       0       0       0       0       0       0       0       0       
      +0       0
  3667 ;;      Totals:         1       0       0       0       0       0       0       0       0       0       0       0       
      +0       0
  3668 ;;Total ram usage:        1 bytes
  3669 ;; Hardware stack levels used:    1
  3670 ;; This function calls:
  3671 ;;		Nothing
  3672 ;; This function is called by:
  3673 ;;		_EUSART_Initialize
  3674 ;;		_INTERRUPT_InterruptManager
  3675 ;; This function uses a non-reentrant model
  3676 ;;
  3677                           
  3678                           
  3679                           ;psect for function _EUSART_Transmit_ISR
  3680  0104                     _EUSART_Transmit_ISR:
  3681  0104                     i1l1318:	
  3682                           ;incstack = 0
  3683                           ; Regs used in _EUSART_Transmit_ISR: [wreg+fsr1l+fsr1h+status,2+status,0]
  3684                           
  3685                           
  3686                           ;eusart.c: 210: if(sizeof(eusartTxBuffer) > eusartTxBufferRemaining)
  3687  0104  3008               	movlw	8
  3688  0105  0020               	movlb	0	; select bank0
  3689  0106  0247               	subwf	_eusartTxBufferRemaining,w	;volatile
  3690  0107  1803               	skipnc
  3691  0108  290A               	goto	u27_21
  3692  0109  290B               	goto	u27_20
  3693  010A                     u27_21:
  3694  010A  2923               	goto	i1l271
  3695  010B                     u27_20:
  3696  010B                     i1l1320:
  3697                           
  3698                           ;eusart.c: 211: {;eusart.c: 212: TX1REG = eusartTxBuffer[eusartTxTail++];
  3699  010B  083C               	movf	_eusartTxTail,w
  3700  010C  3E30               	addlw	(low (_eusartTxBuffer| 0))& (0+255)
  3701  010D  0086               	movwf	6
  3702  010E  0187               	clrf	7
  3703  010F  0801               	movf	1,w
  3704  0110  0023               	movlb	3	; select bank3
  3705  0111  009A               	movwf	26	;volatile
  3706  0112                     i1l1322:
  3707  0112  3001               	movlw	1
  3708  0113  00F0               	movwf	??_EUSART_Transmit_ISR
  3709  0114  0870               	movf	??_EUSART_Transmit_ISR,w
  3710  0115  0020               	movlb	0	; select bank0
  3711  0116  07BC               	addwf	_eusartTxTail,f	;volatile
  3712  0117                     i1l1324:
  3713                           
  3714                           ;eusart.c: 213: if(sizeof(eusartTxBuffer) <= eusartTxTail)
  3715  0117  3008               	movlw	8
  3716  0118  023C               	subwf	_eusartTxTail,w	;volatile
  3717  0119  1C03               	skipc
  3718  011A  291C               	goto	u28_21
  3719  011B  291D               	goto	u28_20
  3720  011C                     u28_21:
  3721  011C  291E               	goto	i1l1328
  3722  011D                     u28_20:
  3723  011D                     i1l1326:
  3724                           
  3725                           ;eusart.c: 214: {;eusart.c: 215: eusartTxTail = 0;
  3726  011D  01BC               	clrf	_eusartTxTail	;volatile
  3727  011E                     i1l1328:
  3728                           
  3729                           ;eusart.c: 216: };eusart.c: 217: eusartTxBufferRemaining++;
  3730  011E  3001               	movlw	1
  3731  011F  00F0               	movwf	??_EUSART_Transmit_ISR
  3732  0120  0870               	movf	??_EUSART_Transmit_ISR,w
  3733  0121  07C7               	addwf	_eusartTxBufferRemaining,f	;volatile
  3734                           
  3735                           ;eusart.c: 218: }
  3736  0122  2925               	goto	i1l274
  3737  0123                     i1l271:
  3738                           
  3739                           ;eusart.c: 219: else;eusart.c: 220: {;eusart.c: 221: PIE1bits.TXIE = 0;
  3740  0123  0021               	movlb	1	; select bank1
  3741  0124  1211               	bcf	17,4	;volatile
  3742  0125                     i1l274:
  3743  0125  0008               	return
  3744  0126                     __end_of_EUSART_Transmit_ISR:
  3745                           
  3746                           	psect	text19
  3747  007C                     __ptext19:	
  3748 ;; *************** function _EUSART_Receive_ISR *****************
  3749 ;; Defined at:
  3750 ;;		line 225 in file "mcc_generated_files/eusart.c"
  3751 ;; Parameters:    Size  Location     Type
  3752 ;;		None
  3753 ;; Auto vars:     Size  Location     Type
  3754 ;;		None
  3755 ;; Return value:  Size  Location     Type
  3756 ;;                  1    wreg      void 
  3757 ;; Registers used:
  3758 ;;		wreg, fsr1l, fsr1h, status,2, status,0, pclath, cstack
  3759 ;; Tracked objects:
  3760 ;;		On entry : 0/0
  3761 ;;		On exit  : 0/0
  3762 ;;		Unchanged: 0/0
  3763 ;; Data sizes:     COMMON   BANK0   BANK1   BANK2   BANK3   BANK4   BANK5   BANK6   BANK7   BANK8   BANK9  BANK10  BANK1
      +1  BANK12
  3764 ;;      Params:         0       0       0       0       0       0       0       0       0       0       0       0       
      +0       0
  3765 ;;      Locals:         0       0       0       0       0       0       0       0       0       0       0       0       
      +0       0
  3766 ;;      Temps:          0       0       0       0       0       0       0       0       0       0       0       0       
      +0       0
  3767 ;;      Totals:         0       0       0       0       0       0       0       0       0       0       0       0       
      +0       0
  3768 ;;Total ram usage:        0 bytes
  3769 ;; Hardware stack levels used:    1
  3770 ;; Hardware stack levels required when called:    2
  3771 ;; This function calls:
  3772 ;;		Absolute function
  3773 ;;		_EUSART_DefaultErrorHandler
  3774 ;;		_EUSART_DefaultFramingErrorHandler
  3775 ;;		_EUSART_DefaultOverrunErrorHandler
  3776 ;;		_EUSART_RxDataHandler
  3777 ;; This function is called by:
  3778 ;;		_EUSART_Initialize
  3779 ;;		_INTERRUPT_InterruptManager
  3780 ;; This function uses a non-reentrant model
  3781 ;;
  3782                           
  3783                           
  3784                           ;psect for function _EUSART_Receive_ISR
  3785  007C                     _EUSART_Receive_ISR:
  3786  007C                     i1l1330:	
  3787                           ;incstack = 0
  3788                           ; Regs used in _EUSART_Receive_ISR: [wreg+fsr1l+fsr1h+status,2+status,0+pclath+cstack]
  3789                           
  3790                           
  3791                           ;eusart.c: 228: eusartRxStatusBuffer[eusartRxHead].status = 0;
  3792  007C  087A               	movf	_eusartRxHead,w	;volatile
  3793  007D  3E20               	addlw	(low (_eusartRxStatusBuffer| 0))& (0+255)
  3794  007E  0086               	movwf	6
  3795  007F  0187               	clrf	7
  3796  0080  0181               	clrf	1
  3797  0081                     i1l1332:
  3798                           
  3799                           ;eusart.c: 230: if(RC1STAbits.FERR){
  3800  0081  0023               	movlb	3	; select bank3
  3801  0082  1D1D               	btfss	29,2	;volatile
  3802  0083  2885               	goto	u29_21
  3803  0084  2886               	goto	u29_20
  3804  0085                     u29_21:
  3805  0085  2891               	goto	i1l1338
  3806  0086                     u29_20:
  3807  0086                     i1l1334:
  3808                           
  3809                           ;eusart.c: 231: eusartRxStatusBuffer[eusartRxHead].ferr = 1;
  3810  0086  087A               	movf	_eusartRxHead,w	;volatile
  3811  0087  3E20               	addlw	(low (_eusartRxStatusBuffer| 0))& (0+255)
  3812  0088  0086               	movwf	6
  3813  0089  0187               	clrf	7
  3814  008A  1481               	bsf	1,1
  3815  008B                     i1l1336:
  3816                           
  3817                           ;eusart.c: 232: EUSART_FramingErrorHandler();
  3818  008B  0020               	movlb	0	; select bank0
  3819  008C  0842               	movf	_EUSART_FramingErrorHandler+1,w
  3820  008D  008A               	movwf	10
  3821  008E  0841               	movf	_EUSART_FramingErrorHandler,w
  3822  008F  000A               	callw
  3823  0090  3180               	pagesel	$
  3824  0091                     i1l1338:
  3825                           
  3826                           ;eusart.c: 233: };eusart.c: 235: if(RC1STAbits.OERR){
  3827  0091  0023               	movlb	3	; select bank3
  3828  0092  1C9D               	btfss	29,1	;volatile
  3829  0093  2895               	goto	u30_21
  3830  0094  2896               	goto	u30_20
  3831  0095                     u30_21:
  3832  0095  28A1               	goto	i1l1344
  3833  0096                     u30_20:
  3834  0096                     i1l1340:
  3835                           
  3836                           ;eusart.c: 236: eusartRxStatusBuffer[eusartRxHead].oerr = 1;
  3837  0096  087A               	movf	_eusartRxHead,w	;volatile
  3838  0097  3E20               	addlw	(low (_eusartRxStatusBuffer| 0))& (0+255)
  3839  0098  0086               	movwf	6
  3840  0099  0187               	clrf	7
  3841  009A  1501               	bsf	1,2
  3842  009B                     i1l1342:
  3843                           
  3844                           ;eusart.c: 237: EUSART_OverrunErrorHandler();
  3845  009B  0020               	movlb	0	; select bank0
  3846  009C  0840               	movf	_EUSART_OverrunErrorHandler+1,w
  3847  009D  008A               	movwf	10
  3848  009E  083F               	movf	_EUSART_OverrunErrorHandler,w
  3849  009F  000A               	callw
  3850  00A0  3180               	pagesel	$
  3851  00A1                     i1l1344:
  3852                           
  3853                           ;eusart.c: 238: };eusart.c: 240: if(eusartRxStatusBuffer[eusartRxHead].status){
  3854  00A1  087A               	movf	_eusartRxHead,w	;volatile
  3855  00A2  3E20               	addlw	(low (_eusartRxStatusBuffer| 0))& (0+255)
  3856  00A3  0086               	movwf	6
  3857  00A4  0187               	clrf	7
  3858  00A5  0801               	movf	1,w
  3859  00A6  1903               	btfsc	3,2
  3860  00A7  28A9               	goto	u31_21
  3861  00A8  28AA               	goto	u31_20
  3862  00A9                     u31_21:
  3863  00A9  28B1               	goto	i1l1348
  3864  00AA                     u31_20:
  3865  00AA                     i1l1346:
  3866                           
  3867                           ;eusart.c: 241: EUSART_ErrorHandler();
  3868  00AA  0020               	movlb	0	; select bank0
  3869  00AB  083E               	movf	_EUSART_ErrorHandler+1,w
  3870  00AC  008A               	movwf	10
  3871  00AD  083D               	movf	_EUSART_ErrorHandler,w
  3872  00AE  000A               	callw
  3873  00AF  3180               	pagesel	$
  3874                           
  3875                           ;eusart.c: 242: } else {
  3876  00B0  28B4               	goto	i1l281
  3877  00B1                     i1l1348:
  3878                           
  3879                           ;eusart.c: 243: EUSART_RxDataHandler();
  3880  00B1  3181  2146  3180   	fcall	_EUSART_RxDataHandler
  3881  00B4                     i1l281:
  3882  00B4  0008               	return
  3883  00B5                     __end_of_EUSART_Receive_ISR:
  3884                           
  3885                           	psect	text20
  3886  01E6                     __ptext20:	
  3887 ;; *************** function _EUSART_DefaultOverrunErrorHandler *****************
  3888 ;; Defined at:
  3889 ;;		line 261 in file "mcc_generated_files/eusart.c"
  3890 ;; Parameters:    Size  Location     Type
  3891 ;;		None
  3892 ;; Auto vars:     Size  Location     Type
  3893 ;;		None
  3894 ;; Return value:  Size  Location     Type
  3895 ;;                  1    wreg      void 
  3896 ;; Registers used:
  3897 ;;		None
  3898 ;; Tracked objects:
  3899 ;;		On entry : 0/0
  3900 ;;		On exit  : 0/0
  3901 ;;		Unchanged: 0/0
  3902 ;; Data sizes:     COMMON   BANK0   BANK1   BANK2   BANK3   BANK4   BANK5   BANK6   BANK7   BANK8   BANK9  BANK10  BANK1
      +1  BANK12
  3903 ;;      Params:         0       0       0       0       0       0       0       0       0       0       0       0       
      +0       0
  3904 ;;      Locals:         0       0       0       0       0       0       0       0       0       0       0       0       
      +0       0
  3905 ;;      Temps:          0       0       0       0       0       0       0       0       0       0       0       0       
      +0       0
  3906 ;;      Totals:         0       0       0       0       0       0       0       0       0       0       0       0       
      +0       0
  3907 ;;Total ram usage:        0 bytes
  3908 ;; Hardware stack levels used:    1
  3909 ;; This function calls:
  3910 ;;		Nothing
  3911 ;; This function is called by:
  3912 ;;		_EUSART_Initialize
  3913 ;;		_EUSART_Receive_ISR
  3914 ;; This function uses a non-reentrant model
  3915 ;;
  3916                           
  3917                           
  3918                           ;psect for function _EUSART_DefaultOverrunErrorHandler
  3919  01E6                     _EUSART_DefaultOverrunErrorHandler:
  3920  01E6                     i1l1290:	
  3921                           ;incstack = 0
  3922                           ; Regs used in _EUSART_DefaultOverrunErrorHandler: []
  3923                           
  3924                           
  3925                           ;eusart.c: 264: RC1STAbits.CREN = 0;
  3926  01E6  0023               	movlb	3	; select bank3
  3927  01E7  121D               	bcf	29,4	;volatile
  3928                           
  3929                           ;eusart.c: 265: RC1STAbits.CREN = 1;
  3930  01E8  161D               	bsf	29,4	;volatile
  3931  01E9                     i1l291:
  3932  01E9  0008               	return
  3933  01EA                     __end_of_EUSART_DefaultOverrunErrorHandler:
  3934                           
  3935                           	psect	text21
  3936  01EE                     __ptext21:	
  3937 ;; *************** function _EUSART_DefaultFramingErrorHandler *****************
  3938 ;; Defined at:
  3939 ;;		line 259 in file "mcc_generated_files/eusart.c"
  3940 ;; Parameters:    Size  Location     Type
  3941 ;;		None
  3942 ;; Auto vars:     Size  Location     Type
  3943 ;;		None
  3944 ;; Return value:  Size  Location     Type
  3945 ;;                  1    wreg      void 
  3946 ;; Registers used:
  3947 ;;		None
  3948 ;; Tracked objects:
  3949 ;;		On entry : 0/0
  3950 ;;		On exit  : 0/0
  3951 ;;		Unchanged: 0/0
  3952 ;; Data sizes:     COMMON   BANK0   BANK1   BANK2   BANK3   BANK4   BANK5   BANK6   BANK7   BANK8   BANK9  BANK10  BANK1
      +1  BANK12
  3953 ;;      Params:         0       0       0       0       0       0       0       0       0       0       0       0       
      +0       0
  3954 ;;      Locals:         0       0       0       0       0       0       0       0       0       0       0       0       
      +0       0
  3955 ;;      Temps:          0       0       0       0       0       0       0       0       0       0       0       0       
      +0       0
  3956 ;;      Totals:         0       0       0       0       0       0       0       0       0       0       0       0       
      +0       0
  3957 ;;Total ram usage:        0 bytes
  3958 ;; Hardware stack levels used:    1
  3959 ;; This function calls:
  3960 ;;		Nothing
  3961 ;; This function is called by:
  3962 ;;		_EUSART_Initialize
  3963 ;;		_EUSART_Receive_ISR
  3964 ;; This function uses a non-reentrant model
  3965 ;;
  3966                           
  3967                           
  3968                           ;psect for function _EUSART_DefaultFramingErrorHandler
  3969  01EE                     _EUSART_DefaultFramingErrorHandler:
  3970  01EE                     i1l288:	
  3971                           ;incstack = 0
  3972                           ; Regs used in _EUSART_DefaultFramingErrorHandler: []
  3973                           
  3974  01EE  0008               	return
  3975  01EF                     __end_of_EUSART_DefaultFramingErrorHandler:
  3976                           
  3977                           	psect	text22
  3978  01EA                     __ptext22:	
  3979 ;; *************** function _EUSART_DefaultErrorHandler *****************
  3980 ;; Defined at:
  3981 ;;		line 269 in file "mcc_generated_files/eusart.c"
  3982 ;; Parameters:    Size  Location     Type
  3983 ;;		None
  3984 ;; Auto vars:     Size  Location     Type
  3985 ;;		None
  3986 ;; Return value:  Size  Location     Type
  3987 ;;                  1    wreg      void 
  3988 ;; Registers used:
  3989 ;;		wreg, fsr1l, fsr1h, status,2, status,0, pclath, cstack
  3990 ;; Tracked objects:
  3991 ;;		On entry : 0/0
  3992 ;;		On exit  : 0/0
  3993 ;;		Unchanged: 0/0
  3994 ;; Data sizes:     COMMON   BANK0   BANK1   BANK2   BANK3   BANK4   BANK5   BANK6   BANK7   BANK8   BANK9  BANK10  BANK1
      +1  BANK12
  3995 ;;      Params:         0       0       0       0       0       0       0       0       0       0       0       0       
      +0       0
  3996 ;;      Locals:         0       0       0       0       0       0       0       0       0       0       0       0       
      +0       0
  3997 ;;      Temps:          0       0       0       0       0       0       0       0       0       0       0       0       
      +0       0
  3998 ;;      Totals:         0       0       0       0       0       0       0       0       0       0       0       0       
      +0       0
  3999 ;;Total ram usage:        0 bytes
  4000 ;; Hardware stack levels used:    1
  4001 ;; Hardware stack levels required when called:    1
  4002 ;; This function calls:
  4003 ;;		_EUSART_RxDataHandler
  4004 ;; This function is called by:
  4005 ;;		_EUSART_Initialize
  4006 ;;		_EUSART_Receive_ISR
  4007 ;; This function uses a non-reentrant model
  4008 ;;
  4009                           
  4010                           
  4011                           ;psect for function _EUSART_DefaultErrorHandler
  4012  01EA                     _EUSART_DefaultErrorHandler:
  4013  01EA                     i1l1292:	
  4014                           ;incstack = 0
  4015                           ; Regs used in _EUSART_DefaultErrorHandler: [wreg+fsr1l+fsr1h+status,2+status,0+pclath+c
      +                          stack]
  4016                           
  4017                           
  4018                           ;eusart.c: 270: EUSART_RxDataHandler();
  4019  01EA  3181  2146  3181   	fcall	_EUSART_RxDataHandler
  4020  01ED                     i1l294:
  4021  01ED  0008               	return
  4022  01EE                     __end_of_EUSART_DefaultErrorHandler:
  4023                           
  4024                           	psect	text23
  4025  0146                     __ptext23:	
  4026 ;; *************** function _EUSART_RxDataHandler *****************
  4027 ;; Defined at:
  4028 ;;		line 249 in file "mcc_generated_files/eusart.c"
  4029 ;; Parameters:    Size  Location     Type
  4030 ;;		None
  4031 ;; Auto vars:     Size  Location     Type
  4032 ;;		None
  4033 ;; Return value:  Size  Location     Type
  4034 ;;                  1    wreg      void 
  4035 ;; Registers used:
  4036 ;;		wreg, fsr1l, fsr1h, status,2, status,0
  4037 ;; Tracked objects:
  4038 ;;		On entry : 0/0
  4039 ;;		On exit  : 0/0
  4040 ;;		Unchanged: 0/0
  4041 ;; Data sizes:     COMMON   BANK0   BANK1   BANK2   BANK3   BANK4   BANK5   BANK6   BANK7   BANK8   BANK9  BANK10  BANK1
      +1  BANK12
  4042 ;;      Params:         0       0       0       0       0       0       0       0       0       0       0       0       
      +0       0
  4043 ;;      Locals:         0       0       0       0       0       0       0       0       0       0       0       0       
      +0       0
  4044 ;;      Temps:          1       0       0       0       0       0       0       0       0       0       0       0       
      +0       0
  4045 ;;      Totals:         1       0       0       0       0       0       0       0       0       0       0       0       
      +0       0
  4046 ;;Total ram usage:        1 bytes
  4047 ;; Hardware stack levels used:    1
  4048 ;; This function calls:
  4049 ;;		Nothing
  4050 ;; This function is called by:
  4051 ;;		_EUSART_Receive_ISR
  4052 ;;		_EUSART_DefaultErrorHandler
  4053 ;; This function uses a non-reentrant model
  4054 ;;
  4055                           
  4056                           
  4057                           ;psect for function _EUSART_RxDataHandler
  4058  0146                     _EUSART_RxDataHandler:
  4059  0146                     i1l1246:	
  4060                           ;incstack = 0
  4061                           ; Regs used in _EUSART_RxDataHandler: [wreg+fsr1l+fsr1h+status,2+status,0]
  4062                           
  4063                           
  4064                           ;eusart.c: 251: eusartRxBuffer[eusartRxHead++] = RC1REG;
  4065  0146  0023               	movlb	3	; select bank3
  4066  0147  0819               	movf	25,w	;volatile
  4067  0148  00F0               	movwf	??_EUSART_RxDataHandler
  4068  0149  087A               	movf	_eusartRxHead,w
  4069  014A  3E28               	addlw	(low (_eusartRxBuffer| 0))& (0+255)
  4070  014B  0086               	movwf	6
  4071  014C  0187               	clrf	7
  4072  014D  0870               	movf	??_EUSART_RxDataHandler,w
  4073  014E  0081               	movwf	1
  4074  014F                     i1l1248:
  4075  014F  3001               	movlw	1
  4076  0150  00F0               	movwf	??_EUSART_RxDataHandler
  4077  0151  0870               	movf	??_EUSART_RxDataHandler,w
  4078  0152  07FA               	addwf	_eusartRxHead,f	;volatile
  4079  0153                     i1l1250:
  4080                           
  4081                           ;eusart.c: 252: if(sizeof(eusartRxBuffer) <= eusartRxHead)
  4082  0153  3008               	movlw	8
  4083  0154  027A               	subwf	_eusartRxHead,w	;volatile
  4084  0155  1C03               	skipc
  4085  0156  2958               	goto	u24_21
  4086  0157  2959               	goto	u24_20
  4087  0158                     u24_21:
  4088  0158  295A               	goto	i1l1254
  4089  0159                     u24_20:
  4090  0159                     i1l1252:
  4091                           
  4092                           ;eusart.c: 253: {;eusart.c: 254: eusartRxHead = 0;
  4093  0159  01FA               	clrf	_eusartRxHead	;volatile
  4094  015A                     i1l1254:
  4095                           
  4096                           ;eusart.c: 255: };eusart.c: 256: eusartRxCount++;
  4097  015A  3001               	movlw	1
  4098  015B  00F0               	movwf	??_EUSART_RxDataHandler
  4099  015C  0870               	movf	??_EUSART_RxDataHandler,w
  4100  015D  0020               	movlb	0	; select bank0
  4101  015E  07BB               	addwf	_eusartRxCount,f	;volatile
  4102  015F                     i1l285:
  4103  015F  0008               	return
  4104  0160                     __end_of_EUSART_RxDataHandler:
  4105  007E                     btemp	set	126	;btemp
  4106  007E                     int$flags	set	126
  4107  007E                     wtemp0	set	126
  4108                           
  4109                           	psect	config
  4110                           
  4111                           ;Config register CONFIG1 @ 0x8007
  4112                           ;	Oscillator Selection Bits
  4113                           ;	FOSC = INTOSC, INTOSC oscillator: I/O function on CLKIN pin
  4114                           ;	Watchdog Timer Enable
  4115                           ;	WDTE = OFF, WDT disabled
  4116                           ;	Power-up Timer Enable
  4117                           ;	PWRTE = OFF, PWRT disabled
  4118                           ;	MCLR Pin Function Select
  4119                           ;	MCLRE = ON, MCLR/VPP pin function is MCLR
  4120                           ;	Flash Program Memory Code Protection
  4121                           ;	CP = OFF, Program memory code protection is disabled
  4122                           ;	Brown-out Reset Enable
  4123                           ;	BOREN = OFF, Brown-out Reset disabled
  4124                           ;	Clock Out Enable
  4125                           ;	CLKOUTEN = OFF, CLKOUT function is disabled. I/O or oscillator function on the CLKOUT 
      +                          pin
  4126                           ;	Internal/External Switchover Mode
  4127                           ;	IESO = ON, Internal/External Switchover Mode is enabled
  4128                           ;	Fail-Safe Clock Monitor Enable
  4129                           ;	FCMEN = ON, Fail-Safe Clock Monitor is enabled
  4130  8007                     	org	32775
  4131  8007  39E4               	dw	14820
  4132                           
  4133                           ;Config register CONFIG2 @ 0x8008
  4134                           ;	Flash Memory Self-Write Protection
  4135                           ;	WRT = OFF, Write protection off
  4136                           ;	Peripheral Pin Select one-way control
  4137                           ;	PPS1WAY = ON, The PPSLOCK bit cannot be cleared once it is set by software
  4138                           ;	Zero-cross detect disable
  4139                           ;	ZCDDIS = ON, Zero-cross detect circuit is disabled at POR
  4140                           ;	Phase Lock Loop enable
  4141                           ;	PLLEN = OFF, 4x PLL is enabled when software sets the SPLLEN bit
  4142                           ;	Stack Overflow/Underflow Reset Enable
  4143                           ;	STVREN = ON, Stack Overflow or Underflow will cause a Reset
  4144                           ;	Brown-out Reset Voltage Selection
  4145                           ;	BORV = LO, Brown-out Reset Voltage (Vbor), low trip point selected.
  4146                           ;	Low-Power Brown Out Reset
  4147                           ;	LPBOR = OFF, Low-Power BOR is disabled
  4148                           ;	Low-Voltage Programming Enable
  4149                           ;	LVP = OFF, High-voltage on MCLR/VPP must be used for programming
  4150  8008                     	org	32776
  4151  8008  1EFF               	dw	7935

Data Sizes:
    Strings     14
    Constant    0
    Data        0
    BSS         32
    Persistent  43
    Stack       0

Auto Spaces:
    Space          Size  Autos    Used
    COMMON           14      9      12
    BANK0            80      2      42
    BANK1            80      0       0
    BANK2            80      0       0
    BANK3            80      0       0
    BANK4            80      0       0
    BANK5            80      0       0
    BANK6            80      0       0
    BANK7            80      0       0
    BANK8            80      0       0
    BANK9            80      0       0
    BANK10           80      0       0
    BANK11           80      0       0
    BANK12           48      0       0

Pointer List with Targets:

    ADC_InterruptHandler	PTR FTN()void  size(2) Largest target is 1
		 -> Absolute function(), 

    printf@f	PTR const unsigned char  size(2) Largest target is 14
		 -> STR_1(CODE[14]), 

    printf@ap	PTR void [1] size(1) Largest target is 2
		 -> ?_printf(COMMON[2]), 

    EUSART_SetRxInterruptHandler@interruptHandler	PTR FTN()void  size(2) Largest target is 1
		 -> EUSART_Receive_ISR(), 

    EUSART_RxDefaultInterruptHandler	PTR FTN()void  size(2) Largest target is 1
		 -> Absolute function(), EUSART_Receive_ISR(), 

    EUSART_SetTxInterruptHandler@interruptHandler	PTR FTN()void  size(2) Largest target is 1
		 -> EUSART_Transmit_ISR(), 

    EUSART_TxDefaultInterruptHandler	PTR FTN()void  size(2) Largest target is 1
		 -> Absolute function(), EUSART_Transmit_ISR(), 

    EUSART_SetErrorHandler@interruptHandler	PTR FTN()void  size(2) Largest target is 1
		 -> EUSART_DefaultErrorHandler(), 

    EUSART_SetOverrunErrorHandler@interruptHandler	PTR FTN()void  size(2) Largest target is 1
		 -> EUSART_DefaultOverrunErrorHandler(), 

    EUSART_SetFramingErrorHandler@interruptHandler	PTR FTN()void  size(2) Largest target is 1
		 -> EUSART_DefaultFramingErrorHandler(), 

    EUSART_ErrorHandler	PTR FTN()void  size(2) Largest target is 1
		 -> Absolute function(), EUSART_DefaultErrorHandler(), 

    EUSART_OverrunErrorHandler	PTR FTN()void  size(2) Largest target is 1
		 -> Absolute function(), EUSART_DefaultOverrunErrorHandler(), 

    EUSART_FramingErrorHandler	PTR FTN()void  size(2) Largest target is 1
		 -> Absolute function(), EUSART_DefaultFramingErrorHandler(), 


Critical Paths under _main in COMMON

    _main->_printf
    _printf->_putch
    _putch->_EUSART_Write
    _SYSTEM_Initialize->_EUSART_Initialize
    _EUSART_Initialize->_EUSART_SetErrorHandler
    _EUSART_Initialize->_EUSART_SetFramingErrorHandler
    _EUSART_Initialize->_EUSART_SetOverrunErrorHandler
    _EUSART_Initialize->_EUSART_SetRxInterruptHandler
    _EUSART_Initialize->_EUSART_SetTxInterruptHandler

Critical Paths under _INTERRUPT_InterruptManager in COMMON

    _INTERRUPT_InterruptManager->_EUSART_Transmit_ISR
    _EUSART_Receive_ISR->_EUSART_RxDataHandler
    _EUSART_DefaultErrorHandler->_EUSART_RxDataHandler

Critical Paths under _main in BANK0

    _main->_printf

Critical Paths under _INTERRUPT_InterruptManager in BANK0

    None.

Critical Paths under _main in BANK1

    None.

Critical Paths under _INTERRUPT_InterruptManager in BANK1

    None.

Critical Paths under _main in BANK2

    None.

Critical Paths under _INTERRUPT_InterruptManager in BANK2

    None.

Critical Paths under _main in BANK3

    None.

Critical Paths under _INTERRUPT_InterruptManager in BANK3

    None.

Critical Paths under _main in BANK4

    None.

Critical Paths under _INTERRUPT_InterruptManager in BANK4

    None.

Critical Paths under _main in BANK5

    None.

Critical Paths under _INTERRUPT_InterruptManager in BANK5

    None.

Critical Paths under _main in BANK6

    None.

Critical Paths under _INTERRUPT_InterruptManager in BANK6

    None.

Critical Paths under _main in BANK7

    None.

Critical Paths under _INTERRUPT_InterruptManager in BANK7

    None.

Critical Paths under _main in BANK8

    None.

Critical Paths under _INTERRUPT_InterruptManager in BANK8

    None.

Critical Paths under _main in BANK9

    None.

Critical Paths under _INTERRUPT_InterruptManager in BANK9

    None.

Critical Paths under _main in BANK10

    None.

Critical Paths under _INTERRUPT_InterruptManager in BANK10

    None.

Critical Paths under _main in BANK11

    None.

Critical Paths under _INTERRUPT_InterruptManager in BANK11

    None.

Critical Paths under _main in BANK12

    None.

Critical Paths under _INTERRUPT_InterruptManager in BANK12

    None.

Call Graph Tables:

 ---------------------------------------------------------------------------------
 (Depth) Function   	        Calls       Base Space   Used Autos Params    Refs
 ---------------------------------------------------------------------------------
 (0) _main                                                 0     0      0     741
                  _SYSTEM_Initialize
                             _printf
 ---------------------------------------------------------------------------------
 (1) _printf                                              19    17      2     251
                                              4 COMMON     5     3      2
                                              0 BANK0      2     2      0
                              _putch
 ---------------------------------------------------------------------------------
 (2) _putch                                                1     1      0      93
                                              3 COMMON     1     1      0
                       _EUSART_Write
 ---------------------------------------------------------------------------------
 (3) _EUSART_Write                                         2     2      0      62
                                              1 COMMON     2     2      0
 ---------------------------------------------------------------------------------
 (1) _SYSTEM_Initialize                                    0     0      0     490
                     _ADC_Initialize
                  _EUSART_Initialize
              _OSCILLATOR_Initialize
             _PIN_MANAGER_Initialize
                    _PWM1_Initialize
                    _TMR2_Initialize
                     _WDT_Initialize
 ---------------------------------------------------------------------------------
 (2) _WDT_Initialize                                       0     0      0       0
 ---------------------------------------------------------------------------------
 (2) _TMR2_Initialize                                      0     0      0       0
 ---------------------------------------------------------------------------------
 (2) _PWM1_Initialize                                      0     0      0       0
 ---------------------------------------------------------------------------------
 (2) _PIN_MANAGER_Initialize                               0     0      0       0
 ---------------------------------------------------------------------------------
 (2) _OSCILLATOR_Initialize                                0     0      0       0
 ---------------------------------------------------------------------------------
 (2) _EUSART_Initialize                                    1     1      0     490
                                              3 COMMON     1     1      0
             _EUSART_SetErrorHandler
      _EUSART_SetFramingErrorHandler
      _EUSART_SetOverrunErrorHandler
       _EUSART_SetRxInterruptHandler
       _EUSART_SetTxInterruptHandler
 ---------------------------------------------------------------------------------
 (3) _EUSART_SetTxInterruptHandler                         2     0      2      98
                                              1 COMMON     2     0      2
 ---------------------------------------------------------------------------------
 (3) _EUSART_SetRxInterruptHandler                         2     0      2      98
                                              1 COMMON     2     0      2
 ---------------------------------------------------------------------------------
 (3) _EUSART_SetOverrunErrorHandler                        2     0      2      98
                                              1 COMMON     2     0      2
 ---------------------------------------------------------------------------------
 (3) _EUSART_SetFramingErrorHandler                        2     0      2      98
                                              1 COMMON     2     0      2
 ---------------------------------------------------------------------------------
 (3) _EUSART_SetErrorHandler                               2     0      2      98
                                              1 COMMON     2     0      2
 ---------------------------------------------------------------------------------
 (2) _ADC_Initialize                                       0     0      0       0
 ---------------------------------------------------------------------------------
 Estimated maximum stack depth 3
 ---------------------------------------------------------------------------------
 (Depth) Function   	        Calls       Base Space   Used Autos Params    Refs
 ---------------------------------------------------------------------------------
 (4) _INTERRUPT_InterruptManager                           0     0      0       0
                   Absolute function *
                 _EUSART_Receive_ISR *
                _EUSART_Transmit_ISR *
 ---------------------------------------------------------------------------------
 (5) _EUSART_Transmit_ISR                                  1     1      0       0
                                              0 COMMON     1     1      0
 ---------------------------------------------------------------------------------
 (5) _EUSART_Receive_ISR                                   0     0      0       0
                   Absolute function *
         _EUSART_DefaultErrorHandler *
  _EUSART_DefaultFramingErrorHandler *
  _EUSART_DefaultOverrunErrorHandler *
               _EUSART_RxDataHandler
 ---------------------------------------------------------------------------------
 (6) _EUSART_DefaultOverrunErrorHandler                    0     0      0       0
 ---------------------------------------------------------------------------------
 (6) _EUSART_DefaultFramingErrorHandler                    0     0      0       0
 ---------------------------------------------------------------------------------
 (6) _EUSART_DefaultErrorHandler                           0     0      0       0
               _EUSART_RxDataHandler
 ---------------------------------------------------------------------------------
 (6) _EUSART_RxDataHandler                                 1     1      0       0
                                              0 COMMON     1     1      0
 ---------------------------------------------------------------------------------
 (6) Absolute function(Fake)                               0     0      0       0
 ---------------------------------------------------------------------------------
 Estimated maximum stack depth 6
 ---------------------------------------------------------------------------------

 Call Graph Graphs:

 _main (ROOT)
   _SYSTEM_Initialize
     _ADC_Initialize
     _EUSART_Initialize
       _EUSART_SetErrorHandler
       _EUSART_SetFramingErrorHandler
       _EUSART_SetOverrunErrorHandler
       _EUSART_SetRxInterruptHandler
       _EUSART_SetTxInterruptHandler
     _OSCILLATOR_Initialize
     _PIN_MANAGER_Initialize
     _PWM1_Initialize
     _TMR2_Initialize
     _WDT_Initialize
   _printf
     _putch
       _EUSART_Write

 _INTERRUPT_InterruptManager (ROOT)
   Absolute function(Fake) *
   _EUSART_Receive_ISR *
     Absolute function(Fake) *
     _EUSART_DefaultErrorHandler *
       _EUSART_RxDataHandler
     _EUSART_DefaultFramingErrorHandler *
     _EUSART_DefaultOverrunErrorHandler *
     _EUSART_RxDataHandler *
   _EUSART_Transmit_ISR *

 Address spaces:
Name               Size   Autos  Total    Cost      Usage
BIGRAM             3F0      0       0       0        0.0%
NULL                 0      0       0       0        0.0%
CODE                 0      0       0       0        0.0%
BITCOMMON            E      0       0       1        0.0%
BITSFR0              0      0       0       1        0.0%
SFR0                 0      0       0       1        0.0%
COMMON               E      9       C       2       85.7%
BITSFR1              0      0       0       2        0.0%
SFR1                 0      0       0       2        0.0%
BITSFR2              0      0       0       3        0.0%
SFR2                 0      0       0       3        0.0%
STACK                0      0       0       3        0.0%
BITBANK0            50      0       0       4        0.0%
BITSFR3              0      0       0       4        0.0%
SFR3                 0      0       0       4        0.0%
BANK0               50      2      2A       5       52.5%
BITSFR4              0      0       0       5        0.0%
SFR4                 0      0       0       5        0.0%
BITBANK1            50      0       0       6        0.0%
BITSFR5              0      0       0       6        0.0%
SFR5                 0      0       0       6        0.0%
BANK1               50      0       0       7        0.0%
BITSFR6              0      0       0       7        0.0%
SFR6                 0      0       0       7        0.0%
BITBANK2            50      0       0       8        0.0%
BITSFR7              0      0       0       8        0.0%
SFR7                 0      0       0       8        0.0%
BANK2               50      0       0       9        0.0%
BITSFR8              0      0       0       9        0.0%
SFR8                 0      0       0       9        0.0%
BITBANK3            50      0       0      10        0.0%
BITSFR9              0      0       0      10        0.0%
SFR9                 0      0       0      10        0.0%
BANK3               50      0       0      11        0.0%
BITSFR10             0      0       0      11        0.0%
SFR10                0      0       0      11        0.0%
BITBANK4            50      0       0      12        0.0%
BITSFR11             0      0       0      12        0.0%
SFR11                0      0       0      12        0.0%
BANK4               50      0       0      13        0.0%
BITSFR12             0      0       0      13        0.0%
SFR12                0      0       0      13        0.0%
BITBANK5            50      0       0      14        0.0%
BITSFR13             0      0       0      14        0.0%
SFR13                0      0       0      14        0.0%
BANK5               50      0       0      15        0.0%
BITSFR14             0      0       0      15        0.0%
SFR14                0      0       0      15        0.0%
BITBANK6            50      0       0      16        0.0%
BITSFR15             0      0       0      16        0.0%
SFR15                0      0       0      16        0.0%
BANK6               50      0       0      17        0.0%
BITSFR16             0      0       0      17        0.0%
SFR16                0      0       0      17        0.0%
BITBANK7            50      0       0      18        0.0%
BITSFR17             0      0       0      18        0.0%
SFR17                0      0       0      18        0.0%
BANK7               50      0       0      19        0.0%
BITSFR18             0      0       0      19        0.0%
SFR18                0      0       0      19        0.0%
BITSFR19             0      0       0      20        0.0%
SFR19                0      0       0      20        0.0%
ABS                  0      0      36      20        0.0%
BITBANK8            50      0       0      21        0.0%
BITSFR20             0      0       0      21        0.0%
SFR20                0      0       0      21        0.0%
BANK8               50      0       0      22        0.0%
BITSFR21             0      0       0      22        0.0%
SFR21                0      0       0      22        0.0%
BITBANK9            50      0       0      23        0.0%
BITSFR22             0      0       0      23        0.0%
SFR22                0      0       0      23        0.0%
BANK9               50      0       0      24        0.0%
BITSFR23             0      0       0      24        0.0%
SFR23                0      0       0      24        0.0%
BITBANK10           50      0       0      25        0.0%
BITSFR24             0      0       0      25        0.0%
SFR24                0      0       0      25        0.0%
BANK10              50      0       0      26        0.0%
BITSFR25             0      0       0      26        0.0%
SFR25                0      0       0      26        0.0%
BITBANK11           50      0       0      27        0.0%
BITSFR26             0      0       0      27        0.0%
SFR26                0      0       0      27        0.0%
BANK11              50      0       0      28        0.0%
BITSFR27             0      0       0      28        0.0%
SFR27                0      0       0      28        0.0%
BITBANK12           30      0       0      29        0.0%
BITSFR28             0      0       0      29        0.0%
SFR28                0      0       0      29        0.0%
BANK12              30      0       0      30        0.0%
BITSFR29             0      0       0      30        0.0%
SFR29                0      0       0      30        0.0%
BITSFR30             0      0       0      31        0.0%
SFR30                0      0       0      31        0.0%
DATA                 0      0      36      31        0.0%
BITSFR31             0      0       0      32        0.0%
SFR31                0      0       0      32        0.0%


Microchip Technology PIC Macro Assembler V2.31 build 20201012212115 
Symbol Table                                                                                   Wed Feb 03 23:50:28 2021

                ?_EUSART_SetRxInterruptHandler 0071                                             l51 019E  
                                           l37 0103                                             l67 01AF  
                                          l113 0175                                            l300 01D5  
                                          l116 01B7                                            l303 01E1  
                                          l119 01E5                                            l138 01A7  
                                          l306 01C9                                            l234 007B  
                                          l309 01CF                                            l262 00DE  
                                          l422 0145                                            l345 0185  
                                          l258 00BC                                            l346 0185  
                                          l259 00C5                                            l268 01C3  
                                          l297 01DB                                            l970 00DF  
                                          l980 00ED                                            l972 00E2  
                                          l990 00F6                                            l982 00EE  
                                          l974 00E5                                            l992 00F8  
                                          l984 00F0                                            l976 00E9  
                                          l994 00FB                                            l986 00F2  
                                          l978 00EB                                            l996 00FD  
                                          l988 00F3                                            l998 0100  
                                          u400 00D8                                            u401 00D7  
                                          u410 0145                                            u411 0144  
                                          _PR2 001B                                            u380 00BC  
                                          u381 00BB                                            u390 00C1  
                                          u391 00C0                         ??_EUSART_RxDataHandler 0070  
               ?_EUSART_SetFramingErrorHandler 0071                                _TMR2_Initialize 01A8  
                                          wreg 0009                                           l1000 0196  
                                         l1002 019B                                           l1010 01AC  
                                         l1020 01B5                                           l1004 019C  
                                         l1012 01AD                                           l1030 01A4  
                                         l1014 01B0                                           l1006 01A8  
                                         l1022 01E2                                           l1032 01A5  
                                         l1024 019F                                           l1016 01B3  
                                         l1008 01AB                                           l1026 01A2  
                                         l1018 01B4                                           l1028 01A3  
                                         l1220 01C4                                           l1222 01D6  
                                         l1224 01D0                                           l1400 01BF  
                                         l1226 01DC                                           l1218 01CA  
                                         l1402 0126                                           l1410 0179  
                                         l1260 0046                                           l1404 012C  
                                         l1412 017C                                           l1270 0058  
                                         l1262 004F                                           l1406 0130  
                                         l1414 017D                                           l1280 0076  
                                         l1272 0059                                           l1264 0052  
                                         l1256 003D                                           l1416 017E  
                                         l1408 0176                                           l1282 0077  
                                         l1274 0060                                           l1266 0054  
                                         l1258 003F                                           l1284 0078  
                                         l1276 0067                                           l1268 0056  
                                         l1286 0079                                           l1278 0072  
                                         l1294 0160                                           l1390 00CE  
                                         l1382 00B6                                           l1392 00D2  
                                         l1384 00B6                                           l1394 00D8  
                                         l1386 00C1                                           l1396 00D9  
                                         l1388 00C6                                           l1398 00DC  
                                         STR_1 0188                        __end_of_PWM1_Initialize 019F  
                                         _LATA 010C                                           _LATC 010E  
                                         _TMR2 001A                                           _WPUA 020C  
                                         _WPUC 020E                                           _main 0176  
                                         fsr0h 0005                                           fsr1h 0007  
                                         indf0 0000                                           fsr0l 0004  
                                         indf1 0001                                           fsr1l 0006  
                                         btemp 007E                                           start 002C  
                                ?_EUSART_Write 0070                 __size_of_OSCILLATOR_Initialize 0008  
                __end_of_OSCILLATOR_Initialize 01B8                                          ?_main 0070  
                                        _T2CON 001C                                          i1l330 002A  
                                        i1l325 001A                                          i1l326 002A  
                                        i1l271 0123                                          i1l281 00B4  
                                        i1l274 0125                                          i1l291 01E9  
                                        i1l285 015F                                          i1l294 01ED  
                                        i1l288 01EE                                          u30_20 0096  
                                        u30_21 0095                                          u31_20 00AA  
                                        u31_21 00A9                                          u24_20 0159  
                                        u24_21 0158                                          u33_20 000A  
                                        u33_21 0009                                          u34_20 000F  
                                        u34_21 000E                                          u27_20 010B  
                                        u35_20 0014                                          u27_21 010A  
                                        u35_21 0013                                          u28_20 011D  
                                        u36_20 001F                                          u28_21 011C  
                                        u36_21 001E                                          u29_20 0086  
                                        u37_20 0024                                          u29_21 0085  
                                        u37_21 0023                                          _TRISA 008C  
                                        _TRISC 008E                                          _RXPPS 0E24  
                               _WDT_Initialize 01E2                                          _putch 01BE  
                                        pclath 000A                                          status 0003  
                                        wtemp0 007E                                __initialization 002E  
                                 __end_of_main 0188                                 ??_EUSART_Write 0071  
                      __end_of_TMR2_Initialize 01B0                    ?_INTERRUPT_InterruptManager 0070  
               ??_EUSART_SetRxInterruptHandler 0073                                         ??_main 0079  
                       __end_of_WDT_Initialize 01E6      __end_of_EUSART_DefaultFramingErrorHandler 01EF  
   __size_of_EUSART_DefaultFramingErrorHandler 0001            ??_EUSART_DefaultFramingErrorHandler 0070  
           ?_EUSART_DefaultFramingErrorHandler 0070              _EUSART_DefaultFramingErrorHandler 01EE  
                                       _ADCON0 009D                                         _ADCON1 009E  
                                       _ADCON2 009F                     _EUSART_OverrunErrorHandler 003F  
                                       _ADRESH 009C                                         _ADRESL 009B  
                                       _CCPR1H 0292                                         _CCPR1L 0291  
                                       _ANSELA 018C                                         ?_putch 0070  
                                       _ANSELC 018E                                         _BORCON 0116  
                                       _RC1REG 0199                                         _RC1STA 019D  
                                       _RC4PPS 0EA4                               ?_PWM1_Initialize 0070  
                                       i1l1320 010B                                         i1l1250 0153  
                                       i1l1330 007C                                         i1l1322 0112  
                                       i1l1252 0159                                         i1l1340 0096  
                                       i1l1332 0081                                         i1l1324 0117  
                                       i1l1254 015A                                         i1l1246 0146  
                                       i1l1342 009B                                         i1l1334 0086  
                                       i1l1326 011D                                         i1l1318 0104  
                                       i1l1248 014F                                         i1l1344 00A1  
                                       i1l1336 008B                                         i1l1328 011E  
                                       i1l1360 0006                                         _ODCONA 028C  
                                       i1l1290 01E6                                         i1l1346 00AA  
                                       i1l1338 0091                                         i1l1370 0024  
                                       i1l1362 000A                                         _ODCONC 028E  
                                       i1l1292 01EA                                         i1l1348 00B1  
                                       i1l1364 000F                                         i1l1366 0014  
                                       i1l1368 001F                                         _INLVLA 038C  
                                       _INLVLC 038E                                         _OSCCON 0099  
                                       _TX1REG 019A                                         _WDTCON 0097  
                                       _TX1STA 019E                            _EUSART_Transmit_ISR 0104  
                                       _printf 0126                                ?_WDT_Initialize 0070  
                         ?_EUSART_Transmit_ISR 0070                              _SYSTEM_Initialize 0160  
                      __end_of__initialization 0039                             ?_SYSTEM_Initialize 0070  
         __end_of_EUSART_SetTxInterruptHandler 01CA          __size_of_EUSART_SetTxInterruptHandler 0006  
                 _EUSART_SetTxInterruptHandler 01C4                                 __pcstackCOMMON 0070  
                          ??_SYSTEM_Initialize 0074                                  __end_of_putch 01C4  
                             ?_TMR2_Initialize 0070                                 _OPTION_REGbits 0095  
                         _eusartRxStatusBuffer 0020                ??_EUSART_SetOverrunErrorHandler 0073  
                    __end_of_SYSTEM_Initialize 0176                          ??_EUSART_Transmit_ISR 0070  
                                      ??_putch 0073                                     __pbssBANK0 0020  
                         __end_of_EUSART_Write 00DF                    __size_of_EUSART_Receive_ISR 0039  
                                   __pmaintext 0176                  ?_EUSART_SetTxInterruptHandler 0071  
             _EUSART_TxDefaultInterruptHandler 0045                                     __pintentry 0004  
                                      _CCP1CON 0293                   ??_EUSART_DefaultErrorHandler 0071  
                                      ?_printf 0074                        __size_of_ADC_Initialize 0009  
                                _eusartRxCount 003B                                        _SP1BRGH 019C  
                                      _SP1BRGL 019B                  __size_of_EUSART_RxDataHandler 001A  
                                      _OSCSTAT 009A                                        _OSCTUNE 0098  
                                      _SLRCONA 030C                                        _SLRCONC 030E  
                     ??_EUSART_SetErrorHandler 0073                           _ADC_InterruptHandler 0038  
          __size_of_EUSART_DefaultErrorHandler 0004                                        __ptext1 0126  
                                      __ptext2 01BE                                        __ptext3 00B5  
                                      __ptext4 0160                                        __ptext5 01E2  
                                      __ptext6 01A8                                        __ptext7 0196  
                                      __ptext8 00DF                                        __ptext9 01B0  
                              __size_of_printf 0020                          _OSCILLATOR_Initialize 01B0  
                                    _T2CONbits 001C                       ??_PIN_MANAGER_Initialize 0071  
                   __size_of_SYSTEM_Initialize 0016                                        clrloop0 01B9  
                         end_of_initialization 0039          __end_of_EUSART_SetOverrunErrorHandler 01D6  
       __size_of_EUSART_SetOverrunErrorHandler 0006                  _EUSART_SetOverrunErrorHandler 01D0  
                            _EUSART_Initialize 003D                             ?_EUSART_Initialize 0070  
                                    _RCSTAbits 019D                                        printf@c 0049  
                                      printf@f 0074                            ??_EUSART_Initialize 0073  
                             ??_WDT_Initialize 0071                 ??_EUSART_SetTxInterruptHandler 0073  
                        __size_of_EUSART_Write 002A                __size_of_EUSART_SetErrorHandler 0006  
                    __end_of_EUSART_Initialize 007C                                      _TXSTAbits 019E  
                     __size_of_PWM1_Initialize 0009             __end_of_EUSART_DefaultErrorHandler 01EE  
                   _EUSART_DefaultErrorHandler 01EA                                   _EUSART_Write 00B5  
                               _ADC_Initialize 019F                         ?_OSCILLATOR_Initialize 0070  
                               __end_of_printf 0146                            start_initialization 002E  
              __size_of_PIN_MANAGER_Initialize 0025   EUSART_SetRxInterruptHandler@interruptHandler 0071  
 EUSART_SetTxInterruptHandler@interruptHandler 0071                                    putch@txData 0073  
               ?_EUSART_SetOverrunErrorHandler 0071                     _EUSART_FramingErrorHandler 0041  
                       _EUSART_SetErrorHandler 01DC                                    _CCPTMRSbits 029E  
                       __end_of_ADC_Initialize 01A8                                       ??_printf 0076  
                  __end_of_EUSART_Transmit_ISR 0126                                    __pbssCOMMON 0079  
                                    ___latbits 0002                                  __pcstackBANK0 0048  
                     __size_of_TMR2_Initialize 0008                     __end_of_EUSART_Receive_ISR 00B5  
                   __size_of_EUSART_Initialize 003F               _EUSART_RxDefaultInterruptHandler 0043  
                                    __pnvBANK0 003D                   __end_of_EUSART_RxDataHandler 0160  
                       _PIN_MANAGER_Initialize 00DF                                ?_ADC_Initialize 0070  
                                 _eusartRxHead 007A                                   _eusartTxHead 007B  
                                 _eusartRxTail 0079                                   _eusartTxTail 003C  
                            ??_PWM1_Initialize 0071                   ??_INTERRUPT_InterruptManager 0071  
                      _eusartTxBufferRemaining 0047                                       _BAUD1CON 019F  
                               __size_of_putch 0006                                 _eusartRxBuffer 0028  
                               _eusartTxBuffer 0030         EUSART_SetErrorHandler@interruptHandler 0071  
                                    clear_ram0 01B8                                       _PIE1bits 0091  
                            _eusartRxLastError 003A            __size_of_INTERRUPT_InterruptManager 0028  
                                     _PIR1bits 0011                ??_EUSART_SetFramingErrorHandler 0073  
    __end_of_EUSART_DefaultOverrunErrorHandler 01EA     __size_of_EUSART_DefaultOverrunErrorHandler 0004  
          ??_EUSART_DefaultOverrunErrorHandler 0070             ?_EUSART_DefaultOverrunErrorHandler 0070  
            _EUSART_DefaultOverrunErrorHandler 01E6                                     _ADCON0bits 009D  
                            ??_TMR2_Initialize 0071                        ??_OSCILLATOR_Initialize 0071  
                          _EUSART_ErrorHandler 003D                    ?_EUSART_DefaultErrorHandler 0070  
                         _EUSART_RxDataHandler 0146                                       __ptext10 003D  
                                     __ptext11 01C4                                       __ptext20 01E6  
                                     __ptext12 01CA                                       __ptext21 01EE  
                                     __ptext13 01D0                                       __ptext22 01EA  
                                     __ptext14 01D6                                       __ptext23 0146  
                                     __ptext15 01DC                                       __ptext16 019F  
                                     __ptext18 0104                                       __ptext19 007C  
                                __size_of_main 0012                        ?_EUSART_SetErrorHandler 0071  
                                   _RC1STAbits 019D  EUSART_SetOverrunErrorHandler@interruptHandler 0071  
                                     int$flags 007E             __end_of_INTERRUPT_InterruptManager 002C  
                   _INTERRUPT_InterruptManager 0004          __end_of_EUSART_SetFramingErrorHandler 01DC  
       __size_of_EUSART_SetFramingErrorHandler 0006                  _EUSART_SetFramingErrorHandler 01D6  
                                   _INTCONbits 000B                          ?_EUSART_RxDataHandler 0070  
                      __size_of_WDT_Initialize 0004                                       intlevel1 0000  
                      ?_PIN_MANAGER_Initialize 0070                 __end_of_EUSART_SetErrorHandler 01E2  
                              _PWM1_Initialize 0196                               ??_ADC_Initialize 0071  
         __end_of_EUSART_SetRxInterruptHandler 01D0          __size_of_EUSART_SetRxInterruptHandler 0006  
                 _EUSART_SetRxInterruptHandler 01CA                                       printf@ap 0048  
                           _EUSART_Receive_ISR 007C  EUSART_SetFramingErrorHandler@interruptHandler 0071  
                                __pstringtext1 0188                                  __pstringtext2 0000  
                          ?_EUSART_Receive_ISR 0070                                     _TX1STAbits 019E  
                           EUSART_Write@txData 0072                   __size_of_EUSART_Transmit_ISR 0022  
               __end_of_PIN_MANAGER_Initialize 0104                           ??_EUSART_Receive_ISR 0071  
